(dp1
S'output'
p2
S"<class 'git.exc.InvalidGitRepositoryError'> /home/wasuaje/Documentos/desarrollo/web2py5"
p3
sS'layer'
p4
S'/home/wasuaje/Documentos/desarrollo/web2py5/applications/admin/controllers/openshift.py'
p5
sS'code'
p6
S'import os\ntry:\n    from distutils import dir_util\nexcept ImportError:\n    session.flash = T(\'requires distutils, but not installed\')\n    redirect(URL(\'default\', \'site\'))\ntry:\n    from git import *\nexcept ImportError:\n    session.flash = T(\'requires python-git, but not installed\')\n    redirect(URL(\'default\', \'site\'))\n\n\ndef deploy():\n    apps = sorted(file for file in os.listdir(apath(r=request)))\n    form = SQLFORM.factory(\n        Field(\n            \'osrepo\', default=\'/tmp\', label=T(\'Path to local openshift repo root.\'),\n            requires=EXISTS(error_message=T(\'directory not found\'))),\n        Field(\'osname\', default=\'web2py\', label=T(\'WSGI reference name\')),\n        Field(\'applications\', \'list:string\',\n              requires=IS_IN_SET(apps, multiple=True),\n              label=T(\'web2py apps to deploy\')))\n\n    cmd = output = errors = ""\n    if form.accepts(request, session):\n        try:\n            kill()\n        except:\n            pass\n\n        ignore_apps = [\n            item for item in apps if not item in form.vars.applications]\n        regex = re.compile(\'\\(applications/\\(.*\')\n        w2p_origin = os.getcwd()\n        osrepo = form.vars.osrepo\n        osname = form.vars.osname\n        #Git code starts here\n        repo = Repo(form.vars.osrepo)\n        index = repo.index\n        assert repo.bare == False\n\n        for i in form.vars.applications:\n            appsrc = os.path.join(apath(r=request), i)\n            appdest = os.path.join(osrepo, \'wsgi\', osname, \'applications\', i)\n            dir_util.copy_tree(appsrc, appdest)\n            #shutil.copytree(appsrc,appdest)\n            index.add([\'wsgi/\' + osname + \'/applications/\' + i])\n            new_commit = index.commit("Deploy from Web2py IDE")\n\n        origin = repo.remotes.origin\n        origin.push\n        origin.push()\n        #Git code ends here\n    return dict(form=form, command=cmd)\n\n\nclass EXISTS(object):\n    def __init__(self, error_message=\'file not found\'):\n        self.error_message = error_message\n\n    def __call__(self, value):\n        if os.path.exists(value):\n            return (value, None)\n        return (value, self.error_message)\n\nresponse._vars=response._caller(deploy)\n'
p7
sS'snapshot'
p8
(dp9
S'exception'
p10
(dp11
S'__module__'
p12
S"'git.exc'"
p13
sS'__getslice__'
p14
S"<method-wrapper '__getslice__' of InvalidGitRepositoryError object>"
p15
sS'__str__'
p16
S"<method-wrapper '__str__' of InvalidGitRepositoryError object>"
p17
sS'__reduce__'
p18
S'<built-in method __reduce__ of InvalidGitRepositoryError object>'
p19
sS'__dict__'
p20
S'{}'
p21
sS'__sizeof__'
p22
S'<built-in method __sizeof__ of InvalidGitRepositoryError object>'
p23
sS'__weakref__'
p24
S'None'
p25
sS'__init__'
p26
S"<method-wrapper '__init__' of InvalidGitRepositoryError object>"
p27
sS'__setattr__'
p28
S"<method-wrapper '__setattr__' of InvalidGitRepositoryError object>"
p29
sS'__reduce_ex__'
p30
S'<built-in method __reduce_ex__ of InvalidGitRepositoryError object>'
p31
sS'__new__'
p32
S'<built-in method __new__ of type object>'
p33
sS'__format__'
p34
S'<built-in method __format__ of InvalidGitRepositoryError object>'
p35
sS'__class__'
p36
S"<class 'git.exc.InvalidGitRepositoryError'>"
p37
sS'__doc__'
p38
S"' Thrown if the given repository appears to have an invalid format.  '"
p39
sS'__getitem__'
p40
S"<method-wrapper '__getitem__' of InvalidGitRepositoryError object>"
p41
sS'__setstate__'
p42
S'<built-in method __setstate__ of InvalidGitRepositoryError object>'
p43
sS'__getattribute__'
p44
S"<method-wrapper '__getattribute__' of InvalidGitRepositoryError object>"
p45
sS'args'
p46
S"('/home/wasuaje/Documentos/desarrollo/web2py5',)"
p47
sS'__subclasshook__'
p48
S'<built-in method __subclasshook__ of type object>'
p49
sS'__unicode__'
p50
S'<built-in method __unicode__ of InvalidGitRepositoryError object>'
p51
sS'__delattr__'
p52
S"<method-wrapper '__delattr__' of InvalidGitRepositoryError object>"
p53
sS'__repr__'
p54
S"<method-wrapper '__repr__' of InvalidGitRepositoryError object>"
p55
sS'__hash__'
p56
S"<method-wrapper '__hash__' of InvalidGitRepositoryError object>"
p57
ssS'evalue'
p58
S'/home/wasuaje/Documentos/desarrollo/web2py5'
p59
sS'request'
p60
ccopy_reg
_reconstructor
p61
(cgluon.html
BEAUTIFY
p62
c__builtin__
object
p63
NtRp64
(dp65
S'attributes'
p66
(dp67
sS'components'
p68
(lp69
g61
(cgluon.html
TABLE
p70
g63
NtRp71
(dp72
g66
(dp73
S'level'
p74
I5
ssS'parent'
p75
Nsg68
(lp76
g61
(cgluon.html
TR
p77
g63
NtRp78
(dp79
g66
(dp80
sg75
g71
sg68
(lp81
g61
(cgluon.html
TD
p82
g63
NtRp83
(dp84
g66
(dp85
S'_style'
p86
S'font-weight:bold;vertical-align:top'
p87
ssg75
g78
sg68
(lp88
S'ajax'
p89
asbag61
(g82
g63
NtRp90
(dp91
g66
(dp92
S'_valign'
p93
S'top'
p94
ssg75
g78
sg68
(lp95
S':'
asbag61
(g82
g63
NtRp96
(dp97
g66
(dp98
sg75
g78
sg68
(lp99
g61
(g62
g63
NtRp100
(dp101
g66
(dp102
g74
I5
ssg75
g96
sg68
(lp103
S'False'
p104
asbasbasbag61
(g77
g63
NtRp105
(dp106
g66
(dp107
sg75
g71
sg68
(lp108
g61
(g82
g63
NtRp109
(dp110
g66
(dp111
g86
g87
ssg75
g105
sg68
(lp112
S'application'
p113
asbag61
(g82
g63
NtRp114
(dp115
g66
(dp116
g93
g94
ssg75
g105
sg68
(lp117
S':'
asbag61
(g82
g63
NtRp118
(dp119
g66
(dp120
sg75
g105
sg68
(lp121
g61
(g62
g63
NtRp122
(dp123
g66
(dp124
g74
I5
ssg75
g118
sg68
(lp125
S'admin'
p126
asbasbasbag61
(g77
g63
NtRp127
(dp128
g66
(dp129
sg75
g71
sg68
(lp130
g61
(g82
g63
NtRp131
(dp132
g66
(dp133
g86
g87
ssg75
g127
sg68
(lp134
g46
asbag61
(g82
g63
NtRp135
(dp136
g66
(dp137
g93
g94
ssg75
g127
sg68
(lp138
S':'
asbag61
(g82
g63
NtRp139
(dp140
g66
(dp141
sg75
g127
sg68
(lp142
g61
(g62
g63
NtRp143
(dp144
g66
(dp145
g74
I5
ssg75
g139
sg68
(lp146
g61
(g70
g63
NtRp147
(dp148
g66
(dp149
g74
I4
ssg75
Nsg68
(lp150
sbasbasbasbag61
(g77
g63
NtRp151
(dp152
g66
(dp153
sg75
g71
sg68
(lp154
g61
(g82
g63
NtRp155
(dp156
g66
(dp157
g86
g87
ssg75
g151
sg68
(lp158
S'body'
p159
asbag61
(g82
g63
NtRp160
(dp161
g66
(dp162
g93
g94
ssg75
g151
sg68
(lp163
S':'
asbag61
(g82
g63
NtRp164
(dp165
g66
(dp166
sg75
g151
sg68
(lp167
g61
(g62
g63
NtRp168
(dp169
g66
(dp170
g74
I5
ssg75
g164
sg68
(lp171
S"<open file '<fdopen>', mode 'w+b' at 0xaa17cb78>"
p172
asbasbasbag61
(g77
g63
NtRp173
(dp174
g66
(dp175
sg75
g71
sg68
(lp176
g61
(g82
g63
NtRp177
(dp178
g66
(dp179
g86
g87
ssg75
g173
sg68
(lp180
S'cid'
p181
asbag61
(g82
g63
NtRp182
(dp183
g66
(dp184
g93
g94
ssg75
g173
sg68
(lp185
S':'
asbag61
(g82
g63
NtRp186
(dp187
g66
(dp188
sg75
g173
sg68
(lp189
g61
(g62
g63
NtRp190
(dp191
g66
(dp192
g74
I5
ssg75
g186
sg68
(lp193
S'None'
p194
asbasbasbag61
(g77
g63
NtRp195
(dp196
g66
(dp197
sg75
g71
sg68
(lp198
g61
(g82
g63
NtRp199
(dp200
g66
(dp201
g86
g87
ssg75
g195
sg68
(lp202
S'client'
p203
asbag61
(g82
g63
NtRp204
(dp205
g66
(dp206
g93
g94
ssg75
g195
sg68
(lp207
S':'
asbag61
(g82
g63
NtRp208
(dp209
g66
(dp210
sg75
g195
sg68
(lp211
g61
(g62
g63
NtRp212
(dp213
g66
(dp214
g74
I5
ssg75
g208
sg68
(lp215
S'127.0.0.1'
p216
asbasbasbag61
(g77
g63
NtRp217
(dp218
g66
(dp219
sg75
g71
sg68
(lp220
g61
(g82
g63
NtRp221
(dp222
g66
(dp223
g86
g87
ssg75
g217
sg68
(lp224
S'controller'
p225
asbag61
(g82
g63
NtRp226
(dp227
g66
(dp228
g93
g94
ssg75
g217
sg68
(lp229
S':'
asbag61
(g82
g63
NtRp230
(dp231
g66
(dp232
sg75
g217
sg68
(lp233
g61
(g62
g63
NtRp234
(dp235
g66
(dp236
g74
I5
ssg75
g230
sg68
(lp237
S'openshift'
p238
asbasbasbag61
(g77
g63
NtRp239
(dp240
g66
(dp241
sg75
g71
sg68
(lp242
g61
(g82
g63
NtRp243
(dp244
g66
(dp245
g86
g87
ssg75
g239
sg68
(lp246
S'cookies'
p247
asbag61
(g82
g63
NtRp248
(dp249
g66
(dp250
g93
g94
ssg75
g239
sg68
(lp251
S':'
asbag61
(g82
g63
NtRp252
(dp253
g66
(dp254
sg75
g239
sg68
(lp255
g61
(g62
g63
NtRp256
(dp257
g66
(dp258
g74
I5
ssg75
g252
sg68
(lp259
g61
(g70
g63
NtRp260
(dp261
g66
(dp262
g74
I4
ssg75
Nsg68
(lp263
g61
(g77
g63
NtRp264
(dp265
g66
(dp266
sg75
g260
sg68
(lp267
g61
(g82
g63
NtRp268
(dp269
g66
(dp270
g86
g87
ssg75
g264
sg68
(lp271
S'session_id_admin'
p272
asbag61
(g82
g63
NtRp273
(dp274
g66
(dp275
g93
g94
ssg75
g264
sg68
(lp276
S':'
asbag61
(g82
g63
NtRp277
(dp278
g66
(dp279
sg75
g264
sg68
(lp280
g61
(g62
g63
NtRp281
(dp282
g66
(dp283
g74
I4
ssg75
g277
sg68
(lp284
S'127.0.0.1-11192b0e-b4bb-4838-b797-1c5df59efc3e'
p285
ag61
(g70
g63
NtRp286
(dp287
g66
(dp288
g74
I3
ssg75
Nsg68
(lp289
g61
(g77
g63
NtRp290
(dp291
g66
(dp292
sg75
g286
sg68
(lp293
g61
(g82
g63
NtRp294
(dp295
g66
(dp296
g86
g87
ssg75
g290
sg68
(lp297
S'comment'
p298
asbag61
(g82
g63
NtRp299
(dp300
g66
(dp301
g93
g94
ssg75
g290
sg68
(lp302
S':'
asbag61
(g82
g63
NtRp303
(dp304
g66
(dp305
sg75
g290
sg68
(lp306
g61
(g62
g63
NtRp307
(dp308
g66
(dp309
g74
I3
ssg75
g303
sg68
(lp310
S''
asbasbasbag61
(g77
g63
NtRp311
(dp312
g66
(dp313
sg75
g286
sg68
(lp314
g61
(g82
g63
NtRp315
(dp316
g66
(dp317
g86
g87
ssg75
g311
sg68
(lp318
S'domain'
p319
asbag61
(g82
g63
NtRp320
(dp321
g66
(dp322
g93
g94
ssg75
g311
sg68
(lp323
S':'
asbag61
(g82
g63
NtRp324
(dp325
g66
(dp326
sg75
g311
sg68
(lp327
g61
(g62
g63
NtRp328
(dp329
g66
(dp330
g74
I3
ssg75
g324
sg68
(lp331
S''
asbasbasbag61
(g77
g63
NtRp332
(dp333
g66
(dp334
sg75
g286
sg68
(lp335
g61
(g82
g63
NtRp336
(dp337
g66
(dp338
g86
g87
ssg75
g332
sg68
(lp339
S'expires'
p340
asbag61
(g82
g63
NtRp341
(dp342
g66
(dp343
g93
g94
ssg75
g332
sg68
(lp344
S':'
asbag61
(g82
g63
NtRp345
(dp346
g66
(dp347
sg75
g332
sg68
(lp348
g61
(g62
g63
NtRp349
(dp350
g66
(dp351
g74
I3
ssg75
g345
sg68
(lp352
S''
asbasbasbag61
(g77
g63
NtRp353
(dp354
g66
(dp355
sg75
g286
sg68
(lp356
g61
(g82
g63
NtRp357
(dp358
g66
(dp359
g86
g87
ssg75
g353
sg68
(lp360
S'httponly'
p361
asbag61
(g82
g63
NtRp362
(dp363
g66
(dp364
g93
g94
ssg75
g353
sg68
(lp365
S':'
asbag61
(g82
g63
NtRp366
(dp367
g66
(dp368
sg75
g353
sg68
(lp369
g61
(g62
g63
NtRp370
(dp371
g66
(dp372
g74
I3
ssg75
g366
sg68
(lp373
S''
asbasbasbag61
(g77
g63
NtRp374
(dp375
g66
(dp376
sg75
g286
sg68
(lp377
g61
(g82
g63
NtRp378
(dp379
g66
(dp380
g86
g87
ssg75
g374
sg68
(lp381
S'max-age'
p382
asbag61
(g82
g63
NtRp383
(dp384
g66
(dp385
g93
g94
ssg75
g374
sg68
(lp386
S':'
asbag61
(g82
g63
NtRp387
(dp388
g66
(dp389
sg75
g374
sg68
(lp390
g61
(g62
g63
NtRp391
(dp392
g66
(dp393
g74
I3
ssg75
g387
sg68
(lp394
S''
asbasbasbag61
(g77
g63
NtRp395
(dp396
g66
(dp397
sg75
g286
sg68
(lp398
g61
(g82
g63
NtRp399
(dp400
g66
(dp401
g86
g87
ssg75
g395
sg68
(lp402
S'path'
p403
asbag61
(g82
g63
NtRp404
(dp405
g66
(dp406
g93
g94
ssg75
g395
sg68
(lp407
S':'
asbag61
(g82
g63
NtRp408
(dp409
g66
(dp410
sg75
g395
sg68
(lp411
g61
(g62
g63
NtRp412
(dp413
g66
(dp414
g74
I3
ssg75
g408
sg68
(lp415
S''
asbasbasbag61
(g77
g63
NtRp416
(dp417
g66
(dp418
sg75
g286
sg68
(lp419
g61
(g82
g63
NtRp420
(dp421
g66
(dp422
g86
g87
ssg75
g416
sg68
(lp423
S'secure'
p424
asbag61
(g82
g63
NtRp425
(dp426
g66
(dp427
g93
g94
ssg75
g416
sg68
(lp428
S':'
asbag61
(g82
g63
NtRp429
(dp430
g66
(dp431
sg75
g416
sg68
(lp432
g61
(g62
g63
NtRp433
(dp434
g66
(dp435
g74
I3
ssg75
g429
sg68
(lp436
S''
asbasbasbag61
(g77
g63
NtRp437
(dp438
g66
(dp439
sg75
g286
sg68
(lp440
g61
(g82
g63
NtRp441
(dp442
g66
(dp443
g86
g87
ssg75
g437
sg68
(lp444
S'version'
p445
asbag61
(g82
g63
NtRp446
(dp447
g66
(dp448
g93
g94
ssg75
g437
sg68
(lp449
S':'
asbag61
(g82
g63
NtRp450
(dp451
g66
(dp452
sg75
g437
sg68
(lp453
g61
(g62
g63
NtRp454
(dp455
g66
(dp456
g74
I3
ssg75
g450
sg68
(lp457
S''
asbasbasbasbasbasbasbasbasbasbasbag61
(g77
g63
NtRp458
(dp459
g66
(dp460
sg75
g71
sg68
(lp461
g61
(g82
g63
NtRp462
(dp463
g66
(dp464
g86
g87
ssg75
g458
sg68
(lp465
S'env'
p466
asbag61
(g82
g63
NtRp467
(dp468
g66
(dp469
g93
g94
ssg75
g458
sg68
(lp470
S':'
asbag61
(g82
g63
NtRp471
(dp472
g66
(dp473
sg75
g458
sg68
(lp474
g61
(g62
g63
NtRp475
(dp476
g66
(dp477
g74
I5
ssg75
g471
sg68
(lp478
g61
(g70
g63
NtRp479
(dp480
g66
(dp481
g74
I4
ssg75
Nsg68
(lp482
g61
(g77
g63
NtRp483
(dp484
g66
(dp485
sg75
g479
sg68
(lp486
g61
(g82
g63
NtRp487
(dp488
g66
(dp489
g86
g87
ssg75
g483
sg68
(lp490
S'app_folders'
p491
asbag61
(g82
g63
NtRp492
(dp493
g66
(dp494
g93
g94
ssg75
g483
sg68
(lp495
S':'
asbag61
(g82
g63
NtRp496
(dp497
g66
(dp498
sg75
g483
sg68
(lp499
g61
(g62
g63
NtRp500
(dp501
g66
(dp502
g74
I4
ssg75
g496
sg68
(lp503
S"set(['/home/wasuaje/Documentos/desarrollo/web2py5/applications/admin/'])"
p504
asbasbasbag61
(g77
g63
NtRp505
(dp506
g66
(dp507
sg75
g479
sg68
(lp508
g61
(g82
g63
NtRp509
(dp510
g66
(dp511
g86
g87
ssg75
g505
sg68
(lp512
S'applications_parent'
p513
asbag61
(g82
g63
NtRp514
(dp515
g66
(dp516
g93
g94
ssg75
g505
sg68
(lp517
S':'
asbag61
(g82
g63
NtRp518
(dp519
g66
(dp520
sg75
g505
sg68
(lp521
g61
(g62
g63
NtRp522
(dp523
g66
(dp524
g74
I4
ssg75
g518
sg68
(lp525
S'/home/wasuaje/Documentos/desarrollo/web2py5'
p526
asbasbasbag61
(g77
g63
NtRp527
(dp528
g66
(dp529
sg75
g479
sg68
(lp530
g61
(g82
g63
NtRp531
(dp532
g66
(dp533
g86
g87
ssg75
g527
sg68
(lp534
S'cmd_args'
p535
asbag61
(g82
g63
NtRp536
(dp537
g66
(dp538
g93
g94
ssg75
g527
sg68
(lp539
S':'
asbag61
(g82
g63
NtRp540
(dp541
g66
(dp542
sg75
g527
sg68
(lp543
g61
(g62
g63
NtRp544
(dp545
g66
(dp546
g74
I4
ssg75
g540
sg68
(lp547
g61
(g70
g63
NtRp548
(dp549
g66
(dp550
g74
I3
ssg75
Nsg68
(lp551
sbasbasbasbag61
(g77
g63
NtRp552
(dp553
g66
(dp554
sg75
g479
sg68
(lp555
g61
(g82
g63
NtRp556
(dp557
g66
(dp558
g86
g87
ssg75
g552
sg68
(lp559
S'cmd_options'
p560
asbag61
(g82
g63
NtRp561
(dp562
g66
(dp563
g93
g94
ssg75
g552
sg68
(lp564
S':'
asbag61
(g82
g63
NtRp565
(dp566
g66
(dp567
sg75
g552
sg68
(lp568
g61
(g62
g63
NtRp569
(dp570
g66
(dp571
g74
I4
ssg75
g565
sg68
(lp572
S"<Values at 0xa913dac: {'verbose': False, 'ip': '127.0.0.1', 'with_scheduler': False, 'ips': [], 'shutdown_timeout': 5, 'taskbar': False, 'port': 9090, 'maxthreads': None, 'softcron': False, 'server_name': 'wasuaje-desktop', 'bpython': False, 'nogui': False, 'pid_filename': 'httpserver.pid', 'extcron': False, 'runcron': False, 'run_system_tests': False, 'test': None, 'folder': '/home/wasuaje/Documentos/desarrollo/web2py5', 'config': '', 'import_models': False, 'winservice': '', 'shell': None, 'run': '', 'log_filename': 'httpserver.log', 'debuglevel': 30, 'args': [''], 'socket_timeout': 5, 'ssl_ca_certificate': None, 'scheduler': None, 'profiler_filename': None, 'ssl_private_key': '', 'scheduler_groups': None, 'password': 'w', 'request_queue_size': 5, 'ssl_certificate': '', 'cronjob': False, 'numthreads': None, 'quiet': False, 'interfaces': None, 'minthreads': None, 'timeout': 10, 'plain': False, 'nobanner': False}>"
p573
asbasbasbag61
(g77
g63
NtRp574
(dp575
g66
(dp576
sg75
g479
sg68
(lp577
g61
(g82
g63
NtRp578
(dp579
g66
(dp580
g86
g87
ssg75
g574
sg68
(lp581
S'content_length'
p582
asbag61
(g82
g63
NtRp583
(dp584
g66
(dp585
g93
g94
ssg75
g574
sg68
(lp586
S':'
asbag61
(g82
g63
NtRp587
(dp588
g66
(dp589
sg75
g574
sg68
(lp590
g61
(g62
g63
NtRp591
(dp592
g66
(dp593
g74
I4
ssg75
g587
sg68
(lp594
S'738'
p595
asbasbasbag61
(g77
g63
NtRp596
(dp597
g66
(dp598
sg75
g479
sg68
(lp599
g61
(g82
g63
NtRp600
(dp601
g66
(dp602
g86
g87
ssg75
g596
sg68
(lp603
S'content_type'
p604
asbag61
(g82
g63
NtRp605
(dp606
g66
(dp607
g93
g94
ssg75
g596
sg68
(lp608
S':'
asbag61
(g82
g63
NtRp609
(dp610
g66
(dp611
sg75
g596
sg68
(lp612
g61
(g62
g63
NtRp613
(dp614
g66
(dp615
g74
I4
ssg75
g609
sg68
(lp616
S'multipart/form-data; boundary=---------------------------10911540241816391245181381285'
p617
asbasbasbag61
(g77
g63
NtRp618
(dp619
g66
(dp620
sg75
g479
sg68
(lp621
g61
(g82
g63
NtRp622
(dp623
g66
(dp624
g86
g87
ssg75
g618
sg68
(lp625
S'db_sessions'
p626
asbag61
(g82
g63
NtRp627
(dp628
g66
(dp629
g93
g94
ssg75
g618
sg68
(lp630
S':'
asbag61
(g82
g63
NtRp631
(dp632
g66
(dp633
sg75
g618
sg68
(lp634
g61
(g62
g63
NtRp635
(dp636
g66
(dp637
g74
I4
ssg75
g631
sg68
(lp638
S'set([])'
p639
asbasbasbag61
(g77
g63
NtRp640
(dp641
g66
(dp642
sg75
g479
sg68
(lp643
g61
(g82
g63
NtRp644
(dp645
g66
(dp646
g86
g87
ssg75
g640
sg68
(lp647
S'debugging'
p648
asbag61
(g82
g63
NtRp649
(dp650
g66
(dp651
g93
g94
ssg75
g640
sg68
(lp652
S':'
asbag61
(g82
g63
NtRp653
(dp654
g66
(dp655
sg75
g640
sg68
(lp656
g61
(g62
g63
NtRp657
(dp658
g66
(dp659
g74
I4
ssg75
g653
sg68
(lp660
g104
asbasbasbag61
(g77
g63
NtRp661
(dp662
g66
(dp663
sg75
g479
sg68
(lp664
g61
(g82
g63
NtRp665
(dp666
g66
(dp667
g86
g87
ssg75
g661
sg68
(lp668
S'gluon_parent'
p669
asbag61
(g82
g63
NtRp670
(dp671
g66
(dp672
g93
g94
ssg75
g661
sg68
(lp673
S':'
asbag61
(g82
g63
NtRp674
(dp675
g66
(dp676
sg75
g661
sg68
(lp677
g61
(g62
g63
NtRp678
(dp679
g66
(dp680
g74
I4
ssg75
g674
sg68
(lp681
S'/home/wasuaje/Documentos/desarrollo/web2py5'
p682
asbasbasbag61
(g77
g63
NtRp683
(dp684
g66
(dp685
sg75
g479
sg68
(lp686
g61
(g82
g63
NtRp687
(dp688
g66
(dp689
g86
g87
ssg75
g683
sg68
(lp690
S'http_accept'
p691
asbag61
(g82
g63
NtRp692
(dp693
g66
(dp694
g93
g94
ssg75
g683
sg68
(lp695
S':'
asbag61
(g82
g63
NtRp696
(dp697
g66
(dp698
sg75
g683
sg68
(lp699
g61
(g62
g63
NtRp700
(dp701
g66
(dp702
g74
I4
ssg75
g696
sg68
(lp703
S'text/html,application/xhtml+xml,application/xml;q=0.9,*/*;q=0.8'
p704
asbasbasbag61
(g77
g63
NtRp705
(dp706
g66
(dp707
sg75
g479
sg68
(lp708
g61
(g82
g63
NtRp709
(dp710
g66
(dp711
g86
g87
ssg75
g705
sg68
(lp712
S'http_accept_encoding'
p713
asbag61
(g82
g63
NtRp714
(dp715
g66
(dp716
g93
g94
ssg75
g705
sg68
(lp717
S':'
asbag61
(g82
g63
NtRp718
(dp719
g66
(dp720
sg75
g705
sg68
(lp721
g61
(g62
g63
NtRp722
(dp723
g66
(dp724
g74
I4
ssg75
g718
sg68
(lp725
S'gzip, deflate'
p726
asbasbasbag61
(g77
g63
NtRp727
(dp728
g66
(dp729
sg75
g479
sg68
(lp730
g61
(g82
g63
NtRp731
(dp732
g66
(dp733
g86
g87
ssg75
g727
sg68
(lp734
S'http_accept_language'
p735
asbag61
(g82
g63
NtRp736
(dp737
g66
(dp738
g93
g94
ssg75
g727
sg68
(lp739
S':'
asbag61
(g82
g63
NtRp740
(dp741
g66
(dp742
sg75
g727
sg68
(lp743
g61
(g62
g63
NtRp744
(dp745
g66
(dp746
g74
I4
ssg75
g740
sg68
(lp747
S'es-MX,es-ES;q=0.8,es-AR;q=0.7,es;q=0.5,en-US;q=0.3,en;q=0.2'
p748
asbasbasbag61
(g77
g63
NtRp749
(dp750
g66
(dp751
sg75
g479
sg68
(lp752
g61
(g82
g63
NtRp753
(dp754
g66
(dp755
g86
g87
ssg75
g749
sg68
(lp756
S'http_connection'
p757
asbag61
(g82
g63
NtRp758
(dp759
g66
(dp760
g93
g94
ssg75
g749
sg68
(lp761
S':'
asbag61
(g82
g63
NtRp762
(dp763
g66
(dp764
sg75
g749
sg68
(lp765
g61
(g62
g63
NtRp766
(dp767
g66
(dp768
g74
I4
ssg75
g762
sg68
(lp769
S'keep-alive'
p770
asbasbasbag61
(g77
g63
NtRp771
(dp772
g66
(dp773
sg75
g479
sg68
(lp774
g61
(g82
g63
NtRp775
(dp776
g66
(dp777
g86
g87
ssg75
g771
sg68
(lp778
S'http_content_length'
p779
asbag61
(g82
g63
NtRp780
(dp781
g66
(dp782
g93
g94
ssg75
g771
sg68
(lp783
S':'
asbag61
(g82
g63
NtRp784
(dp785
g66
(dp786
sg75
g771
sg68
(lp787
g61
(g62
g63
NtRp788
(dp789
g66
(dp790
g74
I4
ssg75
g784
sg68
(lp791
g595
asbasbasbag61
(g77
g63
NtRp792
(dp793
g66
(dp794
sg75
g479
sg68
(lp795
g61
(g82
g63
NtRp796
(dp797
g66
(dp798
g86
g87
ssg75
g792
sg68
(lp799
S'http_content_type'
p800
asbag61
(g82
g63
NtRp801
(dp802
g66
(dp803
g93
g94
ssg75
g792
sg68
(lp804
S':'
asbag61
(g82
g63
NtRp805
(dp806
g66
(dp807
sg75
g792
sg68
(lp808
g61
(g62
g63
NtRp809
(dp810
g66
(dp811
g74
I4
ssg75
g805
sg68
(lp812
g617
asbasbasbag61
(g77
g63
NtRp813
(dp814
g66
(dp815
sg75
g479
sg68
(lp816
g61
(g82
g63
NtRp817
(dp818
g66
(dp819
g86
g87
ssg75
g813
sg68
(lp820
S'http_cookie'
p821
asbag61
(g82
g63
NtRp822
(dp823
g66
(dp824
g93
g94
ssg75
g813
sg68
(lp825
S':'
asbag61
(g82
g63
NtRp826
(dp827
g66
(dp828
sg75
g813
sg68
(lp829
g61
(g62
g63
NtRp830
(dp831
g66
(dp832
g74
I4
ssg75
g826
sg68
(lp833
S'session_id_admin=127.0.0.1-11192b0e-b4bb-4838-b797-1c5df59efc3e'
p834
asbasbasbag61
(g77
g63
NtRp835
(dp836
g66
(dp837
sg75
g479
sg68
(lp838
g61
(g82
g63
NtRp839
(dp840
g66
(dp841
g86
g87
ssg75
g835
sg68
(lp842
S'http_host'
p843
asbag61
(g82
g63
NtRp844
(dp845
g66
(dp846
g93
g94
ssg75
g835
sg68
(lp847
S':'
asbag61
(g82
g63
NtRp848
(dp849
g66
(dp850
sg75
g835
sg68
(lp851
g61
(g62
g63
NtRp852
(dp853
g66
(dp854
g74
I4
ssg75
g848
sg68
(lp855
S'localhost:9090'
p856
asbasbasbag61
(g77
g63
NtRp857
(dp858
g66
(dp859
sg75
g479
sg68
(lp860
g61
(g82
g63
NtRp861
(dp862
g66
(dp863
g86
g87
ssg75
g857
sg68
(lp864
S'http_referer'
p865
asbag61
(g82
g63
NtRp866
(dp867
g66
(dp868
g93
g94
ssg75
g857
sg68
(lp869
S':'
asbag61
(g82
g63
NtRp870
(dp871
g66
(dp872
sg75
g857
sg68
(lp873
g61
(g62
g63
NtRp874
(dp875
g66
(dp876
g74
I4
ssg75
g870
sg68
(lp877
S'http://localhost:9090/admin/openshift/deploy'
p878
asbasbasbag61
(g77
g63
NtRp879
(dp880
g66
(dp881
sg75
g479
sg68
(lp882
g61
(g82
g63
NtRp883
(dp884
g66
(dp885
g86
g87
ssg75
g879
sg68
(lp886
S'http_user_agent'
p887
asbag61
(g82
g63
NtRp888
(dp889
g66
(dp890
g93
g94
ssg75
g879
sg68
(lp891
S':'
asbag61
(g82
g63
NtRp892
(dp893
g66
(dp894
sg75
g879
sg68
(lp895
g61
(g62
g63
NtRp896
(dp897
g66
(dp898
g74
I4
ssg75
g892
sg68
(lp899
S'Mozilla/5.0 (X11; Ubuntu; Linux i686; rv:20.0) Gecko/20100101 Firefox/20.0'
p900
asbasbasbag61
(g77
g63
NtRp901
(dp902
g66
(dp903
sg75
g479
sg68
(lp904
g61
(g82
g63
NtRp905
(dp906
g66
(dp907
g86
g87
ssg75
g901
sg68
(lp908
S'is_jython'
p909
asbag61
(g82
g63
NtRp910
(dp911
g66
(dp912
g93
g94
ssg75
g901
sg68
(lp913
S':'
asbag61
(g82
g63
NtRp914
(dp915
g66
(dp916
sg75
g901
sg68
(lp917
g61
(g62
g63
NtRp918
(dp919
g66
(dp920
g74
I4
ssg75
g914
sg68
(lp921
g104
asbasbasbag61
(g77
g63
NtRp922
(dp923
g66
(dp924
sg75
g479
sg68
(lp925
g61
(g82
g63
NtRp926
(dp927
g66
(dp928
g86
g87
ssg75
g922
sg68
(lp929
S'is_pypy'
p930
asbag61
(g82
g63
NtRp931
(dp932
g66
(dp933
g93
g94
ssg75
g922
sg68
(lp934
S':'
asbag61
(g82
g63
NtRp935
(dp936
g66
(dp937
sg75
g922
sg68
(lp938
g61
(g62
g63
NtRp939
(dp940
g66
(dp941
g74
I4
ssg75
g935
sg68
(lp942
g104
asbasbasbag61
(g77
g63
NtRp943
(dp944
g66
(dp945
sg75
g479
sg68
(lp946
g61
(g82
g63
NtRp947
(dp948
g66
(dp949
g86
g87
ssg75
g943
sg68
(lp950
S'local_hosts'
p951
asbag61
(g82
g63
NtRp952
(dp953
g66
(dp954
g93
g94
ssg75
g943
sg68
(lp955
S':'
asbag61
(g82
g63
NtRp956
(dp957
g66
(dp958
sg75
g943
sg68
(lp959
g61
(g62
g63
NtRp960
(dp961
g66
(dp962
g74
I4
ssg75
g956
sg68
(lp963
g61
(g70
g63
NtRp964
(dp965
g66
(dp966
g74
I3
ssg75
Nsg68
(lp967
g61
(g77
g63
NtRp968
(dp969
g66
(dp970
sg75
g964
sg68
(lp971
g61
(g82
g63
NtRp972
(dp973
g66
(dp974
sg75
g968
sg68
(lp975
g61
(g62
g63
NtRp976
(dp977
g66
(dp978
g74
I3
ssg75
g972
sg68
(lp979
S'127.0.1.1'
p980
asbasbasbag61
(g77
g63
NtRp981
(dp982
g66
(dp983
sg75
g964
sg68
(lp984
g61
(g82
g63
NtRp985
(dp986
g66
(dp987
sg75
g981
sg68
(lp988
g61
(g62
g63
NtRp989
(dp990
g66
(dp991
g74
I3
ssg75
g985
sg68
(lp992
S'::1'
p993
asbasbasbag61
(g77
g63
NtRp994
(dp995
g66
(dp996
sg75
g964
sg68
(lp997
g61
(g82
g63
NtRp998
(dp999
g66
(dp1000
sg75
g994
sg68
(lp1001
g61
(g62
g63
NtRp1002
(dp1003
g66
(dp1004
g74
I3
ssg75
g998
sg68
(lp1005
S'wasuaje-desktop'
p1006
asbasbasbag61
(g77
g63
NtRp1007
(dp1008
g66
(dp1009
sg75
g964
sg68
(lp1010
g61
(g82
g63
NtRp1011
(dp1012
g66
(dp1013
sg75
g1007
sg68
(lp1014
g61
(g62
g63
NtRp1015
(dp1016
g66
(dp1017
g74
I3
ssg75
g1011
sg68
(lp1018
S'::ffff:127.0.0.1'
p1019
asbasbasbag61
(g77
g63
NtRp1020
(dp1021
g66
(dp1022
sg75
g964
sg68
(lp1023
g61
(g82
g63
NtRp1024
(dp1025
g66
(dp1026
sg75
g1020
sg68
(lp1027
g61
(g62
g63
NtRp1028
(dp1029
g66
(dp1030
g74
I3
ssg75
g1024
sg68
(lp1031
S'127.0.0.1'
p1032
asbasbasbasbasbasbasbag61
(g77
g63
NtRp1033
(dp1034
g66
(dp1035
sg75
g479
sg68
(lp1036
g61
(g82
g63
NtRp1037
(dp1038
g66
(dp1039
g86
g87
ssg75
g1033
sg68
(lp1040
S'path_info'
p1041
asbag61
(g82
g63
NtRp1042
(dp1043
g66
(dp1044
g93
g94
ssg75
g1033
sg68
(lp1045
S':'
asbag61
(g82
g63
NtRp1046
(dp1047
g66
(dp1048
sg75
g1033
sg68
(lp1049
g61
(g62
g63
NtRp1050
(dp1051
g66
(dp1052
g74
I4
ssg75
g1046
sg68
(lp1053
S'/admin/openshift/deploy'
p1054
asbasbasbag61
(g77
g63
NtRp1055
(dp1056
g66
(dp1057
sg75
g479
sg68
(lp1058
g61
(g82
g63
NtRp1059
(dp1060
g66
(dp1061
g86
g87
ssg75
g1055
sg68
(lp1062
S'query_string'
p1063
asbag61
(g82
g63
NtRp1064
(dp1065
g66
(dp1066
g93
g94
ssg75
g1055
sg68
(lp1067
S':'
asbag61
(g82
g63
NtRp1068
(dp1069
g66
(dp1070
sg75
g1055
sg68
(lp1071
g61
(g62
g63
NtRp1072
(dp1073
g66
(dp1074
g74
I4
ssg75
g1068
sg68
(lp1075
S''
asbasbasbag61
(g77
g63
NtRp1076
(dp1077
g66
(dp1078
sg75
g479
sg68
(lp1079
g61
(g82
g63
NtRp1080
(dp1081
g66
(dp1082
g86
g87
ssg75
g1076
sg68
(lp1083
S'remote_addr'
p1084
asbag61
(g82
g63
NtRp1085
(dp1086
g66
(dp1087
g93
g94
ssg75
g1076
sg68
(lp1088
S':'
asbag61
(g82
g63
NtRp1089
(dp1090
g66
(dp1091
sg75
g1076
sg68
(lp1092
g61
(g62
g63
NtRp1093
(dp1094
g66
(dp1095
g74
I4
ssg75
g1089
sg68
(lp1096
g216
asbasbasbag61
(g77
g63
NtRp1097
(dp1098
g66
(dp1099
sg75
g479
sg68
(lp1100
g61
(g82
g63
NtRp1101
(dp1102
g66
(dp1103
g86
g87
ssg75
g1097
sg68
(lp1104
S'remote_port'
p1105
asbag61
(g82
g63
NtRp1106
(dp1107
g66
(dp1108
g93
g94
ssg75
g1097
sg68
(lp1109
S':'
asbag61
(g82
g63
NtRp1110
(dp1111
g66
(dp1112
sg75
g1097
sg68
(lp1113
g61
(g62
g63
NtRp1114
(dp1115
g66
(dp1116
g74
I4
ssg75
g1110
sg68
(lp1117
S'51055'
p1118
asbasbasbag61
(g77
g63
NtRp1119
(dp1120
g66
(dp1121
sg75
g479
sg68
(lp1122
g61
(g82
g63
NtRp1123
(dp1124
g66
(dp1125
g86
g87
ssg75
g1119
sg68
(lp1126
S'request_method'
p1127
asbag61
(g82
g63
NtRp1128
(dp1129
g66
(dp1130
g93
g94
ssg75
g1119
sg68
(lp1131
S':'
asbag61
(g82
g63
NtRp1132
(dp1133
g66
(dp1134
sg75
g1119
sg68
(lp1135
g61
(g62
g63
NtRp1136
(dp1137
g66
(dp1138
g74
I4
ssg75
g1132
sg68
(lp1139
S'POST'
p1140
asbasbasbag61
(g77
g63
NtRp1141
(dp1142
g66
(dp1143
sg75
g479
sg68
(lp1144
g61
(g82
g63
NtRp1145
(dp1146
g66
(dp1147
g86
g87
ssg75
g1141
sg68
(lp1148
S'request_uri'
p1149
asbag61
(g82
g63
NtRp1150
(dp1151
g66
(dp1152
g93
g94
ssg75
g1141
sg68
(lp1153
S':'
asbag61
(g82
g63
NtRp1154
(dp1155
g66
(dp1156
sg75
g1141
sg68
(lp1157
g61
(g62
g63
NtRp1158
(dp1159
g66
(dp1160
g74
I4
ssg75
g1154
sg68
(lp1161
g1054
asbasbasbag61
(g77
g63
NtRp1162
(dp1163
g66
(dp1164
sg75
g479
sg68
(lp1165
g61
(g82
g63
NtRp1166
(dp1167
g66
(dp1168
g86
g87
ssg75
g1162
sg68
(lp1169
S'script_name'
p1170
asbag61
(g82
g63
NtRp1171
(dp1172
g66
(dp1173
g93
g94
ssg75
g1162
sg68
(lp1174
S':'
asbag61
(g82
g63
NtRp1175
(dp1176
g66
(dp1177
sg75
g1162
sg68
(lp1178
g61
(g62
g63
NtRp1179
(dp1180
g66
(dp1181
g74
I4
ssg75
g1175
sg68
(lp1182
S''
asbasbasbag61
(g77
g63
NtRp1183
(dp1184
g66
(dp1185
sg75
g479
sg68
(lp1186
g61
(g82
g63
NtRp1187
(dp1188
g66
(dp1189
g86
g87
ssg75
g1183
sg68
(lp1190
S'server_name'
p1191
asbag61
(g82
g63
NtRp1192
(dp1193
g66
(dp1194
g93
g94
ssg75
g1183
sg68
(lp1195
S':'
asbag61
(g82
g63
NtRp1196
(dp1197
g66
(dp1198
sg75
g1183
sg68
(lp1199
g61
(g62
g63
NtRp1200
(dp1201
g66
(dp1202
g74
I4
ssg75
g1196
sg68
(lp1203
S'wasuaje-desktop'
p1204
asbasbasbag61
(g77
g63
NtRp1205
(dp1206
g66
(dp1207
sg75
g479
sg68
(lp1208
g61
(g82
g63
NtRp1209
(dp1210
g66
(dp1211
g86
g87
ssg75
g1205
sg68
(lp1212
S'server_port'
p1213
asbag61
(g82
g63
NtRp1214
(dp1215
g66
(dp1216
g93
g94
ssg75
g1205
sg68
(lp1217
S':'
asbag61
(g82
g63
NtRp1218
(dp1219
g66
(dp1220
sg75
g1205
sg68
(lp1221
g61
(g62
g63
NtRp1222
(dp1223
g66
(dp1224
g74
I4
ssg75
g1218
sg68
(lp1225
S'9090'
p1226
asbasbasbag61
(g77
g63
NtRp1227
(dp1228
g66
(dp1229
sg75
g479
sg68
(lp1230
g61
(g82
g63
NtRp1231
(dp1232
g66
(dp1233
g86
g87
ssg75
g1227
sg68
(lp1234
S'server_protocol'
p1235
asbag61
(g82
g63
NtRp1236
(dp1237
g66
(dp1238
g93
g94
ssg75
g1227
sg68
(lp1239
S':'
asbag61
(g82
g63
NtRp1240
(dp1241
g66
(dp1242
sg75
g1227
sg68
(lp1243
g61
(g62
g63
NtRp1244
(dp1245
g66
(dp1246
g74
I4
ssg75
g1240
sg68
(lp1247
S'HTTP/1.1'
p1248
asbasbasbag61
(g77
g63
NtRp1249
(dp1250
g66
(dp1251
sg75
g479
sg68
(lp1252
g61
(g82
g63
NtRp1253
(dp1254
g66
(dp1255
g86
g87
ssg75
g1249
sg68
(lp1256
S'server_software'
p1257
asbag61
(g82
g63
NtRp1258
(dp1259
g66
(dp1260
g93
g94
ssg75
g1249
sg68
(lp1261
S':'
asbag61
(g82
g63
NtRp1262
(dp1263
g66
(dp1264
sg75
g1249
sg68
(lp1265
g61
(g62
g63
NtRp1266
(dp1267
g66
(dp1268
g74
I4
ssg75
g1262
sg68
(lp1269
S'Rocket 1.2.6'
p1270
asbasbasbag61
(g77
g63
NtRp1271
(dp1272
g66
(dp1273
sg75
g479
sg68
(lp1274
g61
(g82
g63
NtRp1275
(dp1276
g66
(dp1277
g86
g87
ssg75
g1271
sg68
(lp1278
S'web2py_path'
p1279
asbag61
(g82
g63
NtRp1280
(dp1281
g66
(dp1282
g93
g94
ssg75
g1271
sg68
(lp1283
S':'
asbag61
(g82
g63
NtRp1284
(dp1285
g66
(dp1286
sg75
g1271
sg68
(lp1287
g61
(g62
g63
NtRp1288
(dp1289
g66
(dp1290
g74
I4
ssg75
g1284
sg68
(lp1291
g526
asbasbasbag61
(g77
g63
NtRp1292
(dp1293
g66
(dp1294
sg75
g479
sg68
(lp1295
g61
(g82
g63
NtRp1296
(dp1297
g66
(dp1298
g86
g87
ssg75
g1292
sg68
(lp1299
S'web2py_version'
p1300
asbag61
(g82
g63
NtRp1301
(dp1302
g66
(dp1303
g93
g94
ssg75
g1292
sg68
(lp1304
S':'
asbag61
(g82
g63
NtRp1305
(dp1306
g66
(dp1307
sg75
g1292
sg68
(lp1308
g61
(g62
g63
NtRp1309
(dp1310
g66
(dp1311
g74
I4
ssg75
g1305
sg68
(lp1312
g61
(g70
g63
NtRp1313
(dp1314
g66
(dp1315
g74
I3
ssg75
Nsg68
(lp1316
g61
(g77
g63
NtRp1317
(dp1318
g66
(dp1319
sg75
g1313
sg68
(lp1320
g61
(g82
g63
NtRp1321
(dp1322
g66
(dp1323
sg75
g1317
sg68
(lp1324
g61
(g62
g63
NtRp1325
(dp1326
g66
(dp1327
g74
I3
ssg75
g1321
sg68
(lp1328
S'2'
asbasbasbag61
(g77
g63
NtRp1329
(dp1330
g66
(dp1331
sg75
g1313
sg68
(lp1332
g61
(g82
g63
NtRp1333
(dp1334
g66
(dp1335
sg75
g1329
sg68
(lp1336
g61
(g62
g63
NtRp1337
(dp1338
g66
(dp1339
g74
I3
ssg75
g1333
sg68
(lp1340
S'3'
asbasbasbag61
(g77
g63
NtRp1341
(dp1342
g66
(dp1343
sg75
g1313
sg68
(lp1344
g61
(g82
g63
NtRp1345
(dp1346
g66
(dp1347
sg75
g1341
sg68
(lp1348
g61
(g62
g63
NtRp1349
(dp1350
g66
(dp1351
g74
I3
ssg75
g1345
sg68
(lp1352
S'2'
asbasbasbag61
(g77
g63
NtRp1353
(dp1354
g66
(dp1355
sg75
g1313
sg68
(lp1356
g61
(g82
g63
NtRp1357
(dp1358
g66
(dp1359
sg75
g1353
sg68
(lp1360
g61
(g62
g63
NtRp1361
(dp1362
g66
(dp1363
g74
I3
ssg75
g1357
sg68
(lp1364
S'datetime.datetime(2012, 12, 17, 15, 3, 30)'
p1365
asbasbasbag61
(g77
g63
NtRp1366
(dp1367
g66
(dp1368
sg75
g1313
sg68
(lp1369
g61
(g82
g63
NtRp1370
(dp1371
g66
(dp1372
sg75
g1366
sg68
(lp1373
g61
(g62
g63
NtRp1374
(dp1375
g66
(dp1376
g74
I3
ssg75
g1370
sg68
(lp1377
S'stable'
p1378
asbasbasbasbasbasbasbag61
(g77
g63
NtRp1379
(dp1380
g66
(dp1381
sg75
g479
sg68
(lp1382
g61
(g82
g63
NtRp1383
(dp1384
g66
(dp1385
g86
g87
ssg75
g1379
sg68
(lp1386
S'wsgi_errors'
p1387
asbag61
(g82
g63
NtRp1388
(dp1389
g66
(dp1390
g93
g94
ssg75
g1379
sg68
(lp1391
S':'
asbag61
(g82
g63
NtRp1392
(dp1393
g66
(dp1394
sg75
g1379
sg68
(lp1395
g61
(g62
g63
NtRp1396
(dp1397
g66
(dp1398
g74
I4
ssg75
g1392
sg68
(lp1399
S"<open file '<stderr>', mode 'w' at 0xb75130d0>"
p1400
asbasbasbag61
(g77
g63
NtRp1401
(dp1402
g66
(dp1403
sg75
g479
sg68
(lp1404
g61
(g82
g63
NtRp1405
(dp1406
g66
(dp1407
g86
g87
ssg75
g1401
sg68
(lp1408
S'wsgi_file_wrapper'
p1409
asbag61
(g82
g63
NtRp1410
(dp1411
g66
(dp1412
g93
g94
ssg75
g1401
sg68
(lp1413
S':'
asbag61
(g82
g63
NtRp1414
(dp1415
g66
(dp1416
sg75
g1401
sg68
(lp1417
g61
(g62
g63
NtRp1418
(dp1419
g66
(dp1420
g74
I4
ssg75
g1414
sg68
(lp1421
S'<class wsgiref.util.FileWrapper at 0xa8c99bc>'
p1422
asbasbasbag61
(g77
g63
NtRp1423
(dp1424
g66
(dp1425
sg75
g479
sg68
(lp1426
g61
(g82
g63
NtRp1427
(dp1428
g66
(dp1429
g86
g87
ssg75
g1423
sg68
(lp1430
S'wsgi_input'
p1431
asbag61
(g82
g63
NtRp1432
(dp1433
g66
(dp1434
g93
g94
ssg75
g1423
sg68
(lp1435
S':'
asbag61
(g82
g63
NtRp1436
(dp1437
g66
(dp1438
sg75
g1423
sg68
(lp1439
g61
(g62
g63
NtRp1440
(dp1441
g66
(dp1442
g74
I4
ssg75
g1436
sg68
(lp1443
S'<socket._fileobject object at 0xae8bfdec>'
p1444
asbasbasbag61
(g77
g63
NtRp1445
(dp1446
g66
(dp1447
sg75
g479
sg68
(lp1448
g61
(g82
g63
NtRp1449
(dp1450
g66
(dp1451
g86
g87
ssg75
g1445
sg68
(lp1452
S'wsgi_multiprocess'
p1453
asbag61
(g82
g63
NtRp1454
(dp1455
g66
(dp1456
g93
g94
ssg75
g1445
sg68
(lp1457
S':'
asbag61
(g82
g63
NtRp1458
(dp1459
g66
(dp1460
sg75
g1445
sg68
(lp1461
g61
(g62
g63
NtRp1462
(dp1463
g66
(dp1464
g74
I4
ssg75
g1458
sg68
(lp1465
g104
asbasbasbag61
(g77
g63
NtRp1466
(dp1467
g66
(dp1468
sg75
g479
sg68
(lp1469
g61
(g82
g63
NtRp1470
(dp1471
g66
(dp1472
g86
g87
ssg75
g1466
sg68
(lp1473
S'wsgi_multithread'
p1474
asbag61
(g82
g63
NtRp1475
(dp1476
g66
(dp1477
g93
g94
ssg75
g1466
sg68
(lp1478
S':'
asbag61
(g82
g63
NtRp1479
(dp1480
g66
(dp1481
sg75
g1466
sg68
(lp1482
g61
(g62
g63
NtRp1483
(dp1484
g66
(dp1485
g74
I4
ssg75
g1479
sg68
(lp1486
S'True'
p1487
asbasbasbag61
(g77
g63
NtRp1488
(dp1489
g66
(dp1490
sg75
g479
sg68
(lp1491
g61
(g82
g63
NtRp1492
(dp1493
g66
(dp1494
g86
g87
ssg75
g1488
sg68
(lp1495
S'wsgi_run_once'
p1496
asbag61
(g82
g63
NtRp1497
(dp1498
g66
(dp1499
g93
g94
ssg75
g1488
sg68
(lp1500
S':'
asbag61
(g82
g63
NtRp1501
(dp1502
g66
(dp1503
sg75
g1488
sg68
(lp1504
g61
(g62
g63
NtRp1505
(dp1506
g66
(dp1507
g74
I4
ssg75
g1501
sg68
(lp1508
g104
asbasbasbag61
(g77
g63
NtRp1509
(dp1510
g66
(dp1511
sg75
g479
sg68
(lp1512
g61
(g82
g63
NtRp1513
(dp1514
g66
(dp1515
g86
g87
ssg75
g1509
sg68
(lp1516
S'wsgi_url_scheme'
p1517
asbag61
(g82
g63
NtRp1518
(dp1519
g66
(dp1520
g93
g94
ssg75
g1509
sg68
(lp1521
S':'
asbag61
(g82
g63
NtRp1522
(dp1523
g66
(dp1524
sg75
g1509
sg68
(lp1525
g61
(g62
g63
NtRp1526
(dp1527
g66
(dp1528
g74
I4
ssg75
g1522
sg68
(lp1529
S'http'
p1530
asbasbasbag61
(g77
g63
NtRp1531
(dp1532
g66
(dp1533
sg75
g479
sg68
(lp1534
g61
(g82
g63
NtRp1535
(dp1536
g66
(dp1537
g86
g87
ssg75
g1531
sg68
(lp1538
S'wsgi_version'
p1539
asbag61
(g82
g63
NtRp1540
(dp1541
g66
(dp1542
g93
g94
ssg75
g1531
sg68
(lp1543
S':'
asbag61
(g82
g63
NtRp1544
(dp1545
g66
(dp1546
sg75
g1531
sg68
(lp1547
g61
(g62
g63
NtRp1548
(dp1549
g66
(dp1550
g74
I4
ssg75
g1544
sg68
(lp1551
g61
(g70
g63
NtRp1552
(dp1553
g66
(dp1554
g74
I3
ssg75
Nsg68
(lp1555
g61
(g77
g63
NtRp1556
(dp1557
g66
(dp1558
sg75
g1552
sg68
(lp1559
g61
(g82
g63
NtRp1560
(dp1561
g66
(dp1562
sg75
g1556
sg68
(lp1563
g61
(g62
g63
NtRp1564
(dp1565
g66
(dp1566
g74
I3
ssg75
g1560
sg68
(lp1567
S'1'
asbasbasbag61
(g77
g63
NtRp1568
(dp1569
g66
(dp1570
sg75
g1552
sg68
(lp1571
g61
(g82
g63
NtRp1572
(dp1573
g66
(dp1574
sg75
g1568
sg68
(lp1575
g61
(g62
g63
NtRp1576
(dp1577
g66
(dp1578
g74
I3
ssg75
g1572
sg68
(lp1579
S'0'
asbasbasbasbasbasbasbasbasbasbasbag61
(g77
g63
NtRp1580
(dp1581
g66
(dp1582
sg75
g71
sg68
(lp1583
g61
(g82
g63
NtRp1584
(dp1585
g66
(dp1586
g86
g87
ssg75
g1580
sg68
(lp1587
S'extension'
p1588
asbag61
(g82
g63
NtRp1589
(dp1590
g66
(dp1591
g93
g94
ssg75
g1580
sg68
(lp1592
S':'
asbag61
(g82
g63
NtRp1593
(dp1594
g66
(dp1595
sg75
g1580
sg68
(lp1596
g61
(g62
g63
NtRp1597
(dp1598
g66
(dp1599
g74
I5
ssg75
g1593
sg68
(lp1600
S'html'
p1601
asbasbasbag61
(g77
g63
NtRp1602
(dp1603
g66
(dp1604
sg75
g71
sg68
(lp1605
g61
(g82
g63
NtRp1606
(dp1607
g66
(dp1608
g86
g87
ssg75
g1602
sg68
(lp1609
S'folder'
p1610
asbag61
(g82
g63
NtRp1611
(dp1612
g66
(dp1613
g93
g94
ssg75
g1602
sg68
(lp1614
S':'
asbag61
(g82
g63
NtRp1615
(dp1616
g66
(dp1617
sg75
g1602
sg68
(lp1618
g61
(g62
g63
NtRp1619
(dp1620
g66
(dp1621
g74
I5
ssg75
g1615
sg68
(lp1622
S'/home/wasuaje/Documentos/desarrollo/web2py5/applications/admin/'
p1623
asbasbasbag61
(g77
g63
NtRp1624
(dp1625
g66
(dp1626
sg75
g71
sg68
(lp1627
g61
(g82
g63
NtRp1628
(dp1629
g66
(dp1630
g86
g87
ssg75
g1624
sg68
(lp1631
S'function'
p1632
asbag61
(g82
g63
NtRp1633
(dp1634
g66
(dp1635
g93
g94
ssg75
g1624
sg68
(lp1636
S':'
asbag61
(g82
g63
NtRp1637
(dp1638
g66
(dp1639
sg75
g1624
sg68
(lp1640
g61
(g62
g63
NtRp1641
(dp1642
g66
(dp1643
g74
I5
ssg75
g1637
sg68
(lp1644
S'deploy'
p1645
asbasbasbag61
(g77
g63
NtRp1646
(dp1647
g66
(dp1648
sg75
g71
sg68
(lp1649
g61
(g82
g63
NtRp1650
(dp1651
g66
(dp1652
g86
g87
ssg75
g1646
sg68
(lp1653
S'get_vars'
p1654
asbag61
(g82
g63
NtRp1655
(dp1656
g66
(dp1657
g93
g94
ssg75
g1646
sg68
(lp1658
S':'
asbag61
(g82
g63
NtRp1659
(dp1660
g66
(dp1661
sg75
g1646
sg68
(lp1662
g61
(g62
g63
NtRp1663
(dp1664
g66
(dp1665
g74
I5
ssg75
g1659
sg68
(lp1666
g61
(g70
g63
NtRp1667
(dp1668
g66
(dp1669
g74
I4
ssg75
Nsg68
(lp1670
sbasbasbasbag61
(g77
g63
NtRp1671
(dp1672
g66
(dp1673
sg75
g71
sg68
(lp1674
g61
(g82
g63
NtRp1675
(dp1676
g66
(dp1677
g86
g87
ssg75
g1671
sg68
(lp1678
S'global_settings'
p1679
asbag61
(g82
g63
NtRp1680
(dp1681
g66
(dp1682
g93
g94
ssg75
g1671
sg68
(lp1683
S':'
asbag61
(g82
g63
NtRp1684
(dp1685
g66
(dp1686
sg75
g1671
sg68
(lp1687
g61
(g62
g63
NtRp1688
(dp1689
g66
(dp1690
g74
I5
ssg75
g1684
sg68
(lp1691
g61
(g70
g63
NtRp1692
(dp1693
g66
(dp1694
g74
I4
ssg75
Nsg68
(lp1695
g61
(g77
g63
NtRp1696
(dp1697
g66
(dp1698
sg75
g1692
sg68
(lp1699
g61
(g82
g63
NtRp1700
(dp1701
g66
(dp1702
g86
g87
ssg75
g1696
sg68
(lp1703
g491
asbag61
(g82
g63
NtRp1704
(dp1705
g66
(dp1706
g93
g94
ssg75
g1696
sg68
(lp1707
S':'
asbag61
(g82
g63
NtRp1708
(dp1709
g66
(dp1710
sg75
g1696
sg68
(lp1711
g61
(g62
g63
NtRp1712
(dp1713
g66
(dp1714
g74
I4
ssg75
g1708
sg68
(lp1715
S"set(['/home/wasuaje/Documentos/desarrollo/web2py5/applications/admin/'])"
p1716
asbasbasbag61
(g77
g63
NtRp1717
(dp1718
g66
(dp1719
sg75
g1692
sg68
(lp1720
g61
(g82
g63
NtRp1721
(dp1722
g66
(dp1723
g86
g87
ssg75
g1717
sg68
(lp1724
g513
asbag61
(g82
g63
NtRp1725
(dp1726
g66
(dp1727
g93
g94
ssg75
g1717
sg68
(lp1728
S':'
asbag61
(g82
g63
NtRp1729
(dp1730
g66
(dp1731
sg75
g1717
sg68
(lp1732
g61
(g62
g63
NtRp1733
(dp1734
g66
(dp1735
g74
I4
ssg75
g1729
sg68
(lp1736
g526
asbasbasbag61
(g77
g63
NtRp1737
(dp1738
g66
(dp1739
sg75
g1692
sg68
(lp1740
g61
(g82
g63
NtRp1741
(dp1742
g66
(dp1743
g86
g87
ssg75
g1737
sg68
(lp1744
g535
asbag61
(g82
g63
NtRp1745
(dp1746
g66
(dp1747
g93
g94
ssg75
g1737
sg68
(lp1748
S':'
asbag61
(g82
g63
NtRp1749
(dp1750
g66
(dp1751
sg75
g1737
sg68
(lp1752
g61
(g62
g63
NtRp1753
(dp1754
g66
(dp1755
g74
I4
ssg75
g1749
sg68
(lp1756
g61
(g70
g63
NtRp1757
(dp1758
g66
(dp1759
g74
I3
ssg75
Nsg68
(lp1760
sbasbasbasbag61
(g77
g63
NtRp1761
(dp1762
g66
(dp1763
sg75
g1692
sg68
(lp1764
g61
(g82
g63
NtRp1765
(dp1766
g66
(dp1767
g86
g87
ssg75
g1761
sg68
(lp1768
g560
asbag61
(g82
g63
NtRp1769
(dp1770
g66
(dp1771
g93
g94
ssg75
g1761
sg68
(lp1772
S':'
asbag61
(g82
g63
NtRp1773
(dp1774
g66
(dp1775
sg75
g1761
sg68
(lp1776
g61
(g62
g63
NtRp1777
(dp1778
g66
(dp1779
g74
I4
ssg75
g1773
sg68
(lp1780
S"<Values at 0xa913dac: {'verbose': False, 'ip': '127.0.0.1', 'with_scheduler': False, 'ips': [], 'shutdown_timeout': 5, 'taskbar': False, 'port': 9090, 'maxthreads': None, 'softcron': False, 'server_name': 'wasuaje-desktop', 'bpython': False, 'nogui': False, 'pid_filename': 'httpserver.pid', 'extcron': False, 'runcron': False, 'run_system_tests': False, 'test': None, 'folder': '/home/wasuaje/Documentos/desarrollo/web2py5', 'config': '', 'import_models': False, 'winservice': '', 'shell': None, 'run': '', 'log_filename': 'httpserver.log', 'debuglevel': 30, 'args': [''], 'socket_timeout': 5, 'ssl_ca_certificate': None, 'scheduler': None, 'profiler_filename': None, 'ssl_private_key': '', 'scheduler_groups': None, 'password': 'w', 'request_queue_size': 5, 'ssl_certificate': '', 'cronjob': False, 'numthreads': None, 'quiet': False, 'interfaces': None, 'minthreads': None, 'timeout': 10, 'plain': False, 'nobanner': False}>"
p1781
asbasbasbag61
(g77
g63
NtRp1782
(dp1783
g66
(dp1784
sg75
g1692
sg68
(lp1785
g61
(g82
g63
NtRp1786
(dp1787
g66
(dp1788
g86
g87
ssg75
g1782
sg68
(lp1789
g626
asbag61
(g82
g63
NtRp1790
(dp1791
g66
(dp1792
g93
g94
ssg75
g1782
sg68
(lp1793
S':'
asbag61
(g82
g63
NtRp1794
(dp1795
g66
(dp1796
sg75
g1782
sg68
(lp1797
g61
(g62
g63
NtRp1798
(dp1799
g66
(dp1800
g74
I4
ssg75
g1794
sg68
(lp1801
S'set([])'
p1802
asbasbasbag61
(g77
g63
NtRp1803
(dp1804
g66
(dp1805
sg75
g1692
sg68
(lp1806
g61
(g82
g63
NtRp1807
(dp1808
g66
(dp1809
g86
g87
ssg75
g1803
sg68
(lp1810
g648
asbag61
(g82
g63
NtRp1811
(dp1812
g66
(dp1813
g93
g94
ssg75
g1803
sg68
(lp1814
S':'
asbag61
(g82
g63
NtRp1815
(dp1816
g66
(dp1817
sg75
g1803
sg68
(lp1818
g61
(g62
g63
NtRp1819
(dp1820
g66
(dp1821
g74
I4
ssg75
g1815
sg68
(lp1822
g104
asbasbasbag61
(g77
g63
NtRp1823
(dp1824
g66
(dp1825
sg75
g1692
sg68
(lp1826
g61
(g82
g63
NtRp1827
(dp1828
g66
(dp1829
g86
g87
ssg75
g1823
sg68
(lp1830
g669
asbag61
(g82
g63
NtRp1831
(dp1832
g66
(dp1833
g93
g94
ssg75
g1823
sg68
(lp1834
S':'
asbag61
(g82
g63
NtRp1835
(dp1836
g66
(dp1837
sg75
g1823
sg68
(lp1838
g61
(g62
g63
NtRp1839
(dp1840
g66
(dp1841
g74
I4
ssg75
g1835
sg68
(lp1842
g682
asbasbasbag61
(g77
g63
NtRp1843
(dp1844
g66
(dp1845
sg75
g1692
sg68
(lp1846
g61
(g82
g63
NtRp1847
(dp1848
g66
(dp1849
g86
g87
ssg75
g1843
sg68
(lp1850
g909
asbag61
(g82
g63
NtRp1851
(dp1852
g66
(dp1853
g93
g94
ssg75
g1843
sg68
(lp1854
S':'
asbag61
(g82
g63
NtRp1855
(dp1856
g66
(dp1857
sg75
g1843
sg68
(lp1858
g61
(g62
g63
NtRp1859
(dp1860
g66
(dp1861
g74
I4
ssg75
g1855
sg68
(lp1862
g104
asbasbasbag61
(g77
g63
NtRp1863
(dp1864
g66
(dp1865
sg75
g1692
sg68
(lp1866
g61
(g82
g63
NtRp1867
(dp1868
g66
(dp1869
g86
g87
ssg75
g1863
sg68
(lp1870
g930
asbag61
(g82
g63
NtRp1871
(dp1872
g66
(dp1873
g93
g94
ssg75
g1863
sg68
(lp1874
S':'
asbag61
(g82
g63
NtRp1875
(dp1876
g66
(dp1877
sg75
g1863
sg68
(lp1878
g61
(g62
g63
NtRp1879
(dp1880
g66
(dp1881
g74
I4
ssg75
g1875
sg68
(lp1882
g104
asbasbasbag61
(g77
g63
NtRp1883
(dp1884
g66
(dp1885
sg75
g1692
sg68
(lp1886
g61
(g82
g63
NtRp1887
(dp1888
g66
(dp1889
g86
g87
ssg75
g1883
sg68
(lp1890
g951
asbag61
(g82
g63
NtRp1891
(dp1892
g66
(dp1893
g93
g94
ssg75
g1883
sg68
(lp1894
S':'
asbag61
(g82
g63
NtRp1895
(dp1896
g66
(dp1897
sg75
g1883
sg68
(lp1898
g61
(g62
g63
NtRp1899
(dp1900
g66
(dp1901
g74
I4
ssg75
g1895
sg68
(lp1902
g61
(g70
g63
NtRp1903
(dp1904
g66
(dp1905
g74
I3
ssg75
Nsg68
(lp1906
g61
(g77
g63
NtRp1907
(dp1908
g66
(dp1909
sg75
g1903
sg68
(lp1910
g61
(g82
g63
NtRp1911
(dp1912
g66
(dp1913
sg75
g1907
sg68
(lp1914
g61
(g62
g63
NtRp1915
(dp1916
g66
(dp1917
g74
I3
ssg75
g1911
sg68
(lp1918
g980
asbasbasbag61
(g77
g63
NtRp1919
(dp1920
g66
(dp1921
sg75
g1903
sg68
(lp1922
g61
(g82
g63
NtRp1923
(dp1924
g66
(dp1925
sg75
g1919
sg68
(lp1926
g61
(g62
g63
NtRp1927
(dp1928
g66
(dp1929
g74
I3
ssg75
g1923
sg68
(lp1930
g993
asbasbasbag61
(g77
g63
NtRp1931
(dp1932
g66
(dp1933
sg75
g1903
sg68
(lp1934
g61
(g82
g63
NtRp1935
(dp1936
g66
(dp1937
sg75
g1931
sg68
(lp1938
g61
(g62
g63
NtRp1939
(dp1940
g66
(dp1941
g74
I3
ssg75
g1935
sg68
(lp1942
g1006
asbasbasbag61
(g77
g63
NtRp1943
(dp1944
g66
(dp1945
sg75
g1903
sg68
(lp1946
g61
(g82
g63
NtRp1947
(dp1948
g66
(dp1949
sg75
g1943
sg68
(lp1950
g61
(g62
g63
NtRp1951
(dp1952
g66
(dp1953
g74
I3
ssg75
g1947
sg68
(lp1954
g1019
asbasbasbag61
(g77
g63
NtRp1955
(dp1956
g66
(dp1957
sg75
g1903
sg68
(lp1958
g61
(g82
g63
NtRp1959
(dp1960
g66
(dp1961
sg75
g1955
sg68
(lp1962
g61
(g62
g63
NtRp1963
(dp1964
g66
(dp1965
g74
I3
ssg75
g1959
sg68
(lp1966
g1032
asbasbasbasbasbasbasbag61
(g77
g63
NtRp1967
(dp1968
g66
(dp1969
sg75
g1692
sg68
(lp1970
g61
(g82
g63
NtRp1971
(dp1972
g66
(dp1973
g86
g87
ssg75
g1967
sg68
(lp1974
g1300
asbag61
(g82
g63
NtRp1975
(dp1976
g66
(dp1977
g93
g94
ssg75
g1967
sg68
(lp1978
S':'
asbag61
(g82
g63
NtRp1979
(dp1980
g66
(dp1981
sg75
g1967
sg68
(lp1982
g61
(g62
g63
NtRp1983
(dp1984
g66
(dp1985
g74
I4
ssg75
g1979
sg68
(lp1986
g61
(g70
g63
NtRp1987
(dp1988
g66
(dp1989
g74
I3
ssg75
Nsg68
(lp1990
g61
(g77
g63
NtRp1991
(dp1992
g66
(dp1993
sg75
g1987
sg68
(lp1994
g61
(g82
g63
NtRp1995
(dp1996
g66
(dp1997
sg75
g1991
sg68
(lp1998
g61
(g62
g63
NtRp1999
(dp2000
g66
(dp2001
g74
I3
ssg75
g1995
sg68
(lp2002
S'2'
asbasbasbag61
(g77
g63
NtRp2003
(dp2004
g66
(dp2005
sg75
g1987
sg68
(lp2006
g61
(g82
g63
NtRp2007
(dp2008
g66
(dp2009
sg75
g2003
sg68
(lp2010
g61
(g62
g63
NtRp2011
(dp2012
g66
(dp2013
g74
I3
ssg75
g2007
sg68
(lp2014
S'3'
asbasbasbag61
(g77
g63
NtRp2015
(dp2016
g66
(dp2017
sg75
g1987
sg68
(lp2018
g61
(g82
g63
NtRp2019
(dp2020
g66
(dp2021
sg75
g2015
sg68
(lp2022
g61
(g62
g63
NtRp2023
(dp2024
g66
(dp2025
g74
I3
ssg75
g2019
sg68
(lp2026
S'2'
asbasbasbag61
(g77
g63
NtRp2027
(dp2028
g66
(dp2029
sg75
g1987
sg68
(lp2030
g61
(g82
g63
NtRp2031
(dp2032
g66
(dp2033
sg75
g2027
sg68
(lp2034
g61
(g62
g63
NtRp2035
(dp2036
g66
(dp2037
g74
I3
ssg75
g2031
sg68
(lp2038
S'datetime.datetime(2012, 12, 17, 15, 3, 30)'
p2039
asbasbasbag61
(g77
g63
NtRp2040
(dp2041
g66
(dp2042
sg75
g1987
sg68
(lp2043
g61
(g82
g63
NtRp2044
(dp2045
g66
(dp2046
sg75
g2040
sg68
(lp2047
g61
(g62
g63
NtRp2048
(dp2049
g66
(dp2050
g74
I3
ssg75
g2044
sg68
(lp2051
g1378
asbasbasbasbasbasbasbasbasbasbasbag61
(g77
g63
NtRp2052
(dp2053
g66
(dp2054
sg75
g71
sg68
(lp2055
g61
(g82
g63
NtRp2056
(dp2057
g66
(dp2058
g86
g87
ssg75
g2052
sg68
(lp2059
S'is_https'
p2060
asbag61
(g82
g63
NtRp2061
(dp2062
g66
(dp2063
g93
g94
ssg75
g2052
sg68
(lp2064
S':'
asbag61
(g82
g63
NtRp2065
(dp2066
g66
(dp2067
sg75
g2052
sg68
(lp2068
g61
(g62
g63
NtRp2069
(dp2070
g66
(dp2071
g74
I5
ssg75
g2065
sg68
(lp2072
g104
asbasbasbag61
(g77
g63
NtRp2073
(dp2074
g66
(dp2075
sg75
g71
sg68
(lp2076
g61
(g82
g63
NtRp2077
(dp2078
g66
(dp2079
g86
g87
ssg75
g2073
sg68
(lp2080
S'is_local'
p2081
asbag61
(g82
g63
NtRp2082
(dp2083
g66
(dp2084
g93
g94
ssg75
g2073
sg68
(lp2085
S':'
asbag61
(g82
g63
NtRp2086
(dp2087
g66
(dp2088
sg75
g2073
sg68
(lp2089
g61
(g62
g63
NtRp2090
(dp2091
g66
(dp2092
g74
I5
ssg75
g2086
sg68
(lp2093
g1487
asbasbasbag61
(g77
g63
NtRp2094
(dp2095
g66
(dp2096
sg75
g71
sg68
(lp2097
g61
(g82
g63
NtRp2098
(dp2099
g66
(dp2100
g86
g87
ssg75
g2094
sg68
(lp2101
S'is_restful'
p2102
asbag61
(g82
g63
NtRp2103
(dp2104
g66
(dp2105
g93
g94
ssg75
g2094
sg68
(lp2106
S':'
asbag61
(g82
g63
NtRp2107
(dp2108
g66
(dp2109
sg75
g2094
sg68
(lp2110
g61
(g62
g63
NtRp2111
(dp2112
g66
(dp2113
g74
I5
ssg75
g2107
sg68
(lp2114
g104
asbasbasbag61
(g77
g63
NtRp2115
(dp2116
g66
(dp2117
sg75
g71
sg68
(lp2118
g61
(g82
g63
NtRp2119
(dp2120
g66
(dp2121
g86
g87
ssg75
g2115
sg68
(lp2122
S'now'
p2123
asbag61
(g82
g63
NtRp2124
(dp2125
g66
(dp2126
g93
g94
ssg75
g2115
sg68
(lp2127
S':'
asbag61
(g82
g63
NtRp2128
(dp2129
g66
(dp2130
sg75
g2115
sg68
(lp2131
g61
(g62
g63
NtRp2132
(dp2133
g66
(dp2134
g74
I5
ssg75
g2128
sg68
(lp2135
S'datetime.datetime(2013, 4, 18, 14, 31, 56, 653897)'
p2136
asbasbasbag61
(g77
g63
NtRp2137
(dp2138
g66
(dp2139
sg75
g71
sg68
(lp2140
g61
(g82
g63
NtRp2141
(dp2142
g66
(dp2143
g86
g87
ssg75
g2137
sg68
(lp2144
S'post_vars'
p2145
asbag61
(g82
g63
NtRp2146
(dp2147
g66
(dp2148
g93
g94
ssg75
g2137
sg68
(lp2149
S':'
asbag61
(g82
g63
NtRp2150
(dp2151
g66
(dp2152
sg75
g2137
sg68
(lp2153
g61
(g62
g63
NtRp2154
(dp2155
g66
(dp2156
g74
I5
ssg75
g2150
sg68
(lp2157
g61
(g70
g63
NtRp2158
(dp2159
g66
(dp2160
g74
I4
ssg75
Nsg68
(lp2161
g61
(g77
g63
NtRp2162
(dp2163
g66
(dp2164
sg75
g2158
sg68
(lp2165
g61
(g82
g63
NtRp2166
(dp2167
g66
(dp2168
g86
g87
ssg75
g2162
sg68
(lp2169
S'applications'
p2170
asbag61
(g82
g63
NtRp2171
(dp2172
g66
(dp2173
g93
g94
ssg75
g2162
sg68
(lp2174
S':'
asbag61
(g82
g63
NtRp2175
(dp2176
g66
(dp2177
sg75
g2162
sg68
(lp2178
g61
(g62
g63
NtRp2179
(dp2180
g66
(dp2181
g74
I4
ssg75
g2175
sg68
(lp2182
S'cloudstats'
p2183
asbasbasbag61
(g77
g63
NtRp2184
(dp2185
g66
(dp2186
sg75
g2158
sg68
(lp2187
g61
(g82
g63
NtRp2188
(dp2189
g66
(dp2190
g86
g87
ssg75
g2184
sg68
(lp2191
S'osname'
p2192
asbag61
(g82
g63
NtRp2193
(dp2194
g66
(dp2195
g93
g94
ssg75
g2184
sg68
(lp2196
S':'
asbag61
(g82
g63
NtRp2197
(dp2198
g66
(dp2199
sg75
g2184
sg68
(lp2200
g61
(g62
g63
NtRp2201
(dp2202
g66
(dp2203
g74
I4
ssg75
g2197
sg68
(lp2204
S'web2py'
p2205
asbasbasbag61
(g77
g63
NtRp2206
(dp2207
g66
(dp2208
sg75
g2158
sg68
(lp2209
g61
(g82
g63
NtRp2210
(dp2211
g66
(dp2212
g86
g87
ssg75
g2206
sg68
(lp2213
S'osrepo'
p2214
asbag61
(g82
g63
NtRp2215
(dp2216
g66
(dp2217
g93
g94
ssg75
g2206
sg68
(lp2218
S':'
asbag61
(g82
g63
NtRp2219
(dp2220
g66
(dp2221
sg75
g2206
sg68
(lp2222
g61
(g62
g63
NtRp2223
(dp2224
g66
(dp2225
g74
I4
ssg75
g2219
sg68
(lp2226
S'/home/wasuaje/Documentos/desarrollo/web2py5'
p2227
asbasbasbasbasbasbasbag61
(g77
g63
NtRp2228
(dp2229
g66
(dp2230
sg75
g71
sg68
(lp2231
g61
(g82
g63
NtRp2232
(dp2233
g66
(dp2234
g86
g87
ssg75
g2228
sg68
(lp2235
S'raw_args'
p2236
asbag61
(g82
g63
NtRp2237
(dp2238
g66
(dp2239
g93
g94
ssg75
g2228
sg68
(lp2240
S':'
asbag61
(g82
g63
NtRp2241
(dp2242
g66
(dp2243
sg75
g2228
sg68
(lp2244
g61
(g62
g63
NtRp2245
(dp2246
g66
(dp2247
g74
I5
ssg75
g2241
sg68
(lp2248
S''
asbasbasbag61
(g77
g63
NtRp2249
(dp2250
g66
(dp2251
sg75
g71
sg68
(lp2252
g61
(g82
g63
NtRp2253
(dp2254
g66
(dp2255
g86
g87
ssg75
g2249
sg68
(lp2256
S'raw_extension'
p2257
asbag61
(g82
g63
NtRp2258
(dp2259
g66
(dp2260
g93
g94
ssg75
g2249
sg68
(lp2261
S':'
asbag61
(g82
g63
NtRp2262
(dp2263
g66
(dp2264
sg75
g2249
sg68
(lp2265
g61
(g62
g63
NtRp2266
(dp2267
g66
(dp2268
g74
I5
ssg75
g2262
sg68
(lp2269
S'None'
p2270
asbasbasbag61
(g77
g63
NtRp2271
(dp2272
g66
(dp2273
sg75
g71
sg68
(lp2274
g61
(g82
g63
NtRp2275
(dp2276
g66
(dp2277
g86
g87
ssg75
g2271
sg68
(lp2278
S'url'
p2279
asbag61
(g82
g63
NtRp2280
(dp2281
g66
(dp2282
g93
g94
ssg75
g2271
sg68
(lp2283
S':'
asbag61
(g82
g63
NtRp2284
(dp2285
g66
(dp2286
sg75
g2271
sg68
(lp2287
g61
(g62
g63
NtRp2288
(dp2289
g66
(dp2290
g74
I5
ssg75
g2284
sg68
(lp2291
g1054
asbasbasbag61
(g77
g63
NtRp2292
(dp2293
g66
(dp2294
sg75
g71
sg68
(lp2295
g61
(g82
g63
NtRp2296
(dp2297
g66
(dp2298
g86
g87
ssg75
g2292
sg68
(lp2299
S'utcnow'
p2300
asbag61
(g82
g63
NtRp2301
(dp2302
g66
(dp2303
g93
g94
ssg75
g2292
sg68
(lp2304
S':'
asbag61
(g82
g63
NtRp2305
(dp2306
g66
(dp2307
sg75
g2292
sg68
(lp2308
g61
(g62
g63
NtRp2309
(dp2310
g66
(dp2311
g74
I5
ssg75
g2305
sg68
(lp2312
S'datetime.datetime(2013, 4, 18, 19, 1, 56, 653928)'
p2313
asbasbasbag61
(g77
g63
NtRp2314
(dp2315
g66
(dp2316
sg75
g71
sg68
(lp2317
g61
(g82
g63
NtRp2318
(dp2319
g66
(dp2320
g86
g87
ssg75
g2314
sg68
(lp2321
S'uuid'
p2322
asbag61
(g82
g63
NtRp2323
(dp2324
g66
(dp2325
g93
g94
ssg75
g2314
sg68
(lp2326
S':'
asbag61
(g82
g63
NtRp2327
(dp2328
g66
(dp2329
sg75
g2314
sg68
(lp2330
g61
(g62
g63
NtRp2331
(dp2332
g66
(dp2333
g74
I5
ssg75
g2327
sg68
(lp2334
S'admin/127.0.0.1.2013-04-18.14-31-56.52fbeba4-1c14-406a-9f7c-e9cff48d96ae'
p2335
asbasbasbag61
(g77
g63
NtRp2336
(dp2337
g66
(dp2338
sg75
g71
sg68
(lp2339
g61
(g82
g63
NtRp2340
(dp2341
g66
(dp2342
g86
g87
ssg75
g2336
sg68
(lp2343
S'vars'
p2344
asbag61
(g82
g63
NtRp2345
(dp2346
g66
(dp2347
g93
g94
ssg75
g2336
sg68
(lp2348
S':'
asbag61
(g82
g63
NtRp2349
(dp2350
g66
(dp2351
sg75
g2336
sg68
(lp2352
g61
(g62
g63
NtRp2353
(dp2354
g66
(dp2355
g74
I5
ssg75
g2349
sg68
(lp2356
g61
(g70
g63
NtRp2357
(dp2358
g66
(dp2359
g74
I4
ssg75
Nsg68
(lp2360
g61
(g77
g63
NtRp2361
(dp2362
g66
(dp2363
sg75
g2357
sg68
(lp2364
g61
(g82
g63
NtRp2365
(dp2366
g66
(dp2367
g86
g87
ssg75
g2361
sg68
(lp2368
g2170
asbag61
(g82
g63
NtRp2369
(dp2370
g66
(dp2371
g93
g94
ssg75
g2361
sg68
(lp2372
S':'
asbag61
(g82
g63
NtRp2373
(dp2374
g66
(dp2375
sg75
g2361
sg68
(lp2376
g61
(g62
g63
NtRp2377
(dp2378
g66
(dp2379
g74
I4
ssg75
g2373
sg68
(lp2380
g2183
asbasbasbag61
(g77
g63
NtRp2381
(dp2382
g66
(dp2383
sg75
g2357
sg68
(lp2384
g61
(g82
g63
NtRp2385
(dp2386
g66
(dp2387
g86
g87
ssg75
g2381
sg68
(lp2388
g2192
asbag61
(g82
g63
NtRp2389
(dp2390
g66
(dp2391
g93
g94
ssg75
g2381
sg68
(lp2392
S':'
asbag61
(g82
g63
NtRp2393
(dp2394
g66
(dp2395
sg75
g2381
sg68
(lp2396
g61
(g62
g63
NtRp2397
(dp2398
g66
(dp2399
g74
I4
ssg75
g2393
sg68
(lp2400
g2205
asbasbasbag61
(g77
g63
NtRp2401
(dp2402
g66
(dp2403
sg75
g2357
sg68
(lp2404
g61
(g82
g63
NtRp2405
(dp2406
g66
(dp2407
g86
g87
ssg75
g2401
sg68
(lp2408
g2214
asbag61
(g82
g63
NtRp2409
(dp2410
g66
(dp2411
g93
g94
ssg75
g2401
sg68
(lp2412
S':'
asbag61
(g82
g63
NtRp2413
(dp2414
g66
(dp2415
sg75
g2401
sg68
(lp2416
g61
(g62
g63
NtRp2417
(dp2418
g66
(dp2419
g74
I4
ssg75
g2413
sg68
(lp2420
g2227
asbasbasbasbasbasbasbag61
(g77
g63
NtRp2421
(dp2422
g66
(dp2423
sg75
g71
sg68
(lp2424
g61
(g82
g63
NtRp2425
(dp2426
g66
(dp2427
g86
g87
ssg75
g2421
sg68
(lp2428
S'wsgi'
p2429
asbag61
(g82
g63
NtRp2430
(dp2431
g66
(dp2432
g93
g94
ssg75
g2421
sg68
(lp2433
S':'
asbag61
(g82
g63
NtRp2434
(dp2435
g66
(dp2436
sg75
g2421
sg68
(lp2437
g61
(g62
g63
NtRp2438
(dp2439
g66
(dp2440
g74
I5
ssg75
g2434
sg68
(lp2441
g61
(g70
g63
NtRp2442
(dp2443
g66
(dp2444
g74
I4
ssg75
Nsg68
(lp2445
g61
(g77
g63
NtRp2446
(dp2447
g66
(dp2448
sg75
g2442
sg68
(lp2449
g61
(g82
g63
NtRp2450
(dp2451
g66
(dp2452
g86
g87
ssg75
g2446
sg68
(lp2453
S'environ'
p2454
asbag61
(g82
g63
NtRp2455
(dp2456
g66
(dp2457
g93
g94
ssg75
g2446
sg68
(lp2458
S':'
asbag61
(g82
g63
NtRp2459
(dp2460
g66
(dp2461
sg75
g2446
sg68
(lp2462
g61
(g62
g63
NtRp2463
(dp2464
g66
(dp2465
g74
I4
ssg75
g2459
sg68
(lp2466
g61
(g70
g63
NtRp2467
(dp2468
g66
(dp2469
g74
I3
ssg75
Nsg68
(lp2470
g61
(g77
g63
NtRp2471
(dp2472
g66
(dp2473
sg75
g2467
sg68
(lp2474
g61
(g82
g63
NtRp2475
(dp2476
g66
(dp2477
g86
g87
ssg75
g2471
sg68
(lp2478
S'CONTENT_LENGTH'
p2479
asbag61
(g82
g63
NtRp2480
(dp2481
g66
(dp2482
g93
g94
ssg75
g2471
sg68
(lp2483
S':'
asbag61
(g82
g63
NtRp2484
(dp2485
g66
(dp2486
sg75
g2471
sg68
(lp2487
g61
(g62
g63
NtRp2488
(dp2489
g66
(dp2490
g74
I3
ssg75
g2484
sg68
(lp2491
g595
asbasbasbag61
(g77
g63
NtRp2492
(dp2493
g66
(dp2494
sg75
g2467
sg68
(lp2495
g61
(g82
g63
NtRp2496
(dp2497
g66
(dp2498
g86
g87
ssg75
g2492
sg68
(lp2499
S'CONTENT_TYPE'
p2500
asbag61
(g82
g63
NtRp2501
(dp2502
g66
(dp2503
g93
g94
ssg75
g2492
sg68
(lp2504
S':'
asbag61
(g82
g63
NtRp2505
(dp2506
g66
(dp2507
sg75
g2492
sg68
(lp2508
g61
(g62
g63
NtRp2509
(dp2510
g66
(dp2511
g74
I3
ssg75
g2505
sg68
(lp2512
g617
asbasbasbag61
(g77
g63
NtRp2513
(dp2514
g66
(dp2515
sg75
g2467
sg68
(lp2516
g61
(g82
g63
NtRp2517
(dp2518
g66
(dp2519
g86
g87
ssg75
g2513
sg68
(lp2520
S'HTTP_ACCEPT'
p2521
asbag61
(g82
g63
NtRp2522
(dp2523
g66
(dp2524
g93
g94
ssg75
g2513
sg68
(lp2525
S':'
asbag61
(g82
g63
NtRp2526
(dp2527
g66
(dp2528
sg75
g2513
sg68
(lp2529
g61
(g62
g63
NtRp2530
(dp2531
g66
(dp2532
g74
I3
ssg75
g2526
sg68
(lp2533
g704
asbasbasbag61
(g77
g63
NtRp2534
(dp2535
g66
(dp2536
sg75
g2467
sg68
(lp2537
g61
(g82
g63
NtRp2538
(dp2539
g66
(dp2540
g86
g87
ssg75
g2534
sg68
(lp2541
S'HTTP_ACCEPT_ENCODING'
p2542
asbag61
(g82
g63
NtRp2543
(dp2544
g66
(dp2545
g93
g94
ssg75
g2534
sg68
(lp2546
S':'
asbag61
(g82
g63
NtRp2547
(dp2548
g66
(dp2549
sg75
g2534
sg68
(lp2550
g61
(g62
g63
NtRp2551
(dp2552
g66
(dp2553
g74
I3
ssg75
g2547
sg68
(lp2554
g726
asbasbasbag61
(g77
g63
NtRp2555
(dp2556
g66
(dp2557
sg75
g2467
sg68
(lp2558
g61
(g82
g63
NtRp2559
(dp2560
g66
(dp2561
g86
g87
ssg75
g2555
sg68
(lp2562
S'HTTP_ACCEPT_LANGUAGE'
p2563
asbag61
(g82
g63
NtRp2564
(dp2565
g66
(dp2566
g93
g94
ssg75
g2555
sg68
(lp2567
S':'
asbag61
(g82
g63
NtRp2568
(dp2569
g66
(dp2570
sg75
g2555
sg68
(lp2571
g61
(g62
g63
NtRp2572
(dp2573
g66
(dp2574
g74
I3
ssg75
g2568
sg68
(lp2575
g748
asbasbasbag61
(g77
g63
NtRp2576
(dp2577
g66
(dp2578
sg75
g2467
sg68
(lp2579
g61
(g82
g63
NtRp2580
(dp2581
g66
(dp2582
g86
g87
ssg75
g2576
sg68
(lp2583
S'HTTP_CONNECTION'
p2584
asbag61
(g82
g63
NtRp2585
(dp2586
g66
(dp2587
g93
g94
ssg75
g2576
sg68
(lp2588
S':'
asbag61
(g82
g63
NtRp2589
(dp2590
g66
(dp2591
sg75
g2576
sg68
(lp2592
g61
(g62
g63
NtRp2593
(dp2594
g66
(dp2595
g74
I3
ssg75
g2589
sg68
(lp2596
g770
asbasbasbag61
(g77
g63
NtRp2597
(dp2598
g66
(dp2599
sg75
g2467
sg68
(lp2600
g61
(g82
g63
NtRp2601
(dp2602
g66
(dp2603
g86
g87
ssg75
g2597
sg68
(lp2604
S'HTTP_CONTENT_LENGTH'
p2605
asbag61
(g82
g63
NtRp2606
(dp2607
g66
(dp2608
g93
g94
ssg75
g2597
sg68
(lp2609
S':'
asbag61
(g82
g63
NtRp2610
(dp2611
g66
(dp2612
sg75
g2597
sg68
(lp2613
g61
(g62
g63
NtRp2614
(dp2615
g66
(dp2616
g74
I3
ssg75
g2610
sg68
(lp2617
g595
asbasbasbag61
(g77
g63
NtRp2618
(dp2619
g66
(dp2620
sg75
g2467
sg68
(lp2621
g61
(g82
g63
NtRp2622
(dp2623
g66
(dp2624
g86
g87
ssg75
g2618
sg68
(lp2625
S'HTTP_CONTENT_TYPE'
p2626
asbag61
(g82
g63
NtRp2627
(dp2628
g66
(dp2629
g93
g94
ssg75
g2618
sg68
(lp2630
S':'
asbag61
(g82
g63
NtRp2631
(dp2632
g66
(dp2633
sg75
g2618
sg68
(lp2634
g61
(g62
g63
NtRp2635
(dp2636
g66
(dp2637
g74
I3
ssg75
g2631
sg68
(lp2638
g617
asbasbasbag61
(g77
g63
NtRp2639
(dp2640
g66
(dp2641
sg75
g2467
sg68
(lp2642
g61
(g82
g63
NtRp2643
(dp2644
g66
(dp2645
g86
g87
ssg75
g2639
sg68
(lp2646
S'HTTP_COOKIE'
p2647
asbag61
(g82
g63
NtRp2648
(dp2649
g66
(dp2650
g93
g94
ssg75
g2639
sg68
(lp2651
S':'
asbag61
(g82
g63
NtRp2652
(dp2653
g66
(dp2654
sg75
g2639
sg68
(lp2655
g61
(g62
g63
NtRp2656
(dp2657
g66
(dp2658
g74
I3
ssg75
g2652
sg68
(lp2659
g834
asbasbasbag61
(g77
g63
NtRp2660
(dp2661
g66
(dp2662
sg75
g2467
sg68
(lp2663
g61
(g82
g63
NtRp2664
(dp2665
g66
(dp2666
g86
g87
ssg75
g2660
sg68
(lp2667
S'HTTP_HOST'
p2668
asbag61
(g82
g63
NtRp2669
(dp2670
g66
(dp2671
g93
g94
ssg75
g2660
sg68
(lp2672
S':'
asbag61
(g82
g63
NtRp2673
(dp2674
g66
(dp2675
sg75
g2660
sg68
(lp2676
g61
(g62
g63
NtRp2677
(dp2678
g66
(dp2679
g74
I3
ssg75
g2673
sg68
(lp2680
g856
asbasbasbag61
(g77
g63
NtRp2681
(dp2682
g66
(dp2683
sg75
g2467
sg68
(lp2684
g61
(g82
g63
NtRp2685
(dp2686
g66
(dp2687
g86
g87
ssg75
g2681
sg68
(lp2688
S'HTTP_REFERER'
p2689
asbag61
(g82
g63
NtRp2690
(dp2691
g66
(dp2692
g93
g94
ssg75
g2681
sg68
(lp2693
S':'
asbag61
(g82
g63
NtRp2694
(dp2695
g66
(dp2696
sg75
g2681
sg68
(lp2697
g61
(g62
g63
NtRp2698
(dp2699
g66
(dp2700
g74
I3
ssg75
g2694
sg68
(lp2701
g878
asbasbasbag61
(g77
g63
NtRp2702
(dp2703
g66
(dp2704
sg75
g2467
sg68
(lp2705
g61
(g82
g63
NtRp2706
(dp2707
g66
(dp2708
g86
g87
ssg75
g2702
sg68
(lp2709
S'HTTP_USER_AGENT'
p2710
asbag61
(g82
g63
NtRp2711
(dp2712
g66
(dp2713
g93
g94
ssg75
g2702
sg68
(lp2714
S':'
asbag61
(g82
g63
NtRp2715
(dp2716
g66
(dp2717
sg75
g2702
sg68
(lp2718
g61
(g62
g63
NtRp2719
(dp2720
g66
(dp2721
g74
I3
ssg75
g2715
sg68
(lp2722
g900
asbasbasbag61
(g77
g63
NtRp2723
(dp2724
g66
(dp2725
sg75
g2467
sg68
(lp2726
g61
(g82
g63
NtRp2727
(dp2728
g66
(dp2729
g86
g87
ssg75
g2723
sg68
(lp2730
S'PATH_INFO'
p2731
asbag61
(g82
g63
NtRp2732
(dp2733
g66
(dp2734
g93
g94
ssg75
g2723
sg68
(lp2735
S':'
asbag61
(g82
g63
NtRp2736
(dp2737
g66
(dp2738
sg75
g2723
sg68
(lp2739
g61
(g62
g63
NtRp2740
(dp2741
g66
(dp2742
g74
I3
ssg75
g2736
sg68
(lp2743
g1054
asbasbasbag61
(g77
g63
NtRp2744
(dp2745
g66
(dp2746
sg75
g2467
sg68
(lp2747
g61
(g82
g63
NtRp2748
(dp2749
g66
(dp2750
g86
g87
ssg75
g2744
sg68
(lp2751
S'QUERY_STRING'
p2752
asbag61
(g82
g63
NtRp2753
(dp2754
g66
(dp2755
g93
g94
ssg75
g2744
sg68
(lp2756
S':'
asbag61
(g82
g63
NtRp2757
(dp2758
g66
(dp2759
sg75
g2744
sg68
(lp2760
g61
(g62
g63
NtRp2761
(dp2762
g66
(dp2763
g74
I3
ssg75
g2757
sg68
(lp2764
S''
asbasbasbag61
(g77
g63
NtRp2765
(dp2766
g66
(dp2767
sg75
g2467
sg68
(lp2768
g61
(g82
g63
NtRp2769
(dp2770
g66
(dp2771
g86
g87
ssg75
g2765
sg68
(lp2772
S'REMOTE_ADDR'
p2773
asbag61
(g82
g63
NtRp2774
(dp2775
g66
(dp2776
g93
g94
ssg75
g2765
sg68
(lp2777
S':'
asbag61
(g82
g63
NtRp2778
(dp2779
g66
(dp2780
sg75
g2765
sg68
(lp2781
g61
(g62
g63
NtRp2782
(dp2783
g66
(dp2784
g74
I3
ssg75
g2778
sg68
(lp2785
g216
asbasbasbag61
(g77
g63
NtRp2786
(dp2787
g66
(dp2788
sg75
g2467
sg68
(lp2789
g61
(g82
g63
NtRp2790
(dp2791
g66
(dp2792
g86
g87
ssg75
g2786
sg68
(lp2793
S'REMOTE_PORT'
p2794
asbag61
(g82
g63
NtRp2795
(dp2796
g66
(dp2797
g93
g94
ssg75
g2786
sg68
(lp2798
S':'
asbag61
(g82
g63
NtRp2799
(dp2800
g66
(dp2801
sg75
g2786
sg68
(lp2802
g61
(g62
g63
NtRp2803
(dp2804
g66
(dp2805
g74
I3
ssg75
g2799
sg68
(lp2806
g1118
asbasbasbag61
(g77
g63
NtRp2807
(dp2808
g66
(dp2809
sg75
g2467
sg68
(lp2810
g61
(g82
g63
NtRp2811
(dp2812
g66
(dp2813
g86
g87
ssg75
g2807
sg68
(lp2814
S'REQUEST_METHOD'
p2815
asbag61
(g82
g63
NtRp2816
(dp2817
g66
(dp2818
g93
g94
ssg75
g2807
sg68
(lp2819
S':'
asbag61
(g82
g63
NtRp2820
(dp2821
g66
(dp2822
sg75
g2807
sg68
(lp2823
g61
(g62
g63
NtRp2824
(dp2825
g66
(dp2826
g74
I3
ssg75
g2820
sg68
(lp2827
g1140
asbasbasbag61
(g77
g63
NtRp2828
(dp2829
g66
(dp2830
sg75
g2467
sg68
(lp2831
g61
(g82
g63
NtRp2832
(dp2833
g66
(dp2834
g86
g87
ssg75
g2828
sg68
(lp2835
S'REQUEST_URI'
p2836
asbag61
(g82
g63
NtRp2837
(dp2838
g66
(dp2839
g93
g94
ssg75
g2828
sg68
(lp2840
S':'
asbag61
(g82
g63
NtRp2841
(dp2842
g66
(dp2843
sg75
g2828
sg68
(lp2844
g61
(g62
g63
NtRp2845
(dp2846
g66
(dp2847
g74
I3
ssg75
g2841
sg68
(lp2848
g1054
asbasbasbag61
(g77
g63
NtRp2849
(dp2850
g66
(dp2851
sg75
g2467
sg68
(lp2852
g61
(g82
g63
NtRp2853
(dp2854
g66
(dp2855
g86
g87
ssg75
g2849
sg68
(lp2856
S'SCRIPT_NAME'
p2857
asbag61
(g82
g63
NtRp2858
(dp2859
g66
(dp2860
g93
g94
ssg75
g2849
sg68
(lp2861
S':'
asbag61
(g82
g63
NtRp2862
(dp2863
g66
(dp2864
sg75
g2849
sg68
(lp2865
g61
(g62
g63
NtRp2866
(dp2867
g66
(dp2868
g74
I3
ssg75
g2862
sg68
(lp2869
S''
asbasbasbag61
(g77
g63
NtRp2870
(dp2871
g66
(dp2872
sg75
g2467
sg68
(lp2873
g61
(g82
g63
NtRp2874
(dp2875
g66
(dp2876
g86
g87
ssg75
g2870
sg68
(lp2877
S'SERVER_NAME'
p2878
asbag61
(g82
g63
NtRp2879
(dp2880
g66
(dp2881
g93
g94
ssg75
g2870
sg68
(lp2882
S':'
asbag61
(g82
g63
NtRp2883
(dp2884
g66
(dp2885
sg75
g2870
sg68
(lp2886
g61
(g62
g63
NtRp2887
(dp2888
g66
(dp2889
g74
I3
ssg75
g2883
sg68
(lp2890
g1204
asbasbasbag61
(g77
g63
NtRp2891
(dp2892
g66
(dp2893
sg75
g2467
sg68
(lp2894
g61
(g82
g63
NtRp2895
(dp2896
g66
(dp2897
g86
g87
ssg75
g2891
sg68
(lp2898
S'SERVER_PORT'
p2899
asbag61
(g82
g63
NtRp2900
(dp2901
g66
(dp2902
g93
g94
ssg75
g2891
sg68
(lp2903
S':'
asbag61
(g82
g63
NtRp2904
(dp2905
g66
(dp2906
sg75
g2891
sg68
(lp2907
g61
(g62
g63
NtRp2908
(dp2909
g66
(dp2910
g74
I3
ssg75
g2904
sg68
(lp2911
g1226
asbasbasbag61
(g77
g63
NtRp2912
(dp2913
g66
(dp2914
sg75
g2467
sg68
(lp2915
g61
(g82
g63
NtRp2916
(dp2917
g66
(dp2918
g86
g87
ssg75
g2912
sg68
(lp2919
S'SERVER_PROTOCOL'
p2920
asbag61
(g82
g63
NtRp2921
(dp2922
g66
(dp2923
g93
g94
ssg75
g2912
sg68
(lp2924
S':'
asbag61
(g82
g63
NtRp2925
(dp2926
g66
(dp2927
sg75
g2912
sg68
(lp2928
g61
(g62
g63
NtRp2929
(dp2930
g66
(dp2931
g74
I3
ssg75
g2925
sg68
(lp2932
g1248
asbasbasbag61
(g77
g63
NtRp2933
(dp2934
g66
(dp2935
sg75
g2467
sg68
(lp2936
g61
(g82
g63
NtRp2937
(dp2938
g66
(dp2939
g86
g87
ssg75
g2933
sg68
(lp2940
S'SERVER_SOFTWARE'
p2941
asbag61
(g82
g63
NtRp2942
(dp2943
g66
(dp2944
g93
g94
ssg75
g2933
sg68
(lp2945
S':'
asbag61
(g82
g63
NtRp2946
(dp2947
g66
(dp2948
sg75
g2933
sg68
(lp2949
g61
(g62
g63
NtRp2950
(dp2951
g66
(dp2952
g74
I3
ssg75
g2946
sg68
(lp2953
g1270
asbasbasbag61
(g77
g63
NtRp2954
(dp2955
g66
(dp2956
sg75
g2467
sg68
(lp2957
g61
(g82
g63
NtRp2958
(dp2959
g66
(dp2960
g86
g87
ssg75
g2954
sg68
(lp2961
S'wsgi.errors'
p2962
asbag61
(g82
g63
NtRp2963
(dp2964
g66
(dp2965
g93
g94
ssg75
g2954
sg68
(lp2966
S':'
asbag61
(g82
g63
NtRp2967
(dp2968
g66
(dp2969
sg75
g2954
sg68
(lp2970
g61
(g62
g63
NtRp2971
(dp2972
g66
(dp2973
g74
I3
ssg75
g2967
sg68
(lp2974
S"<open file '<stderr>', mode 'w' at 0xb75130d0>"
p2975
asbasbasbag61
(g77
g63
NtRp2976
(dp2977
g66
(dp2978
sg75
g2467
sg68
(lp2979
g61
(g82
g63
NtRp2980
(dp2981
g66
(dp2982
g86
g87
ssg75
g2976
sg68
(lp2983
S'wsgi.file_wrapper'
p2984
asbag61
(g82
g63
NtRp2985
(dp2986
g66
(dp2987
g93
g94
ssg75
g2976
sg68
(lp2988
S':'
asbag61
(g82
g63
NtRp2989
(dp2990
g66
(dp2991
sg75
g2976
sg68
(lp2992
g61
(g62
g63
NtRp2993
(dp2994
g66
(dp2995
g74
I3
ssg75
g2989
sg68
(lp2996
S'<class wsgiref.util.FileWrapper at 0xa8c99bc>'
p2997
asbasbasbag61
(g77
g63
NtRp2998
(dp2999
g66
(dp3000
sg75
g2467
sg68
(lp3001
g61
(g82
g63
NtRp3002
(dp3003
g66
(dp3004
g86
g87
ssg75
g2998
sg68
(lp3005
S'wsgi.input'
p3006
asbag61
(g82
g63
NtRp3007
(dp3008
g66
(dp3009
g93
g94
ssg75
g2998
sg68
(lp3010
S':'
asbag61
(g82
g63
NtRp3011
(dp3012
g66
(dp3013
sg75
g2998
sg68
(lp3014
g61
(g62
g63
NtRp3015
(dp3016
g66
(dp3017
g74
I3
ssg75
g3011
sg68
(lp3018
S"<open file '<fdopen>', mode 'w+b' at 0xaa17cb78>"
p3019
asbasbasbag61
(g77
g63
NtRp3020
(dp3021
g66
(dp3022
sg75
g2467
sg68
(lp3023
g61
(g82
g63
NtRp3024
(dp3025
g66
(dp3026
g86
g87
ssg75
g3020
sg68
(lp3027
S'wsgi.multiprocess'
p3028
asbag61
(g82
g63
NtRp3029
(dp3030
g66
(dp3031
g93
g94
ssg75
g3020
sg68
(lp3032
S':'
asbag61
(g82
g63
NtRp3033
(dp3034
g66
(dp3035
sg75
g3020
sg68
(lp3036
g61
(g62
g63
NtRp3037
(dp3038
g66
(dp3039
g74
I3
ssg75
g3033
sg68
(lp3040
g104
asbasbasbag61
(g77
g63
NtRp3041
(dp3042
g66
(dp3043
sg75
g2467
sg68
(lp3044
g61
(g82
g63
NtRp3045
(dp3046
g66
(dp3047
g86
g87
ssg75
g3041
sg68
(lp3048
S'wsgi.multithread'
p3049
asbag61
(g82
g63
NtRp3050
(dp3051
g66
(dp3052
g93
g94
ssg75
g3041
sg68
(lp3053
S':'
asbag61
(g82
g63
NtRp3054
(dp3055
g66
(dp3056
sg75
g3041
sg68
(lp3057
g61
(g62
g63
NtRp3058
(dp3059
g66
(dp3060
g74
I3
ssg75
g3054
sg68
(lp3061
g1487
asbasbasbag61
(g77
g63
NtRp3062
(dp3063
g66
(dp3064
sg75
g2467
sg68
(lp3065
g61
(g82
g63
NtRp3066
(dp3067
g66
(dp3068
g86
g87
ssg75
g3062
sg68
(lp3069
S'wsgi.run_once'
p3070
asbag61
(g82
g63
NtRp3071
(dp3072
g66
(dp3073
g93
g94
ssg75
g3062
sg68
(lp3074
S':'
asbag61
(g82
g63
NtRp3075
(dp3076
g66
(dp3077
sg75
g3062
sg68
(lp3078
g61
(g62
g63
NtRp3079
(dp3080
g66
(dp3081
g74
I3
ssg75
g3075
sg68
(lp3082
g104
asbasbasbag61
(g77
g63
NtRp3083
(dp3084
g66
(dp3085
sg75
g2467
sg68
(lp3086
g61
(g82
g63
NtRp3087
(dp3088
g66
(dp3089
g86
g87
ssg75
g3083
sg68
(lp3090
S'wsgi.url_scheme'
p3091
asbag61
(g82
g63
NtRp3092
(dp3093
g66
(dp3094
g93
g94
ssg75
g3083
sg68
(lp3095
S':'
asbag61
(g82
g63
NtRp3096
(dp3097
g66
(dp3098
sg75
g3083
sg68
(lp3099
g61
(g62
g63
NtRp3100
(dp3101
g66
(dp3102
g74
I3
ssg75
g3096
sg68
(lp3103
g1530
asbasbasbag61
(g77
g63
NtRp3104
(dp3105
g66
(dp3106
sg75
g2467
sg68
(lp3107
g61
(g82
g63
NtRp3108
(dp3109
g66
(dp3110
g86
g87
ssg75
g3104
sg68
(lp3111
S'wsgi.version'
p3112
asbag61
(g82
g63
NtRp3113
(dp3114
g66
(dp3115
g93
g94
ssg75
g3104
sg68
(lp3116
S':'
asbag61
(g82
g63
NtRp3117
(dp3118
g66
(dp3119
sg75
g3104
sg68
(lp3120
g61
(g62
g63
NtRp3121
(dp3122
g66
(dp3123
g74
I3
ssg75
g3117
sg68
(lp3124
S'1'
asbasbasbasbasbasbasbasbasbasbasbasbasbsS'frames'
p3125
(lp3126
(dp3127
S'file'
p3128
S'/home/wasuaje/Documentos/desarrollo/web2py5/gluon/restricted.py'
p3129
sS'dump'
p3130
(dp3131
S'environment'
p3132
S"{'A': <class 'gluon.html.A'>, 'ALLOW_TOGGLE': 'true', 'A_button': <function A_button>, 'Actor': <class 'git.util.Actor'>, 'AmbiguousObjectName': <class 'gitdb.exc.AmbiguousObjectName'>, 'B': <class 'gluon.html.B'>, 'BEAUTIFY': <class 'gluon.html.BEAUTIFY'>, 'BODY': <class 'gluon.html.BODY'>, 'BR': <class 'gluon.html.BR'>, 'BUTTON': <class 'gluon.html.BUTTON'>, ...}"
p3133
sS'ccode'
p3134
S'<code object <module> at 0xaa14af50, file "/home...ications/admin/controllers/openshift.py", line 1>'
p3135
ssS'lnum'
p3136
I212
sS'lines'
p3137
(dp3138
I207
S'    try:'
p3139
sI208
S'        if isinstance(code, types.CodeType):'
p3140
sI209
S'            ccode = code'
p3141
sI210
S'        else:'
p3142
sI211
S'            ccode = compile2(code, layer)'
p3143
sI212
S'        exec ccode in environment'
p3144
sI213
S'    except HTTP:'
p3145
sI214
S'        raise'
p3146
sI215
S'    except RestrictedError:'
p3147
sI216
S'        # do not encapsulate (obfuscate) the original RestrictedError'
p3148
ssS'call'
p3149
S"(code='import os\\ntry:\\n    from distutils import dir_uti...essage)\\n\\nresponse._vars=response._caller(deploy)\\n', environment={'A': <class 'gluon.html.A'>, 'ALLOW_TOGGLE': 'true', 'A_button': <function A_button>, 'Actor': <class 'git.util.Actor'>, 'AmbiguousObjectName': <class 'gitdb.exc.AmbiguousObjectName'>, 'B': <class 'gluon.html.B'>, 'BEAUTIFY': <class 'gluon.html.BEAUTIFY'>, 'BODY': <class 'gluon.html.BODY'>, 'BR': <class 'gluon.html.BR'>, 'BUTTON': <class 'gluon.html.BUTTON'>, ...}, layer='/home/wasuaje/Documentos/desarrollo/web2py5/applications/admin/controllers/openshift.py')"
p3150
sS'func'
p3151
S'restricted'
p3152
sa(dp3153
g3128
S'/home/wasuaje/Documentos/desarrollo/web2py5/applications/admin/controllers/openshift.py'
p3154
sg3130
(dp3155
sg3136
I67
sg3137
(dp3156
I64
S'            return (value, None)'
p3157
sI65
S'        return (value, self.error_message)'
p3158
sI56
S''
sI57
S''
sI58
S'class EXISTS(object):'
p3159
sI59
S"    def __init__(self, error_message='file not found'):"
p3160
sI60
S'        self.error_message = error_message'
p3161
sI61
S''
sI62
S'    def __call__(self, value):'
p3162
sI63
S'        if os.path.exists(value):'
p3163
ssg3149
S'()'
p3164
sg3151
S'<module>'
p3165
sa(dp3166
g3128
S'/home/wasuaje/Documentos/desarrollo/web2py5/gluon/globals.py'
p3167
sg3130
(dp3168
S'self'
p3169
S'undefined'
p3170
sS'f'
S'<function deploy>'
p3171
ssg3136
I193
sg3137
(dp3172
I192
S'        self._vars = None'
p3173
sI193
S'        self._caller = lambda f: f()'
p3174
sI194
S'        self._view_environment = None'
p3175
sI195
S'        self._custom_commit = None'
p3176
sI196
S'        self._custom_rollback = None'
p3177
sI197
S''
sI188
S'        self.menu = []             # used by the default view layout'
p3178
sI189
S'        self.files = []            # used by web2py_ajax.html'
p3179
sI190
S'        self.generic_patterns = []  # patterns to allow generic views'
p3180
sI191
S"        self.delimiters = ('{{', '}}')"
p3181
ssg3149
S'(f=<function deploy>)'
p3182
sg3151
S'<lambda>'
p3183
sa(dp3184
g3128
S'/home/wasuaje/Documentos/desarrollo/web2py5/applications/admin/controllers/openshift.py'
p3185
sg3130
(dp3186
S'repo'
p3187
g3170
sS'form.vars.osrepo'
p3188
S"'/home/wasuaje/Documentos/desarrollo/web2py5'"
p3189
sS'form.vars'
p3190
S"<Storage {'applications': ['cloudstats'], 'osrep...rrollo/web2py5', 'osname': 'web2py', 'id': None}>"
p3191
sS'global Repo'
p3192
S"<class 'git.repo.base.Repo'>"
p3193
sS'form'
p3194
S'<gluon.sqlhtml.SQLFORM object>'
p3195
ssg3136
I39
sg3137
(dp3196
I34
S"        regex = re.compile('\\(applications/\\(.*')"
p3197
sI35
S'        w2p_origin = os.getcwd()'
p3198
sI36
S'        osrepo = form.vars.osrepo'
p3199
sI37
S'        osname = form.vars.osname'
p3200
sI38
S'        #Git code starts here'
p3201
sI39
S'        repo = Repo(form.vars.osrepo)'
p3202
sI40
S'        index = repo.index'
p3203
sI41
S'        assert repo.bare == False'
p3204
sI42
S''
sI43
S'        for i in form.vars.applications:'
p3205
ssg3149
S'()'
p3206
sg3151
S'deploy'
p3207
sa(dp3208
g3128
S'/usr/lib/python2.7/dist-packages/git/repo/base.py'
p3209
sg3130
(dp3210
S'epath'
p3211
S"'/home/wasuaje/Documentos/desarrollo/web2py5'"
p3212
sS'global InvalidGitRepositoryError'
p3213
S"<class 'git.exc.InvalidGitRepositoryError'>"
p3214
ssg3136
I122
sg3137
(dp3215
I117
S'\t\t\tif not dummy:'
p3216
sI118
S'\t\t\t\tbreak'
p3217
sI119
S'\t\t# END while curpath'
p3218
sI120
S''
sI121
S'\t\tif self.git_dir is None:'
p3219
sI122
S'\t\t   raise InvalidGitRepositoryError(epath)'
p3220
sI123
S''
sI124
S'\t\tself._bare = False'
p3221
sI125
S'\t\ttry:'
p3222
sI126
S'\t\t\tself._bare = self.config_reader("repository").getboolean(\'core\',\'bare\')'
p3223
ssg3149
S'(self=<git.Repo "None">, path=\'/home/wasuaje/Documentos/desarrollo/web2py5\', odbt=<class \'gitdb.db.git.GitDB\'>)'
p3224
sg3151
g26
sasS'pyver'
p3225
S'Python 2.7.3: /usr/bin/python'
p3226
sS'session'
p3227
g61
(g62
g63
NtRp3228
(dp3229
g66
(dp3230
sg68
(lp3231
g61
(g70
g63
NtRp3232
(dp3233
g66
(dp3234
g74
I5
ssg75
Nsg68
(lp3235
g61
(g77
g63
NtRp3236
(dp3237
g66
(dp3238
sg75
g3232
sg68
(lp3239
g61
(g82
g63
NtRp3240
(dp3241
g66
(dp3242
g86
g87
ssg75
g3236
sg68
(lp3243
S'authorized'
p3244
asbag61
(g82
g63
NtRp3245
(dp3246
g66
(dp3247
g93
g94
ssg75
g3236
sg68
(lp3248
S':'
asbag61
(g82
g63
NtRp3249
(dp3250
g66
(dp3251
sg75
g3236
sg68
(lp3252
g61
(g62
g63
NtRp3253
(dp3254
g66
(dp3255
g74
I5
ssg75
g3249
sg68
(lp3256
g1487
asbasbasbag61
(g77
g63
NtRp3257
(dp3258
g66
(dp3259
sg75
g3232
sg68
(lp3260
g61
(g82
g63
NtRp3261
(dp3262
g66
(dp3263
g86
g87
ssg75
g3257
sg68
(lp3264
S'check_version'
p3265
asbag61
(g82
g63
NtRp3266
(dp3267
g66
(dp3268
g93
g94
ssg75
g3257
sg68
(lp3269
S':'
asbag61
(g82
g63
NtRp3270
(dp3271
g66
(dp3272
sg75
g3257
sg68
(lp3273
g61
(g62
g63
NtRp3274
(dp3275
g66
(dp3276
g74
I5
ssg75
g3270
sg68
(lp3277
g104
asbasbasbag61
(g77
g63
NtRp3278
(dp3279
g66
(dp3280
sg75
g3232
sg68
(lp3281
g61
(g82
g63
NtRp3282
(dp3283
g66
(dp3284
g86
g87
ssg75
g3278
sg68
(lp3285
S'flash'
p3286
asbag61
(g82
g63
NtRp3287
(dp3288
g66
(dp3289
g93
g94
ssg75
g3278
sg68
(lp3290
S':'
asbag61
(g82
g63
NtRp3291
(dp3292
g66
(dp3293
sg75
g3278
sg68
(lp3294
g61
(g62
g63
NtRp3295
(dp3296
g66
(dp3297
g74
I5
ssg75
g3291
sg68
(lp3298
S'None'
p3299
asbasbasbag61
(g77
g63
NtRp3300
(dp3301
g66
(dp3302
sg75
g3232
sg68
(lp3303
g61
(g82
g63
NtRp3304
(dp3305
g66
(dp3306
g86
g87
ssg75
g3300
sg68
(lp3307
S'is_mobile'
p3308
asbag61
(g82
g63
NtRp3309
(dp3310
g66
(dp3311
g93
g94
ssg75
g3300
sg68
(lp3312
S':'
asbag61
(g82
g63
NtRp3313
(dp3314
g66
(dp3315
sg75
g3300
sg68
(lp3316
g61
(g62
g63
NtRp3317
(dp3318
g66
(dp3319
g74
I5
ssg75
g3313
sg68
(lp3320
S'auto'
p3321
asbasbasbag61
(g77
g63
NtRp3322
(dp3323
g66
(dp3324
sg75
g3232
sg68
(lp3325
g61
(g82
g63
NtRp3326
(dp3327
g66
(dp3328
g86
g87
ssg75
g3322
sg68
(lp3329
S'last_time'
p3330
asbag61
(g82
g63
NtRp3331
(dp3332
g66
(dp3333
g93
g94
ssg75
g3322
sg68
(lp3334
S':'
asbag61
(g82
g63
NtRp3335
(dp3336
g66
(dp3337
sg75
g3322
sg68
(lp3338
g61
(g62
g63
NtRp3339
(dp3340
g66
(dp3341
g74
I5
ssg75
g3335
sg68
(lp3342
S'1366311716.659821'
p3343
asbasbasbag61
(g77
g63
NtRp3344
(dp3345
g66
(dp3346
sg75
g3232
sg68
(lp3347
g61
(g82
g63
NtRp3348
(dp3349
g66
(dp3350
g86
g87
ssg75
g3344
sg68
(lp3351
S'pam_user'
p3352
asbag61
(g82
g63
NtRp3353
(dp3354
g66
(dp3355
g93
g94
ssg75
g3344
sg68
(lp3356
S':'
asbag61
(g82
g63
NtRp3357
(dp3358
g66
(dp3359
sg75
g3344
sg68
(lp3360
g61
(g62
g63
NtRp3361
(dp3362
g66
(dp3363
g74
I5
ssg75
g3357
sg68
(lp3364
S'None'
p3365
asbasbasbag61
(g77
g63
NtRp3366
(dp3367
g66
(dp3368
sg75
g3232
sg68
(lp3369
g61
(g82
g63
NtRp3370
(dp3371
g66
(dp3372
g86
g87
ssg75
g3366
sg68
(lp3373
S'token'
p3374
asbag61
(g82
g63
NtRp3375
(dp3376
g66
(dp3377
g93
g94
ssg75
g3366
sg68
(lp3378
S':'
asbag61
(g82
g63
NtRp3379
(dp3380
g66
(dp3381
sg75
g3366
sg68
(lp3382
g61
(g62
g63
NtRp3383
(dp3384
g66
(dp3385
g74
I5
ssg75
g3379
sg68
(lp3386
S'ac5b1358-bebc-432b-b373-37c87472f4c5'
p3387
asbasbasbasbasbsS'etype'
p3388
S"<class 'git.exc.InvalidGitRepositoryError'>"
p3389
sS'date'
p3390
S'Thu Apr 18 14:31:56 2013'
p3391
sS'response'
p3392
g61
(g62
g63
NtRp3393
(dp3394
g66
(dp3395
sg68
(lp3396
g61
(g70
g63
NtRp3397
(dp3398
g66
(dp3399
g74
I5
ssg75
Nsg68
(lp3400
g61
(g77
g63
NtRp3401
(dp3402
g66
(dp3403
sg75
g3397
sg68
(lp3404
g61
(g82
g63
NtRp3405
(dp3406
g66
(dp3407
g86
g87
ssg75
g3401
sg68
(lp3408
g159
asbag61
(g82
g63
NtRp3409
(dp3410
g66
(dp3411
g93
g94
ssg75
g3401
sg68
(lp3412
S':'
asbag61
(g82
g63
NtRp3413
(dp3414
g66
(dp3415
sg75
g3401
sg68
(lp3416
g61
(g62
g63
NtRp3417
(dp3418
g66
(dp3419
g74
I5
ssg75
g3413
sg68
(lp3420
S'<cStringIO.StringO object at 0xae885f60>'
p3421
asbasbasbag61
(g77
g63
NtRp3422
(dp3423
g66
(dp3424
sg75
g3397
sg68
(lp3425
g61
(g82
g63
NtRp3426
(dp3427
g66
(dp3428
g86
g87
ssg75
g3422
sg68
(lp3429
g247
asbag61
(g82
g63
NtRp3430
(dp3431
g66
(dp3432
g93
g94
ssg75
g3422
sg68
(lp3433
S':'
asbag61
(g82
g63
NtRp3434
(dp3435
g66
(dp3436
sg75
g3422
sg68
(lp3437
g61
(g62
g63
NtRp3438
(dp3439
g66
(dp3440
g74
I5
ssg75
g3434
sg68
(lp3441
g61
(g70
g63
NtRp3442
(dp3443
g66
(dp3444
g74
I4
ssg75
Nsg68
(lp3445
g61
(g77
g63
NtRp3446
(dp3447
g66
(dp3448
sg75
g3442
sg68
(lp3449
g61
(g82
g63
NtRp3450
(dp3451
g66
(dp3452
g86
g87
ssg75
g3446
sg68
(lp3453
S'session_id_admin'
p3454
asbag61
(g82
g63
NtRp3455
(dp3456
g66
(dp3457
g93
g94
ssg75
g3446
sg68
(lp3458
S':'
asbag61
(g82
g63
NtRp3459
(dp3460
g66
(dp3461
sg75
g3446
sg68
(lp3462
g61
(g62
g63
NtRp3463
(dp3464
g66
(dp3465
g74
I4
ssg75
g3459
sg68
(lp3466
g285
ag61
(g70
g63
NtRp3467
(dp3468
g66
(dp3469
g74
I3
ssg75
Nsg68
(lp3470
g61
(g77
g63
NtRp3471
(dp3472
g66
(dp3473
sg75
g3467
sg68
(lp3474
g61
(g82
g63
NtRp3475
(dp3476
g66
(dp3477
g86
g87
ssg75
g3471
sg68
(lp3478
g298
asbag61
(g82
g63
NtRp3479
(dp3480
g66
(dp3481
g93
g94
ssg75
g3471
sg68
(lp3482
S':'
asbag61
(g82
g63
NtRp3483
(dp3484
g66
(dp3485
sg75
g3471
sg68
(lp3486
g61
(g62
g63
NtRp3487
(dp3488
g66
(dp3489
g74
I3
ssg75
g3483
sg68
(lp3490
S''
asbasbasbag61
(g77
g63
NtRp3491
(dp3492
g66
(dp3493
sg75
g3467
sg68
(lp3494
g61
(g82
g63
NtRp3495
(dp3496
g66
(dp3497
g86
g87
ssg75
g3491
sg68
(lp3498
g319
asbag61
(g82
g63
NtRp3499
(dp3500
g66
(dp3501
g93
g94
ssg75
g3491
sg68
(lp3502
S':'
asbag61
(g82
g63
NtRp3503
(dp3504
g66
(dp3505
sg75
g3491
sg68
(lp3506
g61
(g62
g63
NtRp3507
(dp3508
g66
(dp3509
g74
I3
ssg75
g3503
sg68
(lp3510
S''
asbasbasbag61
(g77
g63
NtRp3511
(dp3512
g66
(dp3513
sg75
g3467
sg68
(lp3514
g61
(g82
g63
NtRp3515
(dp3516
g66
(dp3517
g86
g87
ssg75
g3511
sg68
(lp3518
g340
asbag61
(g82
g63
NtRp3519
(dp3520
g66
(dp3521
g93
g94
ssg75
g3511
sg68
(lp3522
S':'
asbag61
(g82
g63
NtRp3523
(dp3524
g66
(dp3525
sg75
g3511
sg68
(lp3526
g61
(g62
g63
NtRp3527
(dp3528
g66
(dp3529
g74
I3
ssg75
g3523
sg68
(lp3530
S''
asbasbasbag61
(g77
g63
NtRp3531
(dp3532
g66
(dp3533
sg75
g3467
sg68
(lp3534
g61
(g82
g63
NtRp3535
(dp3536
g66
(dp3537
g86
g87
ssg75
g3531
sg68
(lp3538
g361
asbag61
(g82
g63
NtRp3539
(dp3540
g66
(dp3541
g93
g94
ssg75
g3531
sg68
(lp3542
S':'
asbag61
(g82
g63
NtRp3543
(dp3544
g66
(dp3545
sg75
g3531
sg68
(lp3546
g61
(g62
g63
NtRp3547
(dp3548
g66
(dp3549
g74
I3
ssg75
g3543
sg68
(lp3550
S''
asbasbasbag61
(g77
g63
NtRp3551
(dp3552
g66
(dp3553
sg75
g3467
sg68
(lp3554
g61
(g82
g63
NtRp3555
(dp3556
g66
(dp3557
g86
g87
ssg75
g3551
sg68
(lp3558
g382
asbag61
(g82
g63
NtRp3559
(dp3560
g66
(dp3561
g93
g94
ssg75
g3551
sg68
(lp3562
S':'
asbag61
(g82
g63
NtRp3563
(dp3564
g66
(dp3565
sg75
g3551
sg68
(lp3566
g61
(g62
g63
NtRp3567
(dp3568
g66
(dp3569
g74
I3
ssg75
g3563
sg68
(lp3570
S''
asbasbasbag61
(g77
g63
NtRp3571
(dp3572
g66
(dp3573
sg75
g3467
sg68
(lp3574
g61
(g82
g63
NtRp3575
(dp3576
g66
(dp3577
g86
g87
ssg75
g3571
sg68
(lp3578
g403
asbag61
(g82
g63
NtRp3579
(dp3580
g66
(dp3581
g93
g94
ssg75
g3571
sg68
(lp3582
S':'
asbag61
(g82
g63
NtRp3583
(dp3584
g66
(dp3585
sg75
g3571
sg68
(lp3586
g61
(g62
g63
NtRp3587
(dp3588
g66
(dp3589
g74
I3
ssg75
g3583
sg68
(lp3590
S'/'
asbasbasbag61
(g77
g63
NtRp3591
(dp3592
g66
(dp3593
sg75
g3467
sg68
(lp3594
g61
(g82
g63
NtRp3595
(dp3596
g66
(dp3597
g86
g87
ssg75
g3591
sg68
(lp3598
g424
asbag61
(g82
g63
NtRp3599
(dp3600
g66
(dp3601
g93
g94
ssg75
g3591
sg68
(lp3602
S':'
asbag61
(g82
g63
NtRp3603
(dp3604
g66
(dp3605
sg75
g3591
sg68
(lp3606
g61
(g62
g63
NtRp3607
(dp3608
g66
(dp3609
g74
I3
ssg75
g3603
sg68
(lp3610
S''
asbasbasbag61
(g77
g63
NtRp3611
(dp3612
g66
(dp3613
sg75
g3467
sg68
(lp3614
g61
(g82
g63
NtRp3615
(dp3616
g66
(dp3617
g86
g87
ssg75
g3611
sg68
(lp3618
g445
asbag61
(g82
g63
NtRp3619
(dp3620
g66
(dp3621
g93
g94
ssg75
g3611
sg68
(lp3622
S':'
asbag61
(g82
g63
NtRp3623
(dp3624
g66
(dp3625
sg75
g3611
sg68
(lp3626
g61
(g62
g63
NtRp3627
(dp3628
g66
(dp3629
g74
I3
ssg75
g3623
sg68
(lp3630
S''
asbasbasbasbasbasbasbasbasbasbasbag61
(g77
g63
NtRp3631
(dp3632
g66
(dp3633
sg75
g3397
sg68
(lp3634
g61
(g82
g63
NtRp3635
(dp3636
g66
(dp3637
g86
g87
ssg75
g3631
sg68
(lp3638
S'delimiters'
p3639
asbag61
(g82
g63
NtRp3640
(dp3641
g66
(dp3642
g93
g94
ssg75
g3631
sg68
(lp3643
S':'
asbag61
(g82
g63
NtRp3644
(dp3645
g66
(dp3646
sg75
g3631
sg68
(lp3647
g61
(g62
g63
NtRp3648
(dp3649
g66
(dp3650
g74
I5
ssg75
g3644
sg68
(lp3651
g61
(g70
g63
NtRp3652
(dp3653
g66
(dp3654
g74
I4
ssg75
Nsg68
(lp3655
g61
(g77
g63
NtRp3656
(dp3657
g66
(dp3658
sg75
g3652
sg68
(lp3659
g61
(g82
g63
NtRp3660
(dp3661
g66
(dp3662
sg75
g3656
sg68
(lp3663
g61
(g62
g63
NtRp3664
(dp3665
g66
(dp3666
g74
I4
ssg75
g3660
sg68
(lp3667
S'{{'
p3668
asbasbasbag61
(g77
g63
NtRp3669
(dp3670
g66
(dp3671
sg75
g3652
sg68
(lp3672
g61
(g82
g63
NtRp3673
(dp3674
g66
(dp3675
sg75
g3669
sg68
(lp3676
g61
(g62
g63
NtRp3677
(dp3678
g66
(dp3679
g74
I4
ssg75
g3673
sg68
(lp3680
S'}}'
p3681
asbasbasbasbasbasbasbag61
(g77
g63
NtRp3682
(dp3683
g66
(dp3684
sg75
g3397
sg68
(lp3685
g61
(g82
g63
NtRp3686
(dp3687
g66
(dp3688
g86
g87
ssg75
g3682
sg68
(lp3689
S'files'
p3690
asbag61
(g82
g63
NtRp3691
(dp3692
g66
(dp3693
g93
g94
ssg75
g3682
sg68
(lp3694
S':'
asbag61
(g82
g63
NtRp3695
(dp3696
g66
(dp3697
sg75
g3682
sg68
(lp3698
g61
(g62
g63
NtRp3699
(dp3700
g66
(dp3701
g74
I5
ssg75
g3695
sg68
(lp3702
g61
(g70
g63
NtRp3703
(dp3704
g66
(dp3705
g74
I4
ssg75
Nsg68
(lp3706
g61
(g77
g63
NtRp3707
(dp3708
g66
(dp3709
sg75
g3703
sg68
(lp3710
g61
(g82
g63
NtRp3711
(dp3712
g66
(dp3713
sg75
g3707
sg68
(lp3714
g61
(g62
g63
NtRp3715
(dp3716
g66
(dp3717
g74
I4
ssg75
g3711
sg68
(lp3718
S'/admin/static/plugin_multiselect/jquery.multi-select.js'
p3719
asbasbasbag61
(g77
g63
NtRp3720
(dp3721
g66
(dp3722
sg75
g3703
sg68
(lp3723
g61
(g82
g63
NtRp3724
(dp3725
g66
(dp3726
sg75
g3720
sg68
(lp3727
g61
(g62
g63
NtRp3728
(dp3729
g66
(dp3730
g74
I4
ssg75
g3724
sg68
(lp3731
S'/admin/static/plugin_multiselect/multi-select.css'
p3732
asbasbasbag61
(g77
g63
NtRp3733
(dp3734
g66
(dp3735
sg75
g3703
sg68
(lp3736
g61
(g82
g63
NtRp3737
(dp3738
g66
(dp3739
sg75
g3733
sg68
(lp3740
g61
(g62
g63
NtRp3741
(dp3742
g66
(dp3743
g74
I4
ssg75
g3737
sg68
(lp3744
S'/admin/static/plugin_multiselect/start.js'
p3745
asbasbasbasbasbasbasbag61
(g77
g63
NtRp3746
(dp3747
g66
(dp3748
sg75
g3397
sg68
(lp3749
g61
(g82
g63
NtRp3750
(dp3751
g66
(dp3752
g86
g87
ssg75
g3746
sg68
(lp3753
S'flash'
p3754
asbag61
(g82
g63
NtRp3755
(dp3756
g66
(dp3757
g93
g94
ssg75
g3746
sg68
(lp3758
S':'
asbag61
(g82
g63
NtRp3759
(dp3760
g66
(dp3761
sg75
g3746
sg68
(lp3762
g61
(g62
g63
NtRp3763
(dp3764
g66
(dp3765
g74
I5
ssg75
g3759
sg68
(lp3766
S''
asbasbasbag61
(g77
g63
NtRp3767
(dp3768
g66
(dp3769
sg75
g3397
sg68
(lp3770
g61
(g82
g63
NtRp3771
(dp3772
g66
(dp3773
g86
g87
ssg75
g3767
sg68
(lp3774
S'generic_patterns'
p3775
asbag61
(g82
g63
NtRp3776
(dp3777
g66
(dp3778
g93
g94
ssg75
g3767
sg68
(lp3779
S':'
asbag61
(g82
g63
NtRp3780
(dp3781
g66
(dp3782
sg75
g3767
sg68
(lp3783
g61
(g62
g63
NtRp3784
(dp3785
g66
(dp3786
g74
I5
ssg75
g3780
sg68
(lp3787
g61
(g70
g63
NtRp3788
(dp3789
g66
(dp3790
g74
I4
ssg75
Nsg68
(lp3791
sbasbasbasbag61
(g77
g63
NtRp3792
(dp3793
g66
(dp3794
sg75
g3397
sg68
(lp3795
g61
(g82
g63
NtRp3796
(dp3797
g66
(dp3798
g86
g87
ssg75
g3792
sg68
(lp3799
S'headers'
p3800
asbag61
(g82
g63
NtRp3801
(dp3802
g66
(dp3803
g93
g94
ssg75
g3792
sg68
(lp3804
S':'
asbag61
(g82
g63
NtRp3805
(dp3806
g66
(dp3807
sg75
g3792
sg68
(lp3808
g61
(g62
g63
NtRp3809
(dp3810
g66
(dp3811
g74
I5
ssg75
g3805
sg68
(lp3812
g61
(g70
g63
NtRp3813
(dp3814
g66
(dp3815
g74
I4
ssg75
Nsg68
(lp3816
g61
(g77
g63
NtRp3817
(dp3818
g66
(dp3819
sg75
g3813
sg68
(lp3820
g61
(g82
g63
NtRp3821
(dp3822
g66
(dp3823
g86
g87
ssg75
g3817
sg68
(lp3824
S'X-Powered-By'
p3825
asbag61
(g82
g63
NtRp3826
(dp3827
g66
(dp3828
g93
g94
ssg75
g3817
sg68
(lp3829
S':'
asbag61
(g82
g63
NtRp3830
(dp3831
g66
(dp3832
sg75
g3817
sg68
(lp3833
g61
(g62
g63
NtRp3834
(dp3835
g66
(dp3836
g74
I4
ssg75
g3830
sg68
(lp3837
S'web2py'
p3838
asbasbasbasbasbasbasbag61
(g77
g63
NtRp3839
(dp3840
g66
(dp3841
sg75
g3397
sg68
(lp3842
g61
(g82
g63
NtRp3843
(dp3844
g66
(dp3845
g86
g87
ssg75
g3839
sg68
(lp3846
S'menu'
p3847
asbag61
(g82
g63
NtRp3848
(dp3849
g66
(dp3850
g93
g94
ssg75
g3839
sg68
(lp3851
S':'
asbag61
(g82
g63
NtRp3852
(dp3853
g66
(dp3854
sg75
g3839
sg68
(lp3855
g61
(g62
g63
NtRp3856
(dp3857
g66
(dp3858
g74
I5
ssg75
g3852
sg68
(lp3859
g61
(g70
g63
NtRp3860
(dp3861
g66
(dp3862
g74
I4
ssg75
Nsg68
(lp3863
g61
(g77
g63
NtRp3864
(dp3865
g66
(dp3866
sg75
g3860
sg68
(lp3867
g61
(g82
g63
NtRp3868
(dp3869
g66
(dp3870
sg75
g3864
sg68
(lp3871
g61
(g62
g63
NtRp3872
(dp3873
g66
(dp3874
g74
I4
ssg75
g3868
sg68
(lp3875
g61
(g70
g63
NtRp3876
(dp3877
g66
(dp3878
g74
I3
ssg75
Nsg68
(lp3879
g61
(g77
g63
NtRp3880
(dp3881
g66
(dp3882
sg75
g3876
sg68
(lp3883
g61
(g82
g63
NtRp3884
(dp3885
g66
(dp3886
sg75
g3880
sg68
(lp3887
g61
(g62
g63
NtRp3888
(dp3889
g66
(dp3890
g74
I3
ssg75
g3884
sg68
(lp3891
cgluon.languages
lazyT_unpickle
p3892
(S's\x05\x00\x00\x00sitio'
tRp3893
asbasbasbag61
(g77
g63
NtRp3894
(dp3895
g66
(dp3896
sg75
g3876
sg68
(lp3897
g61
(g82
g63
NtRp3898
(dp3899
g66
(dp3900
sg75
g3894
sg68
(lp3901
g61
(g62
g63
NtRp3902
(dp3903
g66
(dp3904
g74
I3
ssg75
g3898
sg68
(lp3905
g104
asbasbasbag61
(g77
g63
NtRp3906
(dp3907
g66
(dp3908
sg75
g3876
sg68
(lp3909
g61
(g82
g63
NtRp3910
(dp3911
g66
(dp3912
sg75
g3906
sg68
(lp3913
g61
(g62
g63
NtRp3914
(dp3915
g66
(dp3916
g74
I3
ssg75
g3910
sg68
(lp3917
S'/admin/default/site'
p3918
asbasbasbasbasbasbasbag61
(g77
g63
NtRp3919
(dp3920
g66
(dp3921
sg75
g3860
sg68
(lp3922
g61
(g82
g63
NtRp3923
(dp3924
g66
(dp3925
sg75
g3919
sg68
(lp3926
g61
(g62
g63
NtRp3927
(dp3928
g66
(dp3929
g74
I4
ssg75
g3923
sg68
(lp3930
g61
(g70
g63
NtRp3931
(dp3932
g66
(dp3933
g74
I3
ssg75
Nsg68
(lp3934
g61
(g77
g63
NtRp3935
(dp3936
g66
(dp3937
sg75
g3931
sg68
(lp3938
g61
(g82
g63
NtRp3939
(dp3940
g66
(dp3941
sg75
g3935
sg68
(lp3942
g61
(g62
g63
NtRp3943
(dp3944
g66
(dp3945
g74
I3
ssg75
g3939
sg68
(lp3946
g3892
(S's\x0e\x00\x00\x00fin de sesi\xc3\xb3n'
tRp3947
asbasbasbag61
(g77
g63
NtRp3948
(dp3949
g66
(dp3950
sg75
g3931
sg68
(lp3951
g61
(g82
g63
NtRp3952
(dp3953
g66
(dp3954
sg75
g3948
sg68
(lp3955
g61
(g62
g63
NtRp3956
(dp3957
g66
(dp3958
g74
I3
ssg75
g3952
sg68
(lp3959
g104
asbasbasbag61
(g77
g63
NtRp3960
(dp3961
g66
(dp3962
sg75
g3931
sg68
(lp3963
g61
(g82
g63
NtRp3964
(dp3965
g66
(dp3966
sg75
g3960
sg68
(lp3967
g61
(g62
g63
NtRp3968
(dp3969
g66
(dp3970
g74
I3
ssg75
g3964
sg68
(lp3971
S'/admin/default/logout'
p3972
asbasbasbasbasbasbasbag61
(g77
g63
NtRp3973
(dp3974
g66
(dp3975
sg75
g3860
sg68
(lp3976
g61
(g82
g63
NtRp3977
(dp3978
g66
(dp3979
sg75
g3973
sg68
(lp3980
g61
(g62
g63
NtRp3981
(dp3982
g66
(dp3983
g74
I4
ssg75
g3977
sg68
(lp3984
g61
(g70
g63
NtRp3985
(dp3986
g66
(dp3987
g74
I3
ssg75
Nsg68
(lp3988
g61
(g77
g63
NtRp3989
(dp3990
g66
(dp3991
sg75
g3985
sg68
(lp3992
g61
(g82
g63
NtRp3993
(dp3994
g66
(dp3995
sg75
g3989
sg68
(lp3996
g61
(g62
g63
NtRp3997
(dp3998
g66
(dp3999
g74
I3
ssg75
g3993
sg68
(lp4000
g3892
(S's\x05\x00\x00\x00Debug'
tRp4001
asbasbasbag61
(g77
g63
NtRp4002
(dp4003
g66
(dp4004
sg75
g3985
sg68
(lp4005
g61
(g82
g63
NtRp4006
(dp4007
g66
(dp4008
sg75
g4002
sg68
(lp4009
g61
(g62
g63
NtRp4010
(dp4011
g66
(dp4012
g74
I3
ssg75
g4006
sg68
(lp4013
g104
asbasbasbag61
(g77
g63
NtRp4014
(dp4015
g66
(dp4016
sg75
g3985
sg68
(lp4017
g61
(g82
g63
NtRp4018
(dp4019
g66
(dp4020
sg75
g4014
sg68
(lp4021
g61
(g62
g63
NtRp4022
(dp4023
g66
(dp4024
g74
I3
ssg75
g4018
sg68
(lp4025
S'/admin/debug/interact'
p4026
asbasbasbasbasbasbasbag61
(g77
g63
NtRp4027
(dp4028
g66
(dp4029
sg75
g3860
sg68
(lp4030
g61
(g82
g63
NtRp4031
(dp4032
g66
(dp4033
sg75
g4027
sg68
(lp4034
g61
(g62
g63
NtRp4035
(dp4036
g66
(dp4037
g74
I4
ssg75
g4031
sg68
(lp4038
g61
(g70
g63
NtRp4039
(dp4040
g66
(dp4041
g74
I3
ssg75
Nsg68
(lp4042
g61
(g77
g63
NtRp4043
(dp4044
g66
(dp4045
sg75
g4039
sg68
(lp4046
g61
(g82
g63
NtRp4047
(dp4048
g66
(dp4049
sg75
g4043
sg68
(lp4050
g61
(g62
g63
NtRp4051
(dp4052
g66
(dp4053
g74
I3
ssg75
g4047
sg68
(lp4054
g3892
(S's\x05\x00\x00\x00ayuda'
tRp4055
asbasbasbag61
(g77
g63
NtRp4056
(dp4057
g66
(dp4058
sg75
g4039
sg68
(lp4059
g61
(g82
g63
NtRp4060
(dp4061
g66
(dp4062
sg75
g4056
sg68
(lp4063
g61
(g62
g63
NtRp4064
(dp4065
g66
(dp4066
g74
I3
ssg75
g4060
sg68
(lp4067
g104
asbasbasbag61
(g77
g63
NtRp4068
(dp4069
g66
(dp4070
sg75
g4039
sg68
(lp4071
g61
(g82
g63
NtRp4072
(dp4073
g66
(dp4074
sg75
g4068
sg68
(lp4075
g61
(g62
g63
NtRp4076
(dp4077
g66
(dp4078
g74
I3
ssg75
g4072
sg68
(lp4079
S'/examples/default/index'
p4080
asbasbasbasbasbasbasbasbasbasbasbag61
(g77
g63
NtRp4081
(dp4082
g66
(dp4083
sg75
g3397
sg68
(lp4084
g61
(g82
g63
NtRp4085
(dp4086
g66
(dp4087
g86
g87
ssg75
g4081
sg68
(lp4088
S'meta'
p4089
asbag61
(g82
g63
NtRp4090
(dp4091
g66
(dp4092
g93
g94
ssg75
g4081
sg68
(lp4093
S':'
asbag61
(g82
g63
NtRp4094
(dp4095
g66
(dp4096
sg75
g4081
sg68
(lp4097
g61
(g62
g63
NtRp4098
(dp4099
g66
(dp4100
g74
I5
ssg75
g4094
sg68
(lp4101
g61
(g70
g63
NtRp4102
(dp4103
g66
(dp4104
g74
I4
ssg75
Nsg68
(lp4105
sbasbasbasbag61
(g77
g63
NtRp4106
(dp4107
g66
(dp4108
sg75
g3397
sg68
(lp4109
g61
(g82
g63
NtRp4110
(dp4111
g66
(dp4112
g86
g87
ssg75
g4106
sg68
(lp4113
S'models_to_run'
p4114
asbag61
(g82
g63
NtRp4115
(dp4116
g66
(dp4117
g93
g94
ssg75
g4106
sg68
(lp4118
S':'
asbag61
(g82
g63
NtRp4119
(dp4120
g66
(dp4121
sg75
g4106
sg68
(lp4122
g61
(g62
g63
NtRp4123
(dp4124
g66
(dp4125
g74
I5
ssg75
g4119
sg68
(lp4126
g61
(g70
g63
NtRp4127
(dp4128
g66
(dp4129
g74
I4
ssg75
Nsg68
(lp4130
g61
(g77
g63
NtRp4131
(dp4132
g66
(dp4133
sg75
g4127
sg68
(lp4134
g61
(g82
g63
NtRp4135
(dp4136
g66
(dp4137
sg75
g4131
sg68
(lp4138
g61
(g62
g63
NtRp4139
(dp4140
g66
(dp4141
g74
I4
ssg75
g4135
sg68
(lp4142
S'^\\w+\\.py$'
p4143
asbasbasbag61
(g77
g63
NtRp4144
(dp4145
g66
(dp4146
sg75
g4127
sg68
(lp4147
g61
(g82
g63
NtRp4148
(dp4149
g66
(dp4150
sg75
g4144
sg68
(lp4151
g61
(g62
g63
NtRp4152
(dp4153
g66
(dp4154
g74
I4
ssg75
g4148
sg68
(lp4155
S'^openshift/\\w+\\.py$'
p4156
asbasbasbag61
(g77
g63
NtRp4157
(dp4158
g66
(dp4159
sg75
g4127
sg68
(lp4160
g61
(g82
g63
NtRp4161
(dp4162
g66
(dp4163
sg75
g4157
sg68
(lp4164
g61
(g62
g63
NtRp4165
(dp4166
g66
(dp4167
g74
I4
ssg75
g4161
sg68
(lp4168
S'^openshift/deploy/\\w+\\.py$'
p4169
asbasbasbasbasbasbasbag61
(g77
g63
NtRp4170
(dp4171
g66
(dp4172
sg75
g3397
sg68
(lp4173
g61
(g82
g63
NtRp4174
(dp4175
g66
(dp4176
g86
g87
ssg75
g4170
sg68
(lp4177
S'postprocessing'
p4178
asbag61
(g82
g63
NtRp4179
(dp4180
g66
(dp4181
g93
g94
ssg75
g4170
sg68
(lp4182
S':'
asbag61
(g82
g63
NtRp4183
(dp4184
g66
(dp4185
sg75
g4170
sg68
(lp4186
g61
(g62
g63
NtRp4187
(dp4188
g66
(dp4189
g74
I5
ssg75
g4183
sg68
(lp4190
g61
(g70
g63
NtRp4191
(dp4192
g66
(dp4193
g74
I4
ssg75
Nsg68
(lp4194
sbasbasbasbag61
(g77
g63
NtRp4195
(dp4196
g66
(dp4197
sg75
g3397
sg68
(lp4198
g61
(g82
g63
NtRp4199
(dp4200
g66
(dp4201
g86
g87
ssg75
g4195
sg68
(lp4202
S'session_cookie_expires'
p4203
asbag61
(g82
g63
NtRp4204
(dp4205
g66
(dp4206
g93
g94
ssg75
g4195
sg68
(lp4207
S':'
asbag61
(g82
g63
NtRp4208
(dp4209
g66
(dp4210
sg75
g4195
sg68
(lp4211
g61
(g62
g63
NtRp4212
(dp4213
g66
(dp4214
g74
I5
ssg75
g4208
sg68
(lp4215
S'None'
p4216
asbasbasbag61
(g77
g63
NtRp4217
(dp4218
g66
(dp4219
sg75
g3397
sg68
(lp4220
g61
(g82
g63
NtRp4221
(dp4222
g66
(dp4223
g86
g87
ssg75
g4217
sg68
(lp4224
S'session_data_name'
p4225
asbag61
(g82
g63
NtRp4226
(dp4227
g66
(dp4228
g93
g94
ssg75
g4217
sg68
(lp4229
S':'
asbag61
(g82
g63
NtRp4230
(dp4231
g66
(dp4232
sg75
g4217
sg68
(lp4233
g61
(g62
g63
NtRp4234
(dp4235
g66
(dp4236
g74
I5
ssg75
g4230
sg68
(lp4237
S'session_data_admin'
p4238
asbasbasbag61
(g77
g63
NtRp4239
(dp4240
g66
(dp4241
sg75
g3397
sg68
(lp4242
g61
(g82
g63
NtRp4243
(dp4244
g66
(dp4245
g86
g87
ssg75
g4239
sg68
(lp4246
S'session_file'
p4247
asbag61
(g82
g63
NtRp4248
(dp4249
g66
(dp4250
g93
g94
ssg75
g4239
sg68
(lp4251
S':'
asbag61
(g82
g63
NtRp4252
(dp4253
g66
(dp4254
sg75
g4239
sg68
(lp4255
g61
(g62
g63
NtRp4256
(dp4257
g66
(dp4258
g74
I5
ssg75
g4252
sg68
(lp4259
S"<open file '/home/wasuaje/Documentos/desarrollo/web2py5/applications/admin/sessions/127.0.0.1-11192b0e-b4bb-4838-b797-1c5df59efc3e', mode 'rb+' at 0xaa17cf40>"
p4260
asbasbasbag61
(g77
g63
NtRp4261
(dp4262
g66
(dp4263
sg75
g3397
sg68
(lp4264
g61
(g82
g63
NtRp4265
(dp4266
g66
(dp4267
g86
g87
ssg75
g4261
sg68
(lp4268
S'session_filename'
p4269
asbag61
(g82
g63
NtRp4270
(dp4271
g66
(dp4272
g93
g94
ssg75
g4261
sg68
(lp4273
S':'
asbag61
(g82
g63
NtRp4274
(dp4275
g66
(dp4276
sg75
g4261
sg68
(lp4277
g61
(g62
g63
NtRp4278
(dp4279
g66
(dp4280
g74
I5
ssg75
g4274
sg68
(lp4281
S'/home/wasuaje/Documentos/desarrollo/web2py5/applications/admin/sessions/127.0.0.1-11192b0e-b4bb-4838-b797-1c5df59efc3e'
p4282
asbasbasbag61
(g77
g63
NtRp4283
(dp4284
g66
(dp4285
sg75
g3397
sg68
(lp4286
g61
(g82
g63
NtRp4287
(dp4288
g66
(dp4289
g86
g87
ssg75
g4283
sg68
(lp4290
S'session_id'
p4291
asbag61
(g82
g63
NtRp4292
(dp4293
g66
(dp4294
g93
g94
ssg75
g4283
sg68
(lp4295
S':'
asbag61
(g82
g63
NtRp4296
(dp4297
g66
(dp4298
sg75
g4283
sg68
(lp4299
g61
(g62
g63
NtRp4300
(dp4301
g66
(dp4302
g74
I5
ssg75
g4296
sg68
(lp4303
g285
asbasbasbag61
(g77
g63
NtRp4304
(dp4305
g66
(dp4306
sg75
g3397
sg68
(lp4307
g61
(g82
g63
NtRp4308
(dp4309
g66
(dp4310
g86
g87
ssg75
g4304
sg68
(lp4311
S'session_id_name'
p4312
asbag61
(g82
g63
NtRp4313
(dp4314
g66
(dp4315
g93
g94
ssg75
g4304
sg68
(lp4316
S':'
asbag61
(g82
g63
NtRp4317
(dp4318
g66
(dp4319
sg75
g4304
sg68
(lp4320
g61
(g62
g63
NtRp4321
(dp4322
g66
(dp4323
g74
I5
ssg75
g4317
sg68
(lp4324
g3454
asbasbasbag61
(g77
g63
NtRp4325
(dp4326
g66
(dp4327
sg75
g3397
sg68
(lp4328
g61
(g82
g63
NtRp4329
(dp4330
g66
(dp4331
g86
g87
ssg75
g4325
sg68
(lp4332
S'session_locked'
p4333
asbag61
(g82
g63
NtRp4334
(dp4335
g66
(dp4336
g93
g94
ssg75
g4325
sg68
(lp4337
S':'
asbag61
(g82
g63
NtRp4338
(dp4339
g66
(dp4340
sg75
g4325
sg68
(lp4341
g61
(g62
g63
NtRp4342
(dp4343
g66
(dp4344
g74
I5
ssg75
g4338
sg68
(lp4345
g1487
asbasbasbag61
(g77
g63
NtRp4346
(dp4347
g66
(dp4348
sg75
g3397
sg68
(lp4349
g61
(g82
g63
NtRp4350
(dp4351
g66
(dp4352
g86
g87
ssg75
g4346
sg68
(lp4353
S'session_new'
p4354
asbag61
(g82
g63
NtRp4355
(dp4356
g66
(dp4357
g93
g94
ssg75
g4346
sg68
(lp4358
S':'
asbag61
(g82
g63
NtRp4359
(dp4360
g66
(dp4361
sg75
g4346
sg68
(lp4362
g61
(g62
g63
NtRp4363
(dp4364
g66
(dp4365
g74
I5
ssg75
g4359
sg68
(lp4366
g104
asbasbasbag61
(g77
g63
NtRp4367
(dp4368
g66
(dp4369
sg75
g3397
sg68
(lp4370
g61
(g82
g63
NtRp4371
(dp4372
g66
(dp4373
g86
g87
ssg75
g4367
sg68
(lp4374
S'session_storage_type'
p4375
asbag61
(g82
g63
NtRp4376
(dp4377
g66
(dp4378
g93
g94
ssg75
g4367
sg68
(lp4379
S':'
asbag61
(g82
g63
NtRp4380
(dp4381
g66
(dp4382
sg75
g4367
sg68
(lp4383
g61
(g62
g63
NtRp4384
(dp4385
g66
(dp4386
g74
I5
ssg75
g4380
sg68
(lp4387
g3128
asbasbasbag61
(g77
g63
NtRp4388
(dp4389
g66
(dp4390
sg75
g3397
sg68
(lp4391
g61
(g82
g63
NtRp4392
(dp4393
g66
(dp4394
g86
g87
ssg75
g4388
sg68
(lp4395
S'status'
p4396
asbag61
(g82
g63
NtRp4397
(dp4398
g66
(dp4399
g93
g94
ssg75
g4388
sg68
(lp4400
S':'
asbag61
(g82
g63
NtRp4401
(dp4402
g66
(dp4403
sg75
g4388
sg68
(lp4404
g61
(g62
g63
NtRp4405
(dp4406
g66
(dp4407
g74
I5
ssg75
g4401
sg68
(lp4408
S'200'
p4409
asbasbasbag61
(g77
g63
NtRp4410
(dp4411
g66
(dp4412
sg75
g3397
sg68
(lp4413
g61
(g82
g63
NtRp4414
(dp4415
g66
(dp4416
g86
g87
ssg75
g4410
sg68
(lp4417
S'subtitle'
p4418
asbag61
(g82
g63
NtRp4419
(dp4420
g66
(dp4421
g93
g94
ssg75
g4410
sg68
(lp4422
S':'
asbag61
(g82
g63
NtRp4423
(dp4424
g66
(dp4425
sg75
g4410
sg68
(lp4426
g61
(g62
g63
NtRp4427
(dp4428
g66
(dp4429
g74
I5
ssg75
g4423
sg68
(lp4430
S'admin'
p4431
asbasbasbag61
(g77
g63
NtRp4432
(dp4433
g66
(dp4434
sg75
g3397
sg68
(lp4435
g61
(g82
g63
NtRp4436
(dp4437
g66
(dp4438
g86
g87
ssg75
g4432
sg68
(lp4439
S'title'
p4440
asbag61
(g82
g63
NtRp4441
(dp4442
g66
(dp4443
g93
g94
ssg75
g4432
sg68
(lp4444
S':'
asbag61
(g82
g63
NtRp4445
(dp4446
g66
(dp4447
sg75
g4432
sg68
(lp4448
g61
(g62
g63
NtRp4449
(dp4450
g66
(dp4451
g74
I5
ssg75
g4445
sg68
(lp4452
S'deploy '
p4453
asbasbasbag61
(g77
g63
NtRp4454
(dp4455
g66
(dp4456
sg75
g3397
sg68
(lp4457
g61
(g82
g63
NtRp4458
(dp4459
g66
(dp4460
g86
g87
ssg75
g4454
sg68
(lp4461
S'view'
p4462
asbag61
(g82
g63
NtRp4463
(dp4464
g66
(dp4465
g93
g94
ssg75
g4454
sg68
(lp4466
S':'
asbag61
(g82
g63
NtRp4467
(dp4468
g66
(dp4469
sg75
g4454
sg68
(lp4470
g61
(g62
g63
NtRp4471
(dp4472
g66
(dp4473
g74
I5
ssg75
g4467
sg68
(lp4474
S'openshift/deploy.html'
p4475
asbasbasbasbasbsS'locals'
p4476
(dp4477
S'dummy'
p4478
S"''"
p4479
sS'self'
p4480
S'<git.Repo "None">'
p4481
sS'curpath'
p4482
S"'/'"
p4483
sS'epath'
p4484
S"'/home/wasuaje/Documentos/desarrollo/web2py5'"
p4485
sg403
S"'/home/wasuaje/Documentos/desarrollo/web2py5'"
p4486
sS'gitpath'
p4487
S"'/.git'"
p4488
sS'odbt'
p4489
S"<class 'gitdb.db.git.GitDB'>"
p4490
sssS'traceback'
p4491
S'Traceback (most recent call last):\n  File "/home/wasuaje/Documentos/desarrollo/web2py5/gluon/restricted.py", line 212, in restricted\n    exec ccode in environment\n  File "/home/wasuaje/Documentos/desarrollo/web2py5/applications/admin/controllers/openshift.py", line 67, in <module>\n  File "/home/wasuaje/Documentos/desarrollo/web2py5/gluon/globals.py", line 193, in <lambda>\n    self._caller = lambda f: f()\n  File "/home/wasuaje/Documentos/desarrollo/web2py5/applications/admin/controllers/openshift.py", line 39, in deploy\n    repo = Repo(form.vars.osrepo)\n  File "/usr/lib/python2.7/dist-packages/git/repo/base.py", line 122, in __init__\n    raise InvalidGitRepositoryError(epath)\nInvalidGitRepositoryError: /home/wasuaje/Documentos/desarrollo/web2py5\n'
p4492
s.