(dp1
S'fecha_res'
p2
(dp3
S'length'
p4
I255
sS'unique'
p5
I00
sS'sortable'
p6
I3
sS'sql'
p7
S'DATE'
p8
sS'notnull'
p9
I00
sS'type'
p10
S'date'
p11
ssS'observaciones'
p12
(dp13
g4
I255
sg5
I00
sg6
I4
sg7
S'VARCHAR(255)'
p14
sg9
I00
sg10
S'string'
p15
ssS'orden_id'
p16
(dp17
g4
I255
sg5
I00
sg6
I2
sg7
S'INT'
p18
sg9
I00
sg10
S'integer'
p19
ssS'id'
p20
(dp21
g4
I255
sg5
I00
sg6
I1
sg7
S'INT AUTO_INCREMENT NOT NULL'
p22
sg9
I00
sg10
g20
ss.