(dp1
S'output'
p2
S"<type 'exceptions.SyntaxError'> invalid syntax (cobro2.py, line 30)"
p3
sS'layer'
p4
S'/home/wasuaje/Documentos/desarrollo/web2py5/applications/flota/controllers/cobro2.py'
p5
sS'code'
p6
S'# -*- coding: utf-8 -*-\n### required - do no delete\n\ndef user(): return dict(form=auth())\ndef download(): return response.download(request,db)\ndef call(): return service()\n### end requires\nimport math\n\ndef index():\n\tform=FORM(TABLE(TR("Your\tname:",INPUT(_type="text",_name="name",requires=IS_NOT_EMPTY()),\n\t\t\t\t\t"Your surname:",INPUT(_type="text",_name="surname",requires=IS_NOT_EMPTY()) ),\n                   TR("Your email:",INPUT(_type="text",_name="email",requires=IS_EMAIL())),\n \t\t\t\tTR("Admin",INPUT(_type="checkbox",_name="admin")),\n\t\t\t\tTR("Sure?",SELECT(\'yes\',\'no\',_name="sure",requires=IS_IN_SET([\'yes\',\'no\'])) ),\n\t\t\t\t TR("Profile",TEXTAREA(_name="profile",value="writesomething here")),\n                    TR("",INPUT(_type="submit",_value="SUBMIT")))) \n\tif form.accepts(request.vars,session):\n\t\tresponse.flash="form accepted"\n\telif form.errors:\n\t\tresponse.flash="form is invalid"\n\telse:\n\t\tresponse.flash="please fill the form"\n\n\tpage = request.vars.page #// get the requested page \n\tlimit = request.vars.rows #// get how many rows we want to have into the grid \n\tsidx = request.vars.sidx #// get index row - i.e. user click to sort $sord = \n\tsord = request.vars.sord  #// get the direction\n\n\tif !sidx:\n\t\tsidx =1 # // connect to the database \n\n\tcount =db(db.fc_cobro.id > 0).count() \n\tif  count > 0:\n\t\ttotal_pages = math.ceil(count/limit)\n\telse:\n\t\ttotal_pages = 0\n\n\tif page > total_pages:\n\t\tpage=total_pages\n\t\tstart = limit*page - $limit # // do not put $limit*($page - 1)\n\n\tresponse={\'page\':page,\'total\':total_pages,\'records\':count}\n\tfor row in db(db.fc_cobro.id > 0).select():\n\t\tresponse[\'id\']=row.id\n\t\tresponse[\'cell\']=[row.fecha,row.descripcion,row.cf_proveedor_id]\n\tprint response\n\n\treturn dict(form=form,vars=form.vars)\n\n\ndef form():\n    id = request.args[0]\n    form=FORM(TABLE(TR("Yourname:",INPUT(_type="text",_name="name",requires=IS_NOT_EMPTY())),\n                    TR("Youremail:",INPUT(_type="text",_name="email",requires=IS_EMAIL())),\n\t\t\t\tTR("Admin",INPUT(_type="checkbox",_name="admin")),\n\t\t\t\tTR("Sure?",SELECT(\'yes\',\'no\',_name="sure",requires=IS_IN_SET([\'yes\',\'no\'])) ),\n \t\t\t\tTR("Profile",TEXTAREA(_name="profile",value="writesomething here")),\n                    TR("",INPUT(_type="submit",_value="SUBMIT"))))\n\n\n\ndef indexold():\n\t#muestro form de busqueda de gastos\n\ttabla=\'fc_cobro\'\n\ttabla2=\'cf_proveedor\'\n\tgrid = webgrid.WebGrid(crud)\n\tgrid.fields = [tabla+\'.fecha\', tabla+\'.total\',  tabla+\'.descripcion\', tabla2+\'.razon_social\']\n\tgrid.field_headers = [\'Fecha\', \'Total\', \'Descripcion\',\'Proveedor\']\n\tgrid.action_links = [\'view\', \'edit\']\n\tgrid.action_headers = [\'Accion\', \'\']\n\ttabla=\tdb((db[tabla].cf_proveedor_id==db.cf_proveedor.id) ).select()\n\tgrid.datasource = tabla\n\tgrid.pagesize = 20\n\tgrid.messages.confirm_delete = \'Seguro de realizar esta accion?\'\n\tgrid.messages.no_records = \'No hay registros\'\n\tgrid.messages.add_link = \'[Agregar %s]\'\t\t\n\tgrid.enabled_rows = [\'header\',\'add_links\', \'pager\']\n\t# acciones personalizadas\n\tgrid.view_link= lambda row: A(\'Ver\', _href= URL(f=\'show_form\', args=[row[\'fc_cobro.id\'], \'True\']))\n\tgrid.edit_link= lambda row: A(\'Edit\', _href= URL(f=\'show_form\', args=[row[\'fc_cobro.id\']]))\t\n\tgrid.add_links =  lambda tables: TR(TD([A(\' Nuevo \', _href= URL(f=\'show_form\'))  ]))\t\n\treturn dict(grid=grid(), tabla=tabla) #notice the ()\n\ndef show_form():\t\t\n\ttabla=\'fc_cobro\'\n\tthereistrue =  False\t\t\n\tfor i in range(0, len(request.args)):\n\t\tif request.args(i)==\'True\':\n\t\t\tthereistrue=True\n\tif thereistrue ==  True:\n\t\treadonly=True\n\t\tdeletable=False\n\telse:\t\t\n\t\treadonly=False\n\t\tdeletable=True\n\t\t\t\t\n\ttabladb=db[tabla]\n\tregistro=db[tabla](request.args(0))\t\t\n\t\n\tlabels = {\'fecha\':\'Fecha\', \'descripcion\':\'Descripcion\',  \'total\':\'Total Cobro\',  \'cf_proveedor_id\':\'Proveedor\'}\n\tcampos=[ \'cf_proveedor_id\',  \'fecha\',  \'descripcion\', \'total\']\t\t\t\n\t\t\t\n\tform=SQLFORM(tabladb, registro, submit_button=\'Enviar\' ,    delete_label=\'Click para borrar:\', next=URL(c=\'cliente\',  f=\'index\') , \\\n\t\t              \tfields=campos ,showid=False , deletable=deletable ,  readonly=readonly , labels=labels, upload=URL(\'download\'))\t\t\n\t\n\ttotal=0\n\tcobrado=0\n\trec = db(db.fc_cobro.id==request.args(0)).select()\n\tfor row in rec:\n\t\ttotal=row.total\n\t\n\trec = db(db.fc_cobro_det.fc_cobro_id==request.args(0)).select()\n\tfor row in rec:\n\t\tcobrado+=row.monto\n\tprint cobrado, total\n\tif thereistrue and cobrado < total :\t\t\t\t \n\t\ttabladet=\'fc_cobro_det\'\n\t\ttabladb=db[tabladet]\n\t\tregistro=\'\'\n\t\tlabels = {\'fecha\':\'Fecha\', \'descripcion\':\'Descripcion\',  \'monto\':\'Monto Cobro\',  \n\t\t              \'referencia\':\'Referencia\',  \'fc_forma_pago_id\':\'Forma de Pago\',  \'fc_banco_id\':\'Banco\', \'fc_documento_id\':\'Factura al cobro\'\n\t\t\t\t\t  }\n\t\tcampos=[ \'fecha\',  \'fc_forma_pago_id\',  \'fc_banco_id\',  \'referencia\',  \'monto\', \'fc_documento_id\', \'descripcion\']\n\t\tformdet=SQLFORM(tabladb, registro, submit_button=\'Enviar\' ,    delete_label=\'Click para borrar:\', next=URL(c=\'cobro\',  f=\'show_form/\'+request.args(0)+\'True\') , \\\n\t\t              \tfields=campos ,showid=False , deletable=deletable ,  readonly=False , labels=labels, upload=URL(\'download\'))\t\t\n\t\tformdet.vars.fc_cobro_id=request.args(0)\n\n\t\tlineas=show_detail(request.args(0))\t\t\n\t\telform=formdet\n\t\tprintform=\'\'\n\t\t#if formdet.accepts(request.vars, session):\n\t\tif formdet.process(onvalidation=validarDo).accepted:\n\t\t\tresponse.flash = \'Detalle Agregado !\'\n\t\t\tredirect(URL(c=\'cobro\',  f=\'show_form/\'+str(request.args(0))+\'/True\'))\t\n\telse:\n\t\telform=\'\'\n\t\tprintform=\'\'\n\t\tlineas=\'\'\n\t\n\t\n\tlineas=show_detail(request.args(0))\t\t\n\tif form.accepts(request.vars, session):\n\t\tresponse.flash = \'Operacion exitosa !\'\n\t\tmyid = form.vars.id\t\t\n\t\tif form.vars.delete_this_record=="on":\n\t\t\t# me aseguro de borrar el detalle\n\t\t\tdb((db["fc_cobro_det"].fc_cobro_id==myid)).delete()\n\t\t\tredirect(URL(c=\'cobro\',  f=\'index\'))\n\t\telse:\n\t\t\tredirect(URL(c=\'cobro\',  f=\'show_form/\'+str(myid)+\'/True\'))\n\telif form.errors:\n\t\tresponse.flash = \'Ha habido un error !\'\n\t\n\treturn dict( form=form,  frmdet=elform, printform=printform,  lineas= DIV((lineas)))\n\ndef validarDo(formdet):\n\ttotal=0.00\n\tcobrado=0.00\t\n\telid=formdet.vars.fc_cobro_id\n\tmontoacobrar=float(formdet.vars.monto)\n\trec = db(db.fc_cobro.id==elid).select()\n\tfor row in rec:\n\t\ttotal=row.total\n\t\n\trec = db(db.fc_cobro_det.fc_cobro_id==elid).select()\n\tfor row in rec:\n\t\tcobrado+=row.monto\n\tif  cobrado+montoacobrar > total :\n\t\tsession.flash = \'Cobro excede el total\'\n\t\tredirect(URL(c=\'cobro\',  f=\'show_form/\'+str(elid)+\'/True\'))\t\n\n\ndef show_detail(elid):\n\theader=[]\n\theader.append([\'Accion\', \'Fecha\',\'Forma Pago\', \'Banco\', \'Monto\'])\n\tlistado = []    \n\tfor elem in db((db.fc_cobro_det.fc_cobro_id==elid) & (db.fc_cobro_det.fc_forma_pago_id==db.fc_forma_pago.id)  & (db.fc_cobro_det.fc_banco_id==db.fc_banco.id) \n\t               ).select(orderby=db.fc_cobro_det.id):\t\t\n\t\t#listado += elem.nombre + "<br/>" \t\t\n\t\t#_onclick="ajax(\'"+URL(\'delete/\'+str(elem.fc_cobro_det.id)+\'/\'+str(elid))+"\',[\'\'],\'target\');") \n\t\tlistado.append(TR(A(IMG(_src=URL(\'static/img\',\'database_delete.png\'), _alt="Eliminar", ),\t\n\t\t\t\t\t\t\t\t\t_href=URL(\'delete/\'+str(elem.fc_cobro_det.id)+\'/\'+str(elid))  )\n\t\t\t\t\t\t\t\t\t ,  elem.fc_cobro_det.fecha,  elem.fc_forma_pago.nombre, elem.fc_banco.nombre[:25], elem.fc_cobro_det.monto)) \n\ttotal=0\n\tcobrado=0\n\trec = db(db.fc_cobro.id==elid).select()\n\tfor row in rec:\n\t\ttotal=row.total\n\t\n\trec = db(db.fc_cobro_det.fc_cobro_id==elid).select()\n\tfor row in rec:\n\t\tcobrado+=row.monto\n\t\n\tpie=[]\n\tpie.append((TD(),TD(),TD(\'Total Cobro: \'),TD(str(total))))\n\tpie.append((TD(),TD(),TD(\'Total Pagado: \'),TD(str(cobrado))))\n\tpie.append((TD(),TD(),TD(\'Diferencia: \'),TD(str(total-cobrado))))\t\n\ttabla=TABLE( TR(*header), TR(*listado) , TR(TD(HR(), _colspan=5)), *TR(pie) )\t\n\treturn tabla\n\ndef delete():\n\t if request.args(0):       \n\t\tdb(db.fc_cobro_det.id == request.args(0)).delete()\n\t\tredirect(URL(c=\'cobro\',  f=\'show_form/\'+request.args(1)+\'/True\'))\n\n\t\t#return show_detail(request.args(1))\n\ndef imprimir():\n\timport csv, time\n\tfrom gluon.contrib.pyfpdf import Template\n\timport os.path\n\timport sys\n\tes_para_guardar = False\n\tif request.args(0):\n\t\tdoc_id=request.args(0)\n\tif request.args(1):\n\t\tes_para_guardar = True \n\tdoc_record=db(db.fc_documento.id == request.args(0)).select()\n\tdoc_det_rec=db(db.fc_documento_det.fc_documento_id == request.args(0)).select(orderby=db.fc_documento_det.id)\n\temp_rec=db(db.cf_empresa.id == 1).select()\n\t#print emp_rec\n\tf = Template(format="A4",\n             title="Presupuesto", author="w.a",\n             subject="w.a", keywords="")\t\n\tif es_para_guardar:\n\t\tf.parse_csv(infile=request.folder+\'/static/rpt/presupuesto_save.csv\', delimiter=";", decimal_sep=",")\n\telse:\n\t\tf.parse_csv(infile=request.folder+\'/static/rpt/presupuesto.csv\', delimiter=";", decimal_sep=",")\n\n#\t # calculate pages:\n\tlines = len(doc_det_rec)\n\tmax_lines_per_page = 24\n\tpages = lines / (max_lines_per_page - 1)\n\tif lines % (max_lines_per_page - 1): pages = pages + 1\n#\n#    # fill placeholders for each page\n\tfor page in range(1, pages+1):\n\t\tf.add_page()\n\t\tf[\'page\'] = \'Page %s of %s\' % (page, pages)\n\t\tif pages>1 and page<pages:\n\t\t\ts = \'Continues on page %s\' % (page+1)\n\t\telse:\n\t\t\ts = \'\'\t\t\t\n# setting data from company\n\t\tfor row in emp_rec:\n\t\t\tf["EMPRESA"] = row.razon_social\n\t\t\tf["Logo"] = os.path.join(request.env.web2py_path,"applications","flota","uploads",row.ruta_foto) \n\t\t\tf["membrete1"] = \'Rif.:\'+row.rif +\'  -   Nit.: \'+row.nit\n\t\t\tf["membrete2"] = \'Tel.:\'+row.tlf +\'  -   Fax.: \'+row.fax\n\t\t\tf["iva"] = \'Email.:\'+row.email\n\n#data from document\n\t\tfor row in doc_record:\n\t\t\tf["numero"]\t= row.correlativo\n\t\t\tlafecha=row.fecha.strftime("%d/%m/%Y")\n\t\t\tf["Fecha.L"]\t= \'Fecha: \'+lafecha\t\t\t\n\t\t\tf["cliente.localidad.l"] = \'Contacto: \'\n\t\t\tf["cliente.localidad"] = row.contacto\n\t\t\tlafecha2=row.fecha_vencimiento.strftime("%d/%m/%Y")\n\t\t\tf["cuit"]\t= \'Fecha Vencimiento: \'+lafecha2\n\t\t\tf["vencimiento"] = \'\'\n\t\t\tf["vencimientol"] = \'\'\n\t\t\tf[\'PeriodoFacturadoL\']=\'\'\n\t\t\tf[\'Periodo.Hasta\']=\'\'\n\t\t\tf[\'Periodo.Desde\']=\'\'\t\n\t\t\tf[\'cae\']=\'\'\n\t\t\t#f[\'cae.l\']=\'\'\t\n\t\t\tf[\'cae.vencimiento\']=\'\'\n\t\t\tf[\'cae.vencimiento.l\']=\'\'\t\n\t\t\tf[\'codigobarras\']=str(row.id)+str(row.correlativo)\n\t\t\tf[\'codigobarraslegible\']=str(row.id)+str(row.correlativo)\n\t\t\tf[\'neto.L\']=\'Sub-Total\'\t\n\t\t\tf[\'iva.L\']=\'I.V.A. 12%\'\t\n\t\t\tnotainf=row.nota_detalle\n#data from client\n\t\t\tf["cliente.iva.l"] = \'\'\n\t\t\tf["cliente.cuit.l"] = \'\'\n\t\t\tclt_rec=db(db.cf_proveedor.id == row.cf_proveedor_id ).select()\n\t\t\tfor row in clt_rec:\n\t\t\t\tf["cliente.nombre"] = row.razon_social\n\t\t\t\tf["cliente.domicilio"] = row.direccion\n\t\t\t\tf["cliente.telefono"] = row.tlf + \'     Fax: \'+row.fax + \'        Email: \'+row.email\t\t\t\t\n\t\t# print line item...\n\t\tli = 0 \n\t\tk = 0\n\t\ttotal = float("0.00")\n\t\tfor row in doc_det_rec:\n\t\t\tk = k + 1\n\t\t\tif k > page * (max_lines_per_page - 1):\n\t\t\t\tbreak\n\t\t\tif row.importe:\n\t\t\t\ttotal += float("%.6f" % row.total)\n\t\t\tif k > (page - 1) * (max_lines_per_page - 1):\n\t\t\t\tli += 1                \n\t\t\t\tf[\'item.descripcion%02d\' % li] = row.descripcion\n\t\t\t\tif row.importe is not None:\n\t\t\t\t\tf[\'item.importe%02d\' % li] = "%0.2f" % row.total\n\t\t\t\tif row.cantidad is not None:\n\t\t\t\t\tf[\'item.cantidad%02d\' % li] = "%0.2f" % row.cantidad\n\t\t\t\t\n\t\t\t# ojo para la nota del detalle\n\t\t\t# split detail into each line description\n\t\t\t\tk=k+2\n\t\tif k > (page - 1) * (max_lines_per_page - 1):\n\t\t\tobs="\\n<U>Nota:</U>\\n\\n" + notainf\t\n\t\t\tfor ds in f.split_multicell(obs,\'item.descripcion%02d\' % k ):\n\t\t\t\tfor ml in ds.splitlines():\n\t\t\t\t\tf[\'item.descripcion%02d\' % k ] = ml\n\t\t\t\t\tk=k+1\n\t\t\n\tif pages == page:\n\t\t\tf[\'neto\'] = "%0.2f" % (total)\n            #f[\'vat\'] = "%0.2f" % (total*(1-1/float("1.12")))\n\t\t\tf[\'iva21\'] = float("0.00")\n\t\t\tf[\'total_label\'] = \'Total:\'\n        else:\n            f[\'total_label\'] = \'SubTotal:\'\n        f[\'total\'] = "%0.2f" % total\n\t\n\t\n\tif es_para_guardar:\n\t\tf.render("./presupuesto_"+doc_id+".pdf",dest=\'F\')\t\n\t\tif sys.platform.startswith("linux"):\t\n\t\t\t#print os.getcwd()\n\t\t\tos.system("evince ./presupuesto_"+doc_id+".pdf")\n\t\telse:\n\t\t\tos.system("./presupuesto_"+doc_id+".pdf")\n\t\tredirect(URL(c=\'presupuesto\',  f=\'email/\'+"presupuesto_"+doc_id+".pdf"))\t\n\telse:\n\t\tf.render("./presupuesto_"+doc_id+".pdf")\t\n\t\tif sys.platform.startswith("linux"):\t\n\t\t\t#print os.getcwd()\n\t\t\tos.system("evince ./presupuesto_"+doc_id+".pdf")\n\t\telse:\n\t\t\tos.system("./presupuesto_"+doc_id+".pdf")\n\t\tredirect(URL(c=\'presupuesto\',  f=\'index\'))\n\ndef email():\t\n\tif request.args(0):\n\t\tdocumento=request.args(0)\n\tform = SQLFORM.factory(\n\tField(\'Email_Destinatario\', requires=[IS_NOT_EMPTY(), IS_EMAIL() ]),\n\tField(\'Asunto\', requires=IS_NOT_EMPTY()), \n\tField(\'Mensaje\', requires=IS_NOT_EMPTY()), \t\t\n\t\t)\n\tmy_extra_element = TR(LABEL(\'Archivo a adjuntar\'), documento, INPUT(_type=\'hidden\',_name=\'documento\',_value=documento ) )\t\t                 \n\tform[0].insert(-1,my_extra_element)\n\t\n\tif form.process().accepted:\n\t\tresponse.flash = \'Mensaje Enviado\'\n\t\tmail.send(form.vars.Email_Destinatario,\n\t\t\t\t\tform.vars.Asunto,\n\t\t\t\t\'<html>\'+form.vars.Mensaje+\'</html>\',\n\t\t\t\tattachments = Mail.Attachment(form.vars.documento, content_id=\'documento\'))\t\t\n\telif form.errors:\n\t\tresponse.flash = \'Ha ocurrido un error\'\n\treturn dict(form=form)\n\ndef run():\n\tpass\n\ndef error():\n    return dict()\n\n\nresponse._vars=response._caller(index)\n'
p7
sS'snapshot'
p8
(dp9
S'exception'
p10
(dp11
S'__getslice__'
p12
S"<method-wrapper '__getslice__' of exceptions.SyntaxError object>"
p13
sS'text'
p14
S"'\\tif !sidx:\\n'"
p15
sS'__str__'
p16
S"<method-wrapper '__str__' of exceptions.SyntaxError object>"
p17
sS'__reduce__'
p18
S'<built-in method __reduce__ of exceptions.SyntaxError object>'
p19
sS'__dict__'
p20
S'{}'
p21
sS'__sizeof__'
p22
S'<built-in method __sizeof__ of exceptions.SyntaxError object>'
p23
sS'__init__'
p24
S"<method-wrapper '__init__' of exceptions.SyntaxError object>"
p25
sS'__setattr__'
p26
S"<method-wrapper '__setattr__' of exceptions.SyntaxError object>"
p27
sS'__reduce_ex__'
p28
S'<built-in method __reduce_ex__ of exceptions.SyntaxError object>'
p29
sS'__new__'
p30
S'<built-in method __new__ of type object>'
p31
sS'__format__'
p32
S'<built-in method __format__ of exceptions.SyntaxError object>'
p33
sS'__class__'
p34
S"<type 'exceptions.SyntaxError'>"
p35
sS'filename'
p36
S"'/home/wasuaje/Documentos/desarrollo/web2py5/applications/flota/controllers/cobro2.py'"
p37
sS'lineno'
p38
S'30'
p39
sS'msg'
p40
S"'invalid syntax'"
p41
sS'__doc__'
p42
S"'Invalid syntax.'"
p43
sS'__getitem__'
p44
S"<method-wrapper '__getitem__' of exceptions.SyntaxError object>"
p45
sS'__setstate__'
p46
S'<built-in method __setstate__ of exceptions.SyntaxError object>'
p47
sS'__getattribute__'
p48
S"<method-wrapper '__getattribute__' of exceptions.SyntaxError object>"
p49
sS'print_file_and_line'
p50
S'None'
p51
sS'args'
p52
S"('invalid syntax', ('/home/wasuaje/Documentos/desarrollo/web2py5/applications/flota/controllers/cobro2.py', 30, 5, '\\tif !sidx:\\n'))"
p53
sS'__subclasshook__'
p54
S'<built-in method __subclasshook__ of type object>'
p55
sS'offset'
p56
S'5'
sS'__unicode__'
p57
S'<built-in method __unicode__ of exceptions.SyntaxError object>'
p58
sS'__delattr__'
p59
S"<method-wrapper '__delattr__' of exceptions.SyntaxError object>"
p60
sS'__repr__'
p61
S"<method-wrapper '__repr__' of exceptions.SyntaxError object>"
p62
sS'__hash__'
p63
S"<method-wrapper '__hash__' of exceptions.SyntaxError object>"
p64
ssS'evalue'
p65
S'invalid syntax (cobro2.py, line 30)'
p66
sS'request'
p67
ccopy_reg
_reconstructor
p68
(cgluon.html
BEAUTIFY
p69
c__builtin__
object
p70
NtRp71
(dp72
S'attributes'
p73
(dp74
sS'components'
p75
(lp76
g68
(cgluon.html
TABLE
p77
g70
NtRp78
(dp79
g73
(dp80
S'level'
p81
I5
ssS'parent'
p82
Nsg75
(lp83
g68
(cgluon.html
TR
p84
g70
NtRp85
(dp86
g73
(dp87
sg82
g78
sg75
(lp88
g68
(cgluon.html
TD
p89
g70
NtRp90
(dp91
g73
(dp92
S'_style'
p93
S'font-weight:bold;vertical-align:top'
p94
ssg82
g85
sg75
(lp95
S'ajax'
p96
asbag68
(g89
g70
NtRp97
(dp98
g73
(dp99
S'_valign'
p100
S'top'
p101
ssg82
g85
sg75
(lp102
S':'
asbag68
(g89
g70
NtRp103
(dp104
g73
(dp105
sg82
g85
sg75
(lp106
g68
(g69
g70
NtRp107
(dp108
g73
(dp109
g81
I5
ssg82
g103
sg75
(lp110
S'False'
p111
asbasbasbag68
(g84
g70
NtRp112
(dp113
g73
(dp114
sg82
g78
sg75
(lp115
g68
(g89
g70
NtRp116
(dp117
g73
(dp118
g93
g94
ssg82
g112
sg75
(lp119
S'application'
p120
asbag68
(g89
g70
NtRp121
(dp122
g73
(dp123
g100
g101
ssg82
g112
sg75
(lp124
S':'
asbag68
(g89
g70
NtRp125
(dp126
g73
(dp127
sg82
g112
sg75
(lp128
g68
(g69
g70
NtRp129
(dp130
g73
(dp131
g81
I5
ssg82
g125
sg75
(lp132
S'flota'
p133
asbasbasbag68
(g84
g70
NtRp134
(dp135
g73
(dp136
sg82
g78
sg75
(lp137
g68
(g89
g70
NtRp138
(dp139
g73
(dp140
g93
g94
ssg82
g134
sg75
(lp141
g52
asbag68
(g89
g70
NtRp142
(dp143
g73
(dp144
g100
g101
ssg82
g134
sg75
(lp145
S':'
asbag68
(g89
g70
NtRp146
(dp147
g73
(dp148
sg82
g134
sg75
(lp149
g68
(g69
g70
NtRp150
(dp151
g73
(dp152
g81
I5
ssg82
g146
sg75
(lp153
g68
(g77
g70
NtRp154
(dp155
g73
(dp156
g81
I4
ssg82
Nsg75
(lp157
sbasbasbasbag68
(g84
g70
NtRp158
(dp159
g73
(dp160
sg82
g78
sg75
(lp161
g68
(g89
g70
NtRp162
(dp163
g73
(dp164
g93
g94
ssg82
g158
sg75
(lp165
S'body'
p166
asbag68
(g89
g70
NtRp167
(dp168
g73
(dp169
g100
g101
ssg82
g158
sg75
(lp170
S':'
asbag68
(g89
g70
NtRp171
(dp172
g73
(dp173
sg82
g158
sg75
(lp174
g68
(g69
g70
NtRp175
(dp176
g73
(dp177
g81
I5
ssg82
g171
sg75
(lp178
S'<cStringIO.StringO object at 0xaca7aa80>'
p179
asbasbasbag68
(g84
g70
NtRp180
(dp181
g73
(dp182
sg82
g78
sg75
(lp183
g68
(g89
g70
NtRp184
(dp185
g73
(dp186
g93
g94
ssg82
g180
sg75
(lp187
S'cid'
p188
asbag68
(g89
g70
NtRp189
(dp190
g73
(dp191
g100
g101
ssg82
g180
sg75
(lp192
S':'
asbag68
(g89
g70
NtRp193
(dp194
g73
(dp195
sg82
g180
sg75
(lp196
g68
(g69
g70
NtRp197
(dp198
g73
(dp199
g81
I5
ssg82
g193
sg75
(lp200
S'None'
p201
asbasbasbag68
(g84
g70
NtRp202
(dp203
g73
(dp204
sg82
g78
sg75
(lp205
g68
(g89
g70
NtRp206
(dp207
g73
(dp208
g93
g94
ssg82
g202
sg75
(lp209
S'client'
p210
asbag68
(g89
g70
NtRp211
(dp212
g73
(dp213
g100
g101
ssg82
g202
sg75
(lp214
S':'
asbag68
(g89
g70
NtRp215
(dp216
g73
(dp217
sg82
g202
sg75
(lp218
g68
(g69
g70
NtRp219
(dp220
g73
(dp221
g81
I5
ssg82
g215
sg75
(lp222
S'127.0.0.1'
p223
asbasbasbag68
(g84
g70
NtRp224
(dp225
g73
(dp226
sg82
g78
sg75
(lp227
g68
(g89
g70
NtRp228
(dp229
g73
(dp230
g93
g94
ssg82
g224
sg75
(lp231
S'controller'
p232
asbag68
(g89
g70
NtRp233
(dp234
g73
(dp235
g100
g101
ssg82
g224
sg75
(lp236
S':'
asbag68
(g89
g70
NtRp237
(dp238
g73
(dp239
sg82
g224
sg75
(lp240
g68
(g69
g70
NtRp241
(dp242
g73
(dp243
g81
I5
ssg82
g237
sg75
(lp244
S'cobro2'
p245
asbasbasbag68
(g84
g70
NtRp246
(dp247
g73
(dp248
sg82
g78
sg75
(lp249
g68
(g89
g70
NtRp250
(dp251
g73
(dp252
g93
g94
ssg82
g246
sg75
(lp253
S'cookies'
p254
asbag68
(g89
g70
NtRp255
(dp256
g73
(dp257
g100
g101
ssg82
g246
sg75
(lp258
S':'
asbag68
(g89
g70
NtRp259
(dp260
g73
(dp261
sg82
g246
sg75
(lp262
g68
(g69
g70
NtRp263
(dp264
g73
(dp265
g81
I5
ssg82
g259
sg75
(lp266
g68
(g77
g70
NtRp267
(dp268
g73
(dp269
g81
I4
ssg82
Nsg75
(lp270
g68
(g84
g70
NtRp271
(dp272
g73
(dp273
sg82
g267
sg75
(lp274
g68
(g89
g70
NtRp275
(dp276
g73
(dp277
g93
g94
ssg82
g271
sg75
(lp278
S'session_id_flota'
p279
asbag68
(g89
g70
NtRp280
(dp281
g73
(dp282
g100
g101
ssg82
g271
sg75
(lp283
S':'
asbag68
(g89
g70
NtRp284
(dp285
g73
(dp286
sg82
g271
sg75
(lp287
g68
(g69
g70
NtRp288
(dp289
g73
(dp290
g81
I4
ssg82
g284
sg75
(lp291
S'127.0.0.1-227c1349-b88e-4bb4-bbe8-d48810186339'
p292
ag68
(g77
g70
NtRp293
(dp294
g73
(dp295
g81
I3
ssg82
Nsg75
(lp296
g68
(g84
g70
NtRp297
(dp298
g73
(dp299
sg82
g293
sg75
(lp300
g68
(g89
g70
NtRp301
(dp302
g73
(dp303
g93
g94
ssg82
g297
sg75
(lp304
S'comment'
p305
asbag68
(g89
g70
NtRp306
(dp307
g73
(dp308
g100
g101
ssg82
g297
sg75
(lp309
S':'
asbag68
(g89
g70
NtRp310
(dp311
g73
(dp312
sg82
g297
sg75
(lp313
g68
(g69
g70
NtRp314
(dp315
g73
(dp316
g81
I3
ssg82
g310
sg75
(lp317
S''
asbasbasbag68
(g84
g70
NtRp318
(dp319
g73
(dp320
sg82
g293
sg75
(lp321
g68
(g89
g70
NtRp322
(dp323
g73
(dp324
g93
g94
ssg82
g318
sg75
(lp325
S'domain'
p326
asbag68
(g89
g70
NtRp327
(dp328
g73
(dp329
g100
g101
ssg82
g318
sg75
(lp330
S':'
asbag68
(g89
g70
NtRp331
(dp332
g73
(dp333
sg82
g318
sg75
(lp334
g68
(g69
g70
NtRp335
(dp336
g73
(dp337
g81
I3
ssg82
g331
sg75
(lp338
S''
asbasbasbag68
(g84
g70
NtRp339
(dp340
g73
(dp341
sg82
g293
sg75
(lp342
g68
(g89
g70
NtRp343
(dp344
g73
(dp345
g93
g94
ssg82
g339
sg75
(lp346
S'expires'
p347
asbag68
(g89
g70
NtRp348
(dp349
g73
(dp350
g100
g101
ssg82
g339
sg75
(lp351
S':'
asbag68
(g89
g70
NtRp352
(dp353
g73
(dp354
sg82
g339
sg75
(lp355
g68
(g69
g70
NtRp356
(dp357
g73
(dp358
g81
I3
ssg82
g352
sg75
(lp359
S''
asbasbasbag68
(g84
g70
NtRp360
(dp361
g73
(dp362
sg82
g293
sg75
(lp363
g68
(g89
g70
NtRp364
(dp365
g73
(dp366
g93
g94
ssg82
g360
sg75
(lp367
S'httponly'
p368
asbag68
(g89
g70
NtRp369
(dp370
g73
(dp371
g100
g101
ssg82
g360
sg75
(lp372
S':'
asbag68
(g89
g70
NtRp373
(dp374
g73
(dp375
sg82
g360
sg75
(lp376
g68
(g69
g70
NtRp377
(dp378
g73
(dp379
g81
I3
ssg82
g373
sg75
(lp380
S''
asbasbasbag68
(g84
g70
NtRp381
(dp382
g73
(dp383
sg82
g293
sg75
(lp384
g68
(g89
g70
NtRp385
(dp386
g73
(dp387
g93
g94
ssg82
g381
sg75
(lp388
S'max-age'
p389
asbag68
(g89
g70
NtRp390
(dp391
g73
(dp392
g100
g101
ssg82
g381
sg75
(lp393
S':'
asbag68
(g89
g70
NtRp394
(dp395
g73
(dp396
sg82
g381
sg75
(lp397
g68
(g69
g70
NtRp398
(dp399
g73
(dp400
g81
I3
ssg82
g394
sg75
(lp401
S''
asbasbasbag68
(g84
g70
NtRp402
(dp403
g73
(dp404
sg82
g293
sg75
(lp405
g68
(g89
g70
NtRp406
(dp407
g73
(dp408
g93
g94
ssg82
g402
sg75
(lp409
S'path'
p410
asbag68
(g89
g70
NtRp411
(dp412
g73
(dp413
g100
g101
ssg82
g402
sg75
(lp414
S':'
asbag68
(g89
g70
NtRp415
(dp416
g73
(dp417
sg82
g402
sg75
(lp418
g68
(g69
g70
NtRp419
(dp420
g73
(dp421
g81
I3
ssg82
g415
sg75
(lp422
S''
asbasbasbag68
(g84
g70
NtRp423
(dp424
g73
(dp425
sg82
g293
sg75
(lp426
g68
(g89
g70
NtRp427
(dp428
g73
(dp429
g93
g94
ssg82
g423
sg75
(lp430
S'secure'
p431
asbag68
(g89
g70
NtRp432
(dp433
g73
(dp434
g100
g101
ssg82
g423
sg75
(lp435
S':'
asbag68
(g89
g70
NtRp436
(dp437
g73
(dp438
sg82
g423
sg75
(lp439
g68
(g69
g70
NtRp440
(dp441
g73
(dp442
g81
I3
ssg82
g436
sg75
(lp443
S''
asbasbasbag68
(g84
g70
NtRp444
(dp445
g73
(dp446
sg82
g293
sg75
(lp447
g68
(g89
g70
NtRp448
(dp449
g73
(dp450
g93
g94
ssg82
g444
sg75
(lp451
S'version'
p452
asbag68
(g89
g70
NtRp453
(dp454
g73
(dp455
g100
g101
ssg82
g444
sg75
(lp456
S':'
asbag68
(g89
g70
NtRp457
(dp458
g73
(dp459
sg82
g444
sg75
(lp460
g68
(g69
g70
NtRp461
(dp462
g73
(dp463
g81
I3
ssg82
g457
sg75
(lp464
S''
asbasbasbasbasbasbasbag68
(g84
g70
NtRp465
(dp466
g73
(dp467
sg82
g267
sg75
(lp468
g68
(g89
g70
NtRp469
(dp470
g73
(dp471
g93
g94
ssg82
g465
sg75
(lp472
S'session_id_pyrest'
p473
asbag68
(g89
g70
NtRp474
(dp475
g73
(dp476
g100
g101
ssg82
g465
sg75
(lp477
S':'
asbag68
(g89
g70
NtRp478
(dp479
g73
(dp480
sg82
g465
sg75
(lp481
g68
(g69
g70
NtRp482
(dp483
g73
(dp484
g81
I4
ssg82
g478
sg75
(lp485
S'127.0.0.1-53c01190-3535-48f0-b74f-d080b30c3715'
p486
ag68
(g77
g70
NtRp487
(dp488
g73
(dp489
g81
I3
ssg82
Nsg75
(lp490
g68
(g84
g70
NtRp491
(dp492
g73
(dp493
sg82
g487
sg75
(lp494
g68
(g89
g70
NtRp495
(dp496
g73
(dp497
g93
g94
ssg82
g491
sg75
(lp498
g305
asbag68
(g89
g70
NtRp499
(dp500
g73
(dp501
g100
g101
ssg82
g491
sg75
(lp502
S':'
asbag68
(g89
g70
NtRp503
(dp504
g73
(dp505
sg82
g491
sg75
(lp506
g68
(g69
g70
NtRp507
(dp508
g73
(dp509
g81
I3
ssg82
g503
sg75
(lp510
S''
asbasbasbag68
(g84
g70
NtRp511
(dp512
g73
(dp513
sg82
g487
sg75
(lp514
g68
(g89
g70
NtRp515
(dp516
g73
(dp517
g93
g94
ssg82
g511
sg75
(lp518
g326
asbag68
(g89
g70
NtRp519
(dp520
g73
(dp521
g100
g101
ssg82
g511
sg75
(lp522
S':'
asbag68
(g89
g70
NtRp523
(dp524
g73
(dp525
sg82
g511
sg75
(lp526
g68
(g69
g70
NtRp527
(dp528
g73
(dp529
g81
I3
ssg82
g523
sg75
(lp530
S''
asbasbasbag68
(g84
g70
NtRp531
(dp532
g73
(dp533
sg82
g487
sg75
(lp534
g68
(g89
g70
NtRp535
(dp536
g73
(dp537
g93
g94
ssg82
g531
sg75
(lp538
g347
asbag68
(g89
g70
NtRp539
(dp540
g73
(dp541
g100
g101
ssg82
g531
sg75
(lp542
S':'
asbag68
(g89
g70
NtRp543
(dp544
g73
(dp545
sg82
g531
sg75
(lp546
g68
(g69
g70
NtRp547
(dp548
g73
(dp549
g81
I3
ssg82
g543
sg75
(lp550
S''
asbasbasbag68
(g84
g70
NtRp551
(dp552
g73
(dp553
sg82
g487
sg75
(lp554
g68
(g89
g70
NtRp555
(dp556
g73
(dp557
g93
g94
ssg82
g551
sg75
(lp558
g368
asbag68
(g89
g70
NtRp559
(dp560
g73
(dp561
g100
g101
ssg82
g551
sg75
(lp562
S':'
asbag68
(g89
g70
NtRp563
(dp564
g73
(dp565
sg82
g551
sg75
(lp566
g68
(g69
g70
NtRp567
(dp568
g73
(dp569
g81
I3
ssg82
g563
sg75
(lp570
S''
asbasbasbag68
(g84
g70
NtRp571
(dp572
g73
(dp573
sg82
g487
sg75
(lp574
g68
(g89
g70
NtRp575
(dp576
g73
(dp577
g93
g94
ssg82
g571
sg75
(lp578
g389
asbag68
(g89
g70
NtRp579
(dp580
g73
(dp581
g100
g101
ssg82
g571
sg75
(lp582
S':'
asbag68
(g89
g70
NtRp583
(dp584
g73
(dp585
sg82
g571
sg75
(lp586
g68
(g69
g70
NtRp587
(dp588
g73
(dp589
g81
I3
ssg82
g583
sg75
(lp590
S''
asbasbasbag68
(g84
g70
NtRp591
(dp592
g73
(dp593
sg82
g487
sg75
(lp594
g68
(g89
g70
NtRp595
(dp596
g73
(dp597
g93
g94
ssg82
g591
sg75
(lp598
g410
asbag68
(g89
g70
NtRp599
(dp600
g73
(dp601
g100
g101
ssg82
g591
sg75
(lp602
S':'
asbag68
(g89
g70
NtRp603
(dp604
g73
(dp605
sg82
g591
sg75
(lp606
g68
(g69
g70
NtRp607
(dp608
g73
(dp609
g81
I3
ssg82
g603
sg75
(lp610
S''
asbasbasbag68
(g84
g70
NtRp611
(dp612
g73
(dp613
sg82
g487
sg75
(lp614
g68
(g89
g70
NtRp615
(dp616
g73
(dp617
g93
g94
ssg82
g611
sg75
(lp618
g431
asbag68
(g89
g70
NtRp619
(dp620
g73
(dp621
g100
g101
ssg82
g611
sg75
(lp622
S':'
asbag68
(g89
g70
NtRp623
(dp624
g73
(dp625
sg82
g611
sg75
(lp626
g68
(g69
g70
NtRp627
(dp628
g73
(dp629
g81
I3
ssg82
g623
sg75
(lp630
S''
asbasbasbag68
(g84
g70
NtRp631
(dp632
g73
(dp633
sg82
g487
sg75
(lp634
g68
(g89
g70
NtRp635
(dp636
g73
(dp637
g93
g94
ssg82
g631
sg75
(lp638
g452
asbag68
(g89
g70
NtRp639
(dp640
g73
(dp641
g100
g101
ssg82
g631
sg75
(lp642
S':'
asbag68
(g89
g70
NtRp643
(dp644
g73
(dp645
sg82
g631
sg75
(lp646
g68
(g69
g70
NtRp647
(dp648
g73
(dp649
g81
I3
ssg82
g643
sg75
(lp650
S''
asbasbasbasbasbasbasbag68
(g84
g70
NtRp651
(dp652
g73
(dp653
sg82
g267
sg75
(lp654
g68
(g89
g70
NtRp655
(dp656
g73
(dp657
g93
g94
ssg82
g651
sg75
(lp658
S'session_id_welcome'
p659
asbag68
(g89
g70
NtRp660
(dp661
g73
(dp662
g100
g101
ssg82
g651
sg75
(lp663
S':'
asbag68
(g89
g70
NtRp664
(dp665
g73
(dp666
sg82
g651
sg75
(lp667
g68
(g69
g70
NtRp668
(dp669
g73
(dp670
g81
I4
ssg82
g664
sg75
(lp671
S'127.0.0.1-d847b807-40db-44a0-b80c-192c99a4297a'
p672
ag68
(g77
g70
NtRp673
(dp674
g73
(dp675
g81
I3
ssg82
Nsg75
(lp676
g68
(g84
g70
NtRp677
(dp678
g73
(dp679
sg82
g673
sg75
(lp680
g68
(g89
g70
NtRp681
(dp682
g73
(dp683
g93
g94
ssg82
g677
sg75
(lp684
g305
asbag68
(g89
g70
NtRp685
(dp686
g73
(dp687
g100
g101
ssg82
g677
sg75
(lp688
S':'
asbag68
(g89
g70
NtRp689
(dp690
g73
(dp691
sg82
g677
sg75
(lp692
g68
(g69
g70
NtRp693
(dp694
g73
(dp695
g81
I3
ssg82
g689
sg75
(lp696
S''
asbasbasbag68
(g84
g70
NtRp697
(dp698
g73
(dp699
sg82
g673
sg75
(lp700
g68
(g89
g70
NtRp701
(dp702
g73
(dp703
g93
g94
ssg82
g697
sg75
(lp704
g326
asbag68
(g89
g70
NtRp705
(dp706
g73
(dp707
g100
g101
ssg82
g697
sg75
(lp708
S':'
asbag68
(g89
g70
NtRp709
(dp710
g73
(dp711
sg82
g697
sg75
(lp712
g68
(g69
g70
NtRp713
(dp714
g73
(dp715
g81
I3
ssg82
g709
sg75
(lp716
S''
asbasbasbag68
(g84
g70
NtRp717
(dp718
g73
(dp719
sg82
g673
sg75
(lp720
g68
(g89
g70
NtRp721
(dp722
g73
(dp723
g93
g94
ssg82
g717
sg75
(lp724
g347
asbag68
(g89
g70
NtRp725
(dp726
g73
(dp727
g100
g101
ssg82
g717
sg75
(lp728
S':'
asbag68
(g89
g70
NtRp729
(dp730
g73
(dp731
sg82
g717
sg75
(lp732
g68
(g69
g70
NtRp733
(dp734
g73
(dp735
g81
I3
ssg82
g729
sg75
(lp736
S''
asbasbasbag68
(g84
g70
NtRp737
(dp738
g73
(dp739
sg82
g673
sg75
(lp740
g68
(g89
g70
NtRp741
(dp742
g73
(dp743
g93
g94
ssg82
g737
sg75
(lp744
g368
asbag68
(g89
g70
NtRp745
(dp746
g73
(dp747
g100
g101
ssg82
g737
sg75
(lp748
S':'
asbag68
(g89
g70
NtRp749
(dp750
g73
(dp751
sg82
g737
sg75
(lp752
g68
(g69
g70
NtRp753
(dp754
g73
(dp755
g81
I3
ssg82
g749
sg75
(lp756
S''
asbasbasbag68
(g84
g70
NtRp757
(dp758
g73
(dp759
sg82
g673
sg75
(lp760
g68
(g89
g70
NtRp761
(dp762
g73
(dp763
g93
g94
ssg82
g757
sg75
(lp764
g389
asbag68
(g89
g70
NtRp765
(dp766
g73
(dp767
g100
g101
ssg82
g757
sg75
(lp768
S':'
asbag68
(g89
g70
NtRp769
(dp770
g73
(dp771
sg82
g757
sg75
(lp772
g68
(g69
g70
NtRp773
(dp774
g73
(dp775
g81
I3
ssg82
g769
sg75
(lp776
S''
asbasbasbag68
(g84
g70
NtRp777
(dp778
g73
(dp779
sg82
g673
sg75
(lp780
g68
(g89
g70
NtRp781
(dp782
g73
(dp783
g93
g94
ssg82
g777
sg75
(lp784
g410
asbag68
(g89
g70
NtRp785
(dp786
g73
(dp787
g100
g101
ssg82
g777
sg75
(lp788
S':'
asbag68
(g89
g70
NtRp789
(dp790
g73
(dp791
sg82
g777
sg75
(lp792
g68
(g69
g70
NtRp793
(dp794
g73
(dp795
g81
I3
ssg82
g789
sg75
(lp796
S''
asbasbasbag68
(g84
g70
NtRp797
(dp798
g73
(dp799
sg82
g673
sg75
(lp800
g68
(g89
g70
NtRp801
(dp802
g73
(dp803
g93
g94
ssg82
g797
sg75
(lp804
g431
asbag68
(g89
g70
NtRp805
(dp806
g73
(dp807
g100
g101
ssg82
g797
sg75
(lp808
S':'
asbag68
(g89
g70
NtRp809
(dp810
g73
(dp811
sg82
g797
sg75
(lp812
g68
(g69
g70
NtRp813
(dp814
g73
(dp815
g81
I3
ssg82
g809
sg75
(lp816
S''
asbasbasbag68
(g84
g70
NtRp817
(dp818
g73
(dp819
sg82
g673
sg75
(lp820
g68
(g89
g70
NtRp821
(dp822
g73
(dp823
g93
g94
ssg82
g817
sg75
(lp824
g452
asbag68
(g89
g70
NtRp825
(dp826
g73
(dp827
g100
g101
ssg82
g817
sg75
(lp828
S':'
asbag68
(g89
g70
NtRp829
(dp830
g73
(dp831
sg82
g817
sg75
(lp832
g68
(g69
g70
NtRp833
(dp834
g73
(dp835
g81
I3
ssg82
g829
sg75
(lp836
S''
asbasbasbasbasbasbasbasbasbasbasbag68
(g84
g70
NtRp837
(dp838
g73
(dp839
sg82
g78
sg75
(lp840
g68
(g89
g70
NtRp841
(dp842
g73
(dp843
g93
g94
ssg82
g837
sg75
(lp844
S'env'
p845
asbag68
(g89
g70
NtRp846
(dp847
g73
(dp848
g100
g101
ssg82
g837
sg75
(lp849
S':'
asbag68
(g89
g70
NtRp850
(dp851
g73
(dp852
sg82
g837
sg75
(lp853
g68
(g69
g70
NtRp854
(dp855
g73
(dp856
g81
I5
ssg82
g850
sg75
(lp857
g68
(g77
g70
NtRp858
(dp859
g73
(dp860
g81
I4
ssg82
Nsg75
(lp861
g68
(g84
g70
NtRp862
(dp863
g73
(dp864
sg82
g858
sg75
(lp865
g68
(g89
g70
NtRp866
(dp867
g73
(dp868
g93
g94
ssg82
g862
sg75
(lp869
S'app_folders'
p870
asbag68
(g89
g70
NtRp871
(dp872
g73
(dp873
g100
g101
ssg82
g862
sg75
(lp874
S':'
asbag68
(g89
g70
NtRp875
(dp876
g73
(dp877
sg82
g862
sg75
(lp878
g68
(g69
g70
NtRp879
(dp880
g73
(dp881
g81
I4
ssg82
g875
sg75
(lp882
S"set(['/home/wasuaje/Documentos/desarrollo/web2py5/applications/welcome/', '/home/wasuaje/Documentos/desarrollo/web2py5/applications/PyRest/', '/home/wasuaje/Documentos/desarrollo/web2py5/applications/flota/'])"
p883
asbasbasbag68
(g84
g70
NtRp884
(dp885
g73
(dp886
sg82
g858
sg75
(lp887
g68
(g89
g70
NtRp888
(dp889
g73
(dp890
g93
g94
ssg82
g884
sg75
(lp891
S'applications_parent'
p892
asbag68
(g89
g70
NtRp893
(dp894
g73
(dp895
g100
g101
ssg82
g884
sg75
(lp896
S':'
asbag68
(g89
g70
NtRp897
(dp898
g73
(dp899
sg82
g884
sg75
(lp900
g68
(g69
g70
NtRp901
(dp902
g73
(dp903
g81
I4
ssg82
g897
sg75
(lp904
S'/home/wasuaje/Documentos/desarrollo/web2py5'
p905
asbasbasbag68
(g84
g70
NtRp906
(dp907
g73
(dp908
sg82
g858
sg75
(lp909
g68
(g89
g70
NtRp910
(dp911
g73
(dp912
g93
g94
ssg82
g906
sg75
(lp913
S'cmd_args'
p914
asbag68
(g89
g70
NtRp915
(dp916
g73
(dp917
g100
g101
ssg82
g906
sg75
(lp918
S':'
asbag68
(g89
g70
NtRp919
(dp920
g73
(dp921
sg82
g906
sg75
(lp922
g68
(g69
g70
NtRp923
(dp924
g73
(dp925
g81
I4
ssg82
g919
sg75
(lp926
g68
(g77
g70
NtRp927
(dp928
g73
(dp929
g81
I3
ssg82
Nsg75
(lp930
sbasbasbasbag68
(g84
g70
NtRp931
(dp932
g73
(dp933
sg82
g858
sg75
(lp934
g68
(g89
g70
NtRp935
(dp936
g73
(dp937
g93
g94
ssg82
g931
sg75
(lp938
S'cmd_options'
p939
asbag68
(g89
g70
NtRp940
(dp941
g73
(dp942
g100
g101
ssg82
g931
sg75
(lp943
S':'
asbag68
(g89
g70
NtRp944
(dp945
g73
(dp946
sg82
g931
sg75
(lp947
g68
(g69
g70
NtRp948
(dp949
g73
(dp950
g81
I4
ssg82
g944
sg75
(lp951
S"<Values at 0x8ad70ec: {'verbose': False, 'ip': '127.0.0.1', 'with_scheduler': False, 'ips': [], 'shutdown_timeout': 5, 'taskbar': False, 'port': 8000, 'maxthreads': None, 'softcron': False, 'server_name': 'wasuaje-desktop', 'bpython': False, 'nogui': False, 'pid_filename': 'httpserver.pid', 'extcron': False, 'runcron': False, 'run_system_tests': False, 'test': None, 'folder': '/home/wasuaje/Documentos/desarrollo/web2py5', 'config': '', 'import_models': False, 'winservice': '', 'shell': None, 'run': '', 'log_filename': 'httpserver.log', 'debuglevel': 30, 'args': [''], 'socket_timeout': 5, 'ssl_ca_certificate': None, 'scheduler': None, 'profiler_filename': None, 'ssl_private_key': '', 'scheduler_groups': None, 'password': '<ask>', 'request_queue_size': 5, 'ssl_certificate': '', 'cronjob': False, 'numthreads': None, 'quiet': False, 'interfaces': None, 'minthreads': None, 'timeout': 10, 'plain': False, 'nobanner': False}>"
p952
asbasbasbag68
(g84
g70
NtRp953
(dp954
g73
(dp955
sg82
g858
sg75
(lp956
g68
(g89
g70
NtRp957
(dp958
g73
(dp959
g93
g94
ssg82
g953
sg75
(lp960
S'db_sessions'
p961
asbag68
(g89
g70
NtRp962
(dp963
g73
(dp964
g100
g101
ssg82
g953
sg75
(lp965
S':'
asbag68
(g89
g70
NtRp966
(dp967
g73
(dp968
sg82
g953
sg75
(lp969
g68
(g69
g70
NtRp970
(dp971
g73
(dp972
g81
I4
ssg82
g966
sg75
(lp973
S'set([])'
p974
asbasbasbag68
(g84
g70
NtRp975
(dp976
g73
(dp977
sg82
g858
sg75
(lp978
g68
(g89
g70
NtRp979
(dp980
g73
(dp981
g93
g94
ssg82
g975
sg75
(lp982
S'debugging'
p983
asbag68
(g89
g70
NtRp984
(dp985
g73
(dp986
g100
g101
ssg82
g975
sg75
(lp987
S':'
asbag68
(g89
g70
NtRp988
(dp989
g73
(dp990
sg82
g975
sg75
(lp991
g68
(g69
g70
NtRp992
(dp993
g73
(dp994
g81
I4
ssg82
g988
sg75
(lp995
g111
asbasbasbag68
(g84
g70
NtRp996
(dp997
g73
(dp998
sg82
g858
sg75
(lp999
g68
(g89
g70
NtRp1000
(dp1001
g73
(dp1002
g93
g94
ssg82
g996
sg75
(lp1003
S'gluon_parent'
p1004
asbag68
(g89
g70
NtRp1005
(dp1006
g73
(dp1007
g100
g101
ssg82
g996
sg75
(lp1008
S':'
asbag68
(g89
g70
NtRp1009
(dp1010
g73
(dp1011
sg82
g996
sg75
(lp1012
g68
(g69
g70
NtRp1013
(dp1014
g73
(dp1015
g81
I4
ssg82
g1009
sg75
(lp1016
S'/home/wasuaje/Documentos/desarrollo/web2py5'
p1017
asbasbasbag68
(g84
g70
NtRp1018
(dp1019
g73
(dp1020
sg82
g858
sg75
(lp1021
g68
(g89
g70
NtRp1022
(dp1023
g73
(dp1024
g93
g94
ssg82
g1018
sg75
(lp1025
S'http_accept'
p1026
asbag68
(g89
g70
NtRp1027
(dp1028
g73
(dp1029
g100
g101
ssg82
g1018
sg75
(lp1030
S':'
asbag68
(g89
g70
NtRp1031
(dp1032
g73
(dp1033
sg82
g1018
sg75
(lp1034
g68
(g69
g70
NtRp1035
(dp1036
g73
(dp1037
g81
I4
ssg82
g1031
sg75
(lp1038
S'text/html,application/xhtml+xml,application/xml;q=0.9,*/*;q=0.8'
p1039
asbasbasbag68
(g84
g70
NtRp1040
(dp1041
g73
(dp1042
sg82
g858
sg75
(lp1043
g68
(g89
g70
NtRp1044
(dp1045
g73
(dp1046
g93
g94
ssg82
g1040
sg75
(lp1047
S'http_accept_encoding'
p1048
asbag68
(g89
g70
NtRp1049
(dp1050
g73
(dp1051
g100
g101
ssg82
g1040
sg75
(lp1052
S':'
asbag68
(g89
g70
NtRp1053
(dp1054
g73
(dp1055
sg82
g1040
sg75
(lp1056
g68
(g69
g70
NtRp1057
(dp1058
g73
(dp1059
g81
I4
ssg82
g1053
sg75
(lp1060
S'gzip, deflate'
p1061
asbasbasbag68
(g84
g70
NtRp1062
(dp1063
g73
(dp1064
sg82
g858
sg75
(lp1065
g68
(g89
g70
NtRp1066
(dp1067
g73
(dp1068
g93
g94
ssg82
g1062
sg75
(lp1069
S'http_accept_language'
p1070
asbag68
(g89
g70
NtRp1071
(dp1072
g73
(dp1073
g100
g101
ssg82
g1062
sg75
(lp1074
S':'
asbag68
(g89
g70
NtRp1075
(dp1076
g73
(dp1077
sg82
g1062
sg75
(lp1078
g68
(g69
g70
NtRp1079
(dp1080
g73
(dp1081
g81
I4
ssg82
g1075
sg75
(lp1082
S'es-MX,es-ES;q=0.8,es-AR;q=0.7,es;q=0.5,en-US;q=0.3,en;q=0.2'
p1083
asbasbasbag68
(g84
g70
NtRp1084
(dp1085
g73
(dp1086
sg82
g858
sg75
(lp1087
g68
(g89
g70
NtRp1088
(dp1089
g73
(dp1090
g93
g94
ssg82
g1084
sg75
(lp1091
S'http_cache_control'
p1092
asbag68
(g89
g70
NtRp1093
(dp1094
g73
(dp1095
g100
g101
ssg82
g1084
sg75
(lp1096
S':'
asbag68
(g89
g70
NtRp1097
(dp1098
g73
(dp1099
sg82
g1084
sg75
(lp1100
g68
(g69
g70
NtRp1101
(dp1102
g73
(dp1103
g81
I4
ssg82
g1097
sg75
(lp1104
S'max-age=0'
p1105
asbasbasbag68
(g84
g70
NtRp1106
(dp1107
g73
(dp1108
sg82
g858
sg75
(lp1109
g68
(g89
g70
NtRp1110
(dp1111
g73
(dp1112
g93
g94
ssg82
g1106
sg75
(lp1113
S'http_connection'
p1114
asbag68
(g89
g70
NtRp1115
(dp1116
g73
(dp1117
g100
g101
ssg82
g1106
sg75
(lp1118
S':'
asbag68
(g89
g70
NtRp1119
(dp1120
g73
(dp1121
sg82
g1106
sg75
(lp1122
g68
(g69
g70
NtRp1123
(dp1124
g73
(dp1125
g81
I4
ssg82
g1119
sg75
(lp1126
S'keep-alive'
p1127
asbasbasbag68
(g84
g70
NtRp1128
(dp1129
g73
(dp1130
sg82
g858
sg75
(lp1131
g68
(g89
g70
NtRp1132
(dp1133
g73
(dp1134
g93
g94
ssg82
g1128
sg75
(lp1135
S'http_cookie'
p1136
asbag68
(g89
g70
NtRp1137
(dp1138
g73
(dp1139
g100
g101
ssg82
g1128
sg75
(lp1140
S':'
asbag68
(g89
g70
NtRp1141
(dp1142
g73
(dp1143
sg82
g1128
sg75
(lp1144
g68
(g69
g70
NtRp1145
(dp1146
g73
(dp1147
g81
I4
ssg82
g1141
sg75
(lp1148
S'session_id_welcome=127.0.0.1-d847b807-40db-44a0-b80c-192c99a4297a; session_id_pyrest=127.0.0.1-53c01190-3535-48f0-b74f-d080b30c3715; session_id_flota=127.0.0.1-227c1349-b88e-4bb4-bbe8-d48810186339'
p1149
asbasbasbag68
(g84
g70
NtRp1150
(dp1151
g73
(dp1152
sg82
g858
sg75
(lp1153
g68
(g89
g70
NtRp1154
(dp1155
g73
(dp1156
g93
g94
ssg82
g1150
sg75
(lp1157
S'http_host'
p1158
asbag68
(g89
g70
NtRp1159
(dp1160
g73
(dp1161
g100
g101
ssg82
g1150
sg75
(lp1162
S':'
asbag68
(g89
g70
NtRp1163
(dp1164
g73
(dp1165
sg82
g1150
sg75
(lp1166
g68
(g69
g70
NtRp1167
(dp1168
g73
(dp1169
g81
I4
ssg82
g1163
sg75
(lp1170
S'127.0.0.1:8000'
p1171
asbasbasbag68
(g84
g70
NtRp1172
(dp1173
g73
(dp1174
sg82
g858
sg75
(lp1175
g68
(g89
g70
NtRp1176
(dp1177
g73
(dp1178
g93
g94
ssg82
g1172
sg75
(lp1179
S'http_referer'
p1180
asbag68
(g89
g70
NtRp1181
(dp1182
g73
(dp1183
g100
g101
ssg82
g1172
sg75
(lp1184
S':'
asbag68
(g89
g70
NtRp1185
(dp1186
g73
(dp1187
sg82
g1172
sg75
(lp1188
g68
(g69
g70
NtRp1189
(dp1190
g73
(dp1191
g81
I4
ssg82
g1185
sg75
(lp1192
S'http://127.0.0.1:8000/flota/cobro2/'
p1193
asbasbasbag68
(g84
g70
NtRp1194
(dp1195
g73
(dp1196
sg82
g858
sg75
(lp1197
g68
(g89
g70
NtRp1198
(dp1199
g73
(dp1200
g93
g94
ssg82
g1194
sg75
(lp1201
S'http_user_agent'
p1202
asbag68
(g89
g70
NtRp1203
(dp1204
g73
(dp1205
g100
g101
ssg82
g1194
sg75
(lp1206
S':'
asbag68
(g89
g70
NtRp1207
(dp1208
g73
(dp1209
sg82
g1194
sg75
(lp1210
g68
(g69
g70
NtRp1211
(dp1212
g73
(dp1213
g81
I4
ssg82
g1207
sg75
(lp1214
S'Mozilla/5.0 (X11; Ubuntu; Linux i686; rv:18.0) Gecko/20100101 Firefox/18.0'
p1215
asbasbasbag68
(g84
g70
NtRp1216
(dp1217
g73
(dp1218
sg82
g858
sg75
(lp1219
g68
(g89
g70
NtRp1220
(dp1221
g73
(dp1222
g93
g94
ssg82
g1216
sg75
(lp1223
S'is_jython'
p1224
asbag68
(g89
g70
NtRp1225
(dp1226
g73
(dp1227
g100
g101
ssg82
g1216
sg75
(lp1228
S':'
asbag68
(g89
g70
NtRp1229
(dp1230
g73
(dp1231
sg82
g1216
sg75
(lp1232
g68
(g69
g70
NtRp1233
(dp1234
g73
(dp1235
g81
I4
ssg82
g1229
sg75
(lp1236
g111
asbasbasbag68
(g84
g70
NtRp1237
(dp1238
g73
(dp1239
sg82
g858
sg75
(lp1240
g68
(g89
g70
NtRp1241
(dp1242
g73
(dp1243
g93
g94
ssg82
g1237
sg75
(lp1244
S'is_pypy'
p1245
asbag68
(g89
g70
NtRp1246
(dp1247
g73
(dp1248
g100
g101
ssg82
g1237
sg75
(lp1249
S':'
asbag68
(g89
g70
NtRp1250
(dp1251
g73
(dp1252
sg82
g1237
sg75
(lp1253
g68
(g69
g70
NtRp1254
(dp1255
g73
(dp1256
g81
I4
ssg82
g1250
sg75
(lp1257
g111
asbasbasbag68
(g84
g70
NtRp1258
(dp1259
g73
(dp1260
sg82
g858
sg75
(lp1261
g68
(g89
g70
NtRp1262
(dp1263
g73
(dp1264
g93
g94
ssg82
g1258
sg75
(lp1265
S'local_hosts'
p1266
asbag68
(g89
g70
NtRp1267
(dp1268
g73
(dp1269
g100
g101
ssg82
g1258
sg75
(lp1270
S':'
asbag68
(g89
g70
NtRp1271
(dp1272
g73
(dp1273
sg82
g1258
sg75
(lp1274
g68
(g69
g70
NtRp1275
(dp1276
g73
(dp1277
g81
I4
ssg82
g1271
sg75
(lp1278
g68
(g77
g70
NtRp1279
(dp1280
g73
(dp1281
g81
I3
ssg82
Nsg75
(lp1282
g68
(g84
g70
NtRp1283
(dp1284
g73
(dp1285
sg82
g1279
sg75
(lp1286
g68
(g89
g70
NtRp1287
(dp1288
g73
(dp1289
sg82
g1283
sg75
(lp1290
g68
(g69
g70
NtRp1291
(dp1292
g73
(dp1293
g81
I3
ssg82
g1287
sg75
(lp1294
S'127.0.1.1'
p1295
asbasbasbag68
(g84
g70
NtRp1296
(dp1297
g73
(dp1298
sg82
g1279
sg75
(lp1299
g68
(g89
g70
NtRp1300
(dp1301
g73
(dp1302
sg82
g1296
sg75
(lp1303
g68
(g69
g70
NtRp1304
(dp1305
g73
(dp1306
g81
I3
ssg82
g1300
sg75
(lp1307
S'::1'
p1308
asbasbasbag68
(g84
g70
NtRp1309
(dp1310
g73
(dp1311
sg82
g1279
sg75
(lp1312
g68
(g89
g70
NtRp1313
(dp1314
g73
(dp1315
sg82
g1309
sg75
(lp1316
g68
(g69
g70
NtRp1317
(dp1318
g73
(dp1319
g81
I3
ssg82
g1313
sg75
(lp1320
S'wasuaje-desktop'
p1321
asbasbasbag68
(g84
g70
NtRp1322
(dp1323
g73
(dp1324
sg82
g1279
sg75
(lp1325
g68
(g89
g70
NtRp1326
(dp1327
g73
(dp1328
sg82
g1322
sg75
(lp1329
g68
(g69
g70
NtRp1330
(dp1331
g73
(dp1332
g81
I3
ssg82
g1326
sg75
(lp1333
S'::ffff:127.0.0.1'
p1334
asbasbasbag68
(g84
g70
NtRp1335
(dp1336
g73
(dp1337
sg82
g1279
sg75
(lp1338
g68
(g89
g70
NtRp1339
(dp1340
g73
(dp1341
sg82
g1335
sg75
(lp1342
g68
(g69
g70
NtRp1343
(dp1344
g73
(dp1345
g81
I3
ssg82
g1339
sg75
(lp1346
S'127.0.0.1'
p1347
asbasbasbasbasbasbasbag68
(g84
g70
NtRp1348
(dp1349
g73
(dp1350
sg82
g858
sg75
(lp1351
g68
(g89
g70
NtRp1352
(dp1353
g73
(dp1354
g93
g94
ssg82
g1348
sg75
(lp1355
S'path_info'
p1356
asbag68
(g89
g70
NtRp1357
(dp1358
g73
(dp1359
g100
g101
ssg82
g1348
sg75
(lp1360
S':'
asbag68
(g89
g70
NtRp1361
(dp1362
g73
(dp1363
sg82
g1348
sg75
(lp1364
g68
(g69
g70
NtRp1365
(dp1366
g73
(dp1367
g81
I4
ssg82
g1361
sg75
(lp1368
S'/flota/cobro2/'
p1369
asbasbasbag68
(g84
g70
NtRp1370
(dp1371
g73
(dp1372
sg82
g858
sg75
(lp1373
g68
(g89
g70
NtRp1374
(dp1375
g73
(dp1376
g93
g94
ssg82
g1370
sg75
(lp1377
S'query_string'
p1378
asbag68
(g89
g70
NtRp1379
(dp1380
g73
(dp1381
g100
g101
ssg82
g1370
sg75
(lp1382
S':'
asbag68
(g89
g70
NtRp1383
(dp1384
g73
(dp1385
sg82
g1370
sg75
(lp1386
g68
(g69
g70
NtRp1387
(dp1388
g73
(dp1389
g81
I4
ssg82
g1383
sg75
(lp1390
S''
asbasbasbag68
(g84
g70
NtRp1391
(dp1392
g73
(dp1393
sg82
g858
sg75
(lp1394
g68
(g89
g70
NtRp1395
(dp1396
g73
(dp1397
g93
g94
ssg82
g1391
sg75
(lp1398
S'remote_addr'
p1399
asbag68
(g89
g70
NtRp1400
(dp1401
g73
(dp1402
g100
g101
ssg82
g1391
sg75
(lp1403
S':'
asbag68
(g89
g70
NtRp1404
(dp1405
g73
(dp1406
sg82
g1391
sg75
(lp1407
g68
(g69
g70
NtRp1408
(dp1409
g73
(dp1410
g81
I4
ssg82
g1404
sg75
(lp1411
g223
asbasbasbag68
(g84
g70
NtRp1412
(dp1413
g73
(dp1414
sg82
g858
sg75
(lp1415
g68
(g89
g70
NtRp1416
(dp1417
g73
(dp1418
g93
g94
ssg82
g1412
sg75
(lp1419
S'remote_port'
p1420
asbag68
(g89
g70
NtRp1421
(dp1422
g73
(dp1423
g100
g101
ssg82
g1412
sg75
(lp1424
S':'
asbag68
(g89
g70
NtRp1425
(dp1426
g73
(dp1427
sg82
g1412
sg75
(lp1428
g68
(g69
g70
NtRp1429
(dp1430
g73
(dp1431
g81
I4
ssg82
g1425
sg75
(lp1432
S'36581'
p1433
asbasbasbag68
(g84
g70
NtRp1434
(dp1435
g73
(dp1436
sg82
g858
sg75
(lp1437
g68
(g89
g70
NtRp1438
(dp1439
g73
(dp1440
g93
g94
ssg82
g1434
sg75
(lp1441
S'request_method'
p1442
asbag68
(g89
g70
NtRp1443
(dp1444
g73
(dp1445
g100
g101
ssg82
g1434
sg75
(lp1446
S':'
asbag68
(g89
g70
NtRp1447
(dp1448
g73
(dp1449
sg82
g1434
sg75
(lp1450
g68
(g69
g70
NtRp1451
(dp1452
g73
(dp1453
g81
I4
ssg82
g1447
sg75
(lp1454
S'GET'
p1455
asbasbasbag68
(g84
g70
NtRp1456
(dp1457
g73
(dp1458
sg82
g858
sg75
(lp1459
g68
(g89
g70
NtRp1460
(dp1461
g73
(dp1462
g93
g94
ssg82
g1456
sg75
(lp1463
S'request_uri'
p1464
asbag68
(g89
g70
NtRp1465
(dp1466
g73
(dp1467
g100
g101
ssg82
g1456
sg75
(lp1468
S':'
asbag68
(g89
g70
NtRp1469
(dp1470
g73
(dp1471
sg82
g1456
sg75
(lp1472
g68
(g69
g70
NtRp1473
(dp1474
g73
(dp1475
g81
I4
ssg82
g1469
sg75
(lp1476
g1369
asbasbasbag68
(g84
g70
NtRp1477
(dp1478
g73
(dp1479
sg82
g858
sg75
(lp1480
g68
(g89
g70
NtRp1481
(dp1482
g73
(dp1483
g93
g94
ssg82
g1477
sg75
(lp1484
S'script_name'
p1485
asbag68
(g89
g70
NtRp1486
(dp1487
g73
(dp1488
g100
g101
ssg82
g1477
sg75
(lp1489
S':'
asbag68
(g89
g70
NtRp1490
(dp1491
g73
(dp1492
sg82
g1477
sg75
(lp1493
g68
(g69
g70
NtRp1494
(dp1495
g73
(dp1496
g81
I4
ssg82
g1490
sg75
(lp1497
S''
asbasbasbag68
(g84
g70
NtRp1498
(dp1499
g73
(dp1500
sg82
g858
sg75
(lp1501
g68
(g89
g70
NtRp1502
(dp1503
g73
(dp1504
g93
g94
ssg82
g1498
sg75
(lp1505
S'server_name'
p1506
asbag68
(g89
g70
NtRp1507
(dp1508
g73
(dp1509
g100
g101
ssg82
g1498
sg75
(lp1510
S':'
asbag68
(g89
g70
NtRp1511
(dp1512
g73
(dp1513
sg82
g1498
sg75
(lp1514
g68
(g69
g70
NtRp1515
(dp1516
g73
(dp1517
g81
I4
ssg82
g1511
sg75
(lp1518
S'wasuaje-desktop'
p1519
asbasbasbag68
(g84
g70
NtRp1520
(dp1521
g73
(dp1522
sg82
g858
sg75
(lp1523
g68
(g89
g70
NtRp1524
(dp1525
g73
(dp1526
g93
g94
ssg82
g1520
sg75
(lp1527
S'server_port'
p1528
asbag68
(g89
g70
NtRp1529
(dp1530
g73
(dp1531
g100
g101
ssg82
g1520
sg75
(lp1532
S':'
asbag68
(g89
g70
NtRp1533
(dp1534
g73
(dp1535
sg82
g1520
sg75
(lp1536
g68
(g69
g70
NtRp1537
(dp1538
g73
(dp1539
g81
I4
ssg82
g1533
sg75
(lp1540
S'8000'
p1541
asbasbasbag68
(g84
g70
NtRp1542
(dp1543
g73
(dp1544
sg82
g858
sg75
(lp1545
g68
(g89
g70
NtRp1546
(dp1547
g73
(dp1548
g93
g94
ssg82
g1542
sg75
(lp1549
S'server_protocol'
p1550
asbag68
(g89
g70
NtRp1551
(dp1552
g73
(dp1553
g100
g101
ssg82
g1542
sg75
(lp1554
S':'
asbag68
(g89
g70
NtRp1555
(dp1556
g73
(dp1557
sg82
g1542
sg75
(lp1558
g68
(g69
g70
NtRp1559
(dp1560
g73
(dp1561
g81
I4
ssg82
g1555
sg75
(lp1562
S'HTTP/1.1'
p1563
asbasbasbag68
(g84
g70
NtRp1564
(dp1565
g73
(dp1566
sg82
g858
sg75
(lp1567
g68
(g89
g70
NtRp1568
(dp1569
g73
(dp1570
g93
g94
ssg82
g1564
sg75
(lp1571
S'server_software'
p1572
asbag68
(g89
g70
NtRp1573
(dp1574
g73
(dp1575
g100
g101
ssg82
g1564
sg75
(lp1576
S':'
asbag68
(g89
g70
NtRp1577
(dp1578
g73
(dp1579
sg82
g1564
sg75
(lp1580
g68
(g69
g70
NtRp1581
(dp1582
g73
(dp1583
g81
I4
ssg82
g1577
sg75
(lp1584
S'Rocket 1.2.6'
p1585
asbasbasbag68
(g84
g70
NtRp1586
(dp1587
g73
(dp1588
sg82
g858
sg75
(lp1589
g68
(g89
g70
NtRp1590
(dp1591
g73
(dp1592
g93
g94
ssg82
g1586
sg75
(lp1593
S'web2py_path'
p1594
asbag68
(g89
g70
NtRp1595
(dp1596
g73
(dp1597
g100
g101
ssg82
g1586
sg75
(lp1598
S':'
asbag68
(g89
g70
NtRp1599
(dp1600
g73
(dp1601
sg82
g1586
sg75
(lp1602
g68
(g69
g70
NtRp1603
(dp1604
g73
(dp1605
g81
I4
ssg82
g1599
sg75
(lp1606
g905
asbasbasbag68
(g84
g70
NtRp1607
(dp1608
g73
(dp1609
sg82
g858
sg75
(lp1610
g68
(g89
g70
NtRp1611
(dp1612
g73
(dp1613
g93
g94
ssg82
g1607
sg75
(lp1614
S'web2py_version'
p1615
asbag68
(g89
g70
NtRp1616
(dp1617
g73
(dp1618
g100
g101
ssg82
g1607
sg75
(lp1619
S':'
asbag68
(g89
g70
NtRp1620
(dp1621
g73
(dp1622
sg82
g1607
sg75
(lp1623
g68
(g69
g70
NtRp1624
(dp1625
g73
(dp1626
g81
I4
ssg82
g1620
sg75
(lp1627
g68
(g77
g70
NtRp1628
(dp1629
g73
(dp1630
g81
I3
ssg82
Nsg75
(lp1631
g68
(g84
g70
NtRp1632
(dp1633
g73
(dp1634
sg82
g1628
sg75
(lp1635
g68
(g89
g70
NtRp1636
(dp1637
g73
(dp1638
sg82
g1632
sg75
(lp1639
g68
(g69
g70
NtRp1640
(dp1641
g73
(dp1642
g81
I3
ssg82
g1636
sg75
(lp1643
S'2'
asbasbasbag68
(g84
g70
NtRp1644
(dp1645
g73
(dp1646
sg82
g1628
sg75
(lp1647
g68
(g89
g70
NtRp1648
(dp1649
g73
(dp1650
sg82
g1644
sg75
(lp1651
g68
(g69
g70
NtRp1652
(dp1653
g73
(dp1654
g81
I3
ssg82
g1648
sg75
(lp1655
S'3'
asbasbasbag68
(g84
g70
NtRp1656
(dp1657
g73
(dp1658
sg82
g1628
sg75
(lp1659
g68
(g89
g70
NtRp1660
(dp1661
g73
(dp1662
sg82
g1656
sg75
(lp1663
g68
(g69
g70
NtRp1664
(dp1665
g73
(dp1666
g81
I3
ssg82
g1660
sg75
(lp1667
S'2'
asbasbasbag68
(g84
g70
NtRp1668
(dp1669
g73
(dp1670
sg82
g1628
sg75
(lp1671
g68
(g89
g70
NtRp1672
(dp1673
g73
(dp1674
sg82
g1668
sg75
(lp1675
g68
(g69
g70
NtRp1676
(dp1677
g73
(dp1678
g81
I3
ssg82
g1672
sg75
(lp1679
S'datetime.datetime(2012, 12, 17, 15, 3, 30)'
p1680
asbasbasbag68
(g84
g70
NtRp1681
(dp1682
g73
(dp1683
sg82
g1628
sg75
(lp1684
g68
(g89
g70
NtRp1685
(dp1686
g73
(dp1687
sg82
g1681
sg75
(lp1688
g68
(g69
g70
NtRp1689
(dp1690
g73
(dp1691
g81
I3
ssg82
g1685
sg75
(lp1692
S'stable'
p1693
asbasbasbasbasbasbasbag68
(g84
g70
NtRp1694
(dp1695
g73
(dp1696
sg82
g858
sg75
(lp1697
g68
(g89
g70
NtRp1698
(dp1699
g73
(dp1700
g93
g94
ssg82
g1694
sg75
(lp1701
S'wsgi_errors'
p1702
asbag68
(g89
g70
NtRp1703
(dp1704
g73
(dp1705
g100
g101
ssg82
g1694
sg75
(lp1706
S':'
asbag68
(g89
g70
NtRp1707
(dp1708
g73
(dp1709
sg82
g1694
sg75
(lp1710
g68
(g69
g70
NtRp1711
(dp1712
g73
(dp1713
g81
I4
ssg82
g1707
sg75
(lp1714
S"<open file '<stderr>', mode 'w' at 0xb74b90d0>"
p1715
asbasbasbag68
(g84
g70
NtRp1716
(dp1717
g73
(dp1718
sg82
g858
sg75
(lp1719
g68
(g89
g70
NtRp1720
(dp1721
g73
(dp1722
g93
g94
ssg82
g1716
sg75
(lp1723
S'wsgi_file_wrapper'
p1724
asbag68
(g89
g70
NtRp1725
(dp1726
g73
(dp1727
g100
g101
ssg82
g1716
sg75
(lp1728
S':'
asbag68
(g89
g70
NtRp1729
(dp1730
g73
(dp1731
sg82
g1716
sg75
(lp1732
g68
(g69
g70
NtRp1733
(dp1734
g73
(dp1735
g81
I4
ssg82
g1729
sg75
(lp1736
S'<class wsgiref.util.FileWrapper at 0x8a902fc>'
p1737
asbasbasbag68
(g84
g70
NtRp1738
(dp1739
g73
(dp1740
sg82
g858
sg75
(lp1741
g68
(g89
g70
NtRp1742
(dp1743
g73
(dp1744
g93
g94
ssg82
g1738
sg75
(lp1745
S'wsgi_input'
p1746
asbag68
(g89
g70
NtRp1747
(dp1748
g73
(dp1749
g100
g101
ssg82
g1738
sg75
(lp1750
S':'
asbag68
(g89
g70
NtRp1751
(dp1752
g73
(dp1753
sg82
g1738
sg75
(lp1754
g68
(g69
g70
NtRp1755
(dp1756
g73
(dp1757
g81
I4
ssg82
g1751
sg75
(lp1758
S'<socket._fileobject object at 0xacb27e6c>'
p1759
asbasbasbag68
(g84
g70
NtRp1760
(dp1761
g73
(dp1762
sg82
g858
sg75
(lp1763
g68
(g89
g70
NtRp1764
(dp1765
g73
(dp1766
g93
g94
ssg82
g1760
sg75
(lp1767
S'wsgi_multiprocess'
p1768
asbag68
(g89
g70
NtRp1769
(dp1770
g73
(dp1771
g100
g101
ssg82
g1760
sg75
(lp1772
S':'
asbag68
(g89
g70
NtRp1773
(dp1774
g73
(dp1775
sg82
g1760
sg75
(lp1776
g68
(g69
g70
NtRp1777
(dp1778
g73
(dp1779
g81
I4
ssg82
g1773
sg75
(lp1780
g111
asbasbasbag68
(g84
g70
NtRp1781
(dp1782
g73
(dp1783
sg82
g858
sg75
(lp1784
g68
(g89
g70
NtRp1785
(dp1786
g73
(dp1787
g93
g94
ssg82
g1781
sg75
(lp1788
S'wsgi_multithread'
p1789
asbag68
(g89
g70
NtRp1790
(dp1791
g73
(dp1792
g100
g101
ssg82
g1781
sg75
(lp1793
S':'
asbag68
(g89
g70
NtRp1794
(dp1795
g73
(dp1796
sg82
g1781
sg75
(lp1797
g68
(g69
g70
NtRp1798
(dp1799
g73
(dp1800
g81
I4
ssg82
g1794
sg75
(lp1801
S'True'
p1802
asbasbasbag68
(g84
g70
NtRp1803
(dp1804
g73
(dp1805
sg82
g858
sg75
(lp1806
g68
(g89
g70
NtRp1807
(dp1808
g73
(dp1809
g93
g94
ssg82
g1803
sg75
(lp1810
S'wsgi_run_once'
p1811
asbag68
(g89
g70
NtRp1812
(dp1813
g73
(dp1814
g100
g101
ssg82
g1803
sg75
(lp1815
S':'
asbag68
(g89
g70
NtRp1816
(dp1817
g73
(dp1818
sg82
g1803
sg75
(lp1819
g68
(g69
g70
NtRp1820
(dp1821
g73
(dp1822
g81
I4
ssg82
g1816
sg75
(lp1823
g111
asbasbasbag68
(g84
g70
NtRp1824
(dp1825
g73
(dp1826
sg82
g858
sg75
(lp1827
g68
(g89
g70
NtRp1828
(dp1829
g73
(dp1830
g93
g94
ssg82
g1824
sg75
(lp1831
S'wsgi_url_scheme'
p1832
asbag68
(g89
g70
NtRp1833
(dp1834
g73
(dp1835
g100
g101
ssg82
g1824
sg75
(lp1836
S':'
asbag68
(g89
g70
NtRp1837
(dp1838
g73
(dp1839
sg82
g1824
sg75
(lp1840
g68
(g69
g70
NtRp1841
(dp1842
g73
(dp1843
g81
I4
ssg82
g1837
sg75
(lp1844
S'http'
p1845
asbasbasbag68
(g84
g70
NtRp1846
(dp1847
g73
(dp1848
sg82
g858
sg75
(lp1849
g68
(g89
g70
NtRp1850
(dp1851
g73
(dp1852
g93
g94
ssg82
g1846
sg75
(lp1853
S'wsgi_version'
p1854
asbag68
(g89
g70
NtRp1855
(dp1856
g73
(dp1857
g100
g101
ssg82
g1846
sg75
(lp1858
S':'
asbag68
(g89
g70
NtRp1859
(dp1860
g73
(dp1861
sg82
g1846
sg75
(lp1862
g68
(g69
g70
NtRp1863
(dp1864
g73
(dp1865
g81
I4
ssg82
g1859
sg75
(lp1866
g68
(g77
g70
NtRp1867
(dp1868
g73
(dp1869
g81
I3
ssg82
Nsg75
(lp1870
g68
(g84
g70
NtRp1871
(dp1872
g73
(dp1873
sg82
g1867
sg75
(lp1874
g68
(g89
g70
NtRp1875
(dp1876
g73
(dp1877
sg82
g1871
sg75
(lp1878
g68
(g69
g70
NtRp1879
(dp1880
g73
(dp1881
g81
I3
ssg82
g1875
sg75
(lp1882
S'1'
asbasbasbag68
(g84
g70
NtRp1883
(dp1884
g73
(dp1885
sg82
g1867
sg75
(lp1886
g68
(g89
g70
NtRp1887
(dp1888
g73
(dp1889
sg82
g1883
sg75
(lp1890
g68
(g69
g70
NtRp1891
(dp1892
g73
(dp1893
g81
I3
ssg82
g1887
sg75
(lp1894
S'0'
asbasbasbasbasbasbasbasbasbasbasbag68
(g84
g70
NtRp1895
(dp1896
g73
(dp1897
sg82
g78
sg75
(lp1898
g68
(g89
g70
NtRp1899
(dp1900
g73
(dp1901
g93
g94
ssg82
g1895
sg75
(lp1902
S'extension'
p1903
asbag68
(g89
g70
NtRp1904
(dp1905
g73
(dp1906
g100
g101
ssg82
g1895
sg75
(lp1907
S':'
asbag68
(g89
g70
NtRp1908
(dp1909
g73
(dp1910
sg82
g1895
sg75
(lp1911
g68
(g69
g70
NtRp1912
(dp1913
g73
(dp1914
g81
I5
ssg82
g1908
sg75
(lp1915
S'html'
p1916
asbasbasbag68
(g84
g70
NtRp1917
(dp1918
g73
(dp1919
sg82
g78
sg75
(lp1920
g68
(g89
g70
NtRp1921
(dp1922
g73
(dp1923
g93
g94
ssg82
g1917
sg75
(lp1924
S'folder'
p1925
asbag68
(g89
g70
NtRp1926
(dp1927
g73
(dp1928
g100
g101
ssg82
g1917
sg75
(lp1929
S':'
asbag68
(g89
g70
NtRp1930
(dp1931
g73
(dp1932
sg82
g1917
sg75
(lp1933
g68
(g69
g70
NtRp1934
(dp1935
g73
(dp1936
g81
I5
ssg82
g1930
sg75
(lp1937
S'/home/wasuaje/Documentos/desarrollo/web2py5/applications/flota/'
p1938
asbasbasbag68
(g84
g70
NtRp1939
(dp1940
g73
(dp1941
sg82
g78
sg75
(lp1942
g68
(g89
g70
NtRp1943
(dp1944
g73
(dp1945
g93
g94
ssg82
g1939
sg75
(lp1946
S'function'
p1947
asbag68
(g89
g70
NtRp1948
(dp1949
g73
(dp1950
g100
g101
ssg82
g1939
sg75
(lp1951
S':'
asbag68
(g89
g70
NtRp1952
(dp1953
g73
(dp1954
sg82
g1939
sg75
(lp1955
g68
(g69
g70
NtRp1956
(dp1957
g73
(dp1958
g81
I5
ssg82
g1952
sg75
(lp1959
S'index'
p1960
asbasbasbag68
(g84
g70
NtRp1961
(dp1962
g73
(dp1963
sg82
g78
sg75
(lp1964
g68
(g89
g70
NtRp1965
(dp1966
g73
(dp1967
g93
g94
ssg82
g1961
sg75
(lp1968
S'get_vars'
p1969
asbag68
(g89
g70
NtRp1970
(dp1971
g73
(dp1972
g100
g101
ssg82
g1961
sg75
(lp1973
S':'
asbag68
(g89
g70
NtRp1974
(dp1975
g73
(dp1976
sg82
g1961
sg75
(lp1977
g68
(g69
g70
NtRp1978
(dp1979
g73
(dp1980
g81
I5
ssg82
g1974
sg75
(lp1981
g68
(g77
g70
NtRp1982
(dp1983
g73
(dp1984
g81
I4
ssg82
Nsg75
(lp1985
sbasbasbasbag68
(g84
g70
NtRp1986
(dp1987
g73
(dp1988
sg82
g78
sg75
(lp1989
g68
(g89
g70
NtRp1990
(dp1991
g73
(dp1992
g93
g94
ssg82
g1986
sg75
(lp1993
S'global_settings'
p1994
asbag68
(g89
g70
NtRp1995
(dp1996
g73
(dp1997
g100
g101
ssg82
g1986
sg75
(lp1998
S':'
asbag68
(g89
g70
NtRp1999
(dp2000
g73
(dp2001
sg82
g1986
sg75
(lp2002
g68
(g69
g70
NtRp2003
(dp2004
g73
(dp2005
g81
I5
ssg82
g1999
sg75
(lp2006
g68
(g77
g70
NtRp2007
(dp2008
g73
(dp2009
g81
I4
ssg82
Nsg75
(lp2010
g68
(g84
g70
NtRp2011
(dp2012
g73
(dp2013
sg82
g2007
sg75
(lp2014
g68
(g89
g70
NtRp2015
(dp2016
g73
(dp2017
g93
g94
ssg82
g2011
sg75
(lp2018
g870
asbag68
(g89
g70
NtRp2019
(dp2020
g73
(dp2021
g100
g101
ssg82
g2011
sg75
(lp2022
S':'
asbag68
(g89
g70
NtRp2023
(dp2024
g73
(dp2025
sg82
g2011
sg75
(lp2026
g68
(g69
g70
NtRp2027
(dp2028
g73
(dp2029
g81
I4
ssg82
g2023
sg75
(lp2030
S"set(['/home/wasuaje/Documentos/desarrollo/web2py5/applications/welcome/', '/home/wasuaje/Documentos/desarrollo/web2py5/applications/PyRest/', '/home/wasuaje/Documentos/desarrollo/web2py5/applications/flota/'])"
p2031
asbasbasbag68
(g84
g70
NtRp2032
(dp2033
g73
(dp2034
sg82
g2007
sg75
(lp2035
g68
(g89
g70
NtRp2036
(dp2037
g73
(dp2038
g93
g94
ssg82
g2032
sg75
(lp2039
g892
asbag68
(g89
g70
NtRp2040
(dp2041
g73
(dp2042
g100
g101
ssg82
g2032
sg75
(lp2043
S':'
asbag68
(g89
g70
NtRp2044
(dp2045
g73
(dp2046
sg82
g2032
sg75
(lp2047
g68
(g69
g70
NtRp2048
(dp2049
g73
(dp2050
g81
I4
ssg82
g2044
sg75
(lp2051
g905
asbasbasbag68
(g84
g70
NtRp2052
(dp2053
g73
(dp2054
sg82
g2007
sg75
(lp2055
g68
(g89
g70
NtRp2056
(dp2057
g73
(dp2058
g93
g94
ssg82
g2052
sg75
(lp2059
g914
asbag68
(g89
g70
NtRp2060
(dp2061
g73
(dp2062
g100
g101
ssg82
g2052
sg75
(lp2063
S':'
asbag68
(g89
g70
NtRp2064
(dp2065
g73
(dp2066
sg82
g2052
sg75
(lp2067
g68
(g69
g70
NtRp2068
(dp2069
g73
(dp2070
g81
I4
ssg82
g2064
sg75
(lp2071
g68
(g77
g70
NtRp2072
(dp2073
g73
(dp2074
g81
I3
ssg82
Nsg75
(lp2075
sbasbasbasbag68
(g84
g70
NtRp2076
(dp2077
g73
(dp2078
sg82
g2007
sg75
(lp2079
g68
(g89
g70
NtRp2080
(dp2081
g73
(dp2082
g93
g94
ssg82
g2076
sg75
(lp2083
g939
asbag68
(g89
g70
NtRp2084
(dp2085
g73
(dp2086
g100
g101
ssg82
g2076
sg75
(lp2087
S':'
asbag68
(g89
g70
NtRp2088
(dp2089
g73
(dp2090
sg82
g2076
sg75
(lp2091
g68
(g69
g70
NtRp2092
(dp2093
g73
(dp2094
g81
I4
ssg82
g2088
sg75
(lp2095
S"<Values at 0x8ad70ec: {'verbose': False, 'ip': '127.0.0.1', 'with_scheduler': False, 'ips': [], 'shutdown_timeout': 5, 'taskbar': False, 'port': 8000, 'maxthreads': None, 'softcron': False, 'server_name': 'wasuaje-desktop', 'bpython': False, 'nogui': False, 'pid_filename': 'httpserver.pid', 'extcron': False, 'runcron': False, 'run_system_tests': False, 'test': None, 'folder': '/home/wasuaje/Documentos/desarrollo/web2py5', 'config': '', 'import_models': False, 'winservice': '', 'shell': None, 'run': '', 'log_filename': 'httpserver.log', 'debuglevel': 30, 'args': [''], 'socket_timeout': 5, 'ssl_ca_certificate': None, 'scheduler': None, 'profiler_filename': None, 'ssl_private_key': '', 'scheduler_groups': None, 'password': '<ask>', 'request_queue_size': 5, 'ssl_certificate': '', 'cronjob': False, 'numthreads': None, 'quiet': False, 'interfaces': None, 'minthreads': None, 'timeout': 10, 'plain': False, 'nobanner': False}>"
p2096
asbasbasbag68
(g84
g70
NtRp2097
(dp2098
g73
(dp2099
sg82
g2007
sg75
(lp2100
g68
(g89
g70
NtRp2101
(dp2102
g73
(dp2103
g93
g94
ssg82
g2097
sg75
(lp2104
g961
asbag68
(g89
g70
NtRp2105
(dp2106
g73
(dp2107
g100
g101
ssg82
g2097
sg75
(lp2108
S':'
asbag68
(g89
g70
NtRp2109
(dp2110
g73
(dp2111
sg82
g2097
sg75
(lp2112
g68
(g69
g70
NtRp2113
(dp2114
g73
(dp2115
g81
I4
ssg82
g2109
sg75
(lp2116
S'set([])'
p2117
asbasbasbag68
(g84
g70
NtRp2118
(dp2119
g73
(dp2120
sg82
g2007
sg75
(lp2121
g68
(g89
g70
NtRp2122
(dp2123
g73
(dp2124
g93
g94
ssg82
g2118
sg75
(lp2125
g983
asbag68
(g89
g70
NtRp2126
(dp2127
g73
(dp2128
g100
g101
ssg82
g2118
sg75
(lp2129
S':'
asbag68
(g89
g70
NtRp2130
(dp2131
g73
(dp2132
sg82
g2118
sg75
(lp2133
g68
(g69
g70
NtRp2134
(dp2135
g73
(dp2136
g81
I4
ssg82
g2130
sg75
(lp2137
g111
asbasbasbag68
(g84
g70
NtRp2138
(dp2139
g73
(dp2140
sg82
g2007
sg75
(lp2141
g68
(g89
g70
NtRp2142
(dp2143
g73
(dp2144
g93
g94
ssg82
g2138
sg75
(lp2145
g1004
asbag68
(g89
g70
NtRp2146
(dp2147
g73
(dp2148
g100
g101
ssg82
g2138
sg75
(lp2149
S':'
asbag68
(g89
g70
NtRp2150
(dp2151
g73
(dp2152
sg82
g2138
sg75
(lp2153
g68
(g69
g70
NtRp2154
(dp2155
g73
(dp2156
g81
I4
ssg82
g2150
sg75
(lp2157
g1017
asbasbasbag68
(g84
g70
NtRp2158
(dp2159
g73
(dp2160
sg82
g2007
sg75
(lp2161
g68
(g89
g70
NtRp2162
(dp2163
g73
(dp2164
g93
g94
ssg82
g2158
sg75
(lp2165
g1224
asbag68
(g89
g70
NtRp2166
(dp2167
g73
(dp2168
g100
g101
ssg82
g2158
sg75
(lp2169
S':'
asbag68
(g89
g70
NtRp2170
(dp2171
g73
(dp2172
sg82
g2158
sg75
(lp2173
g68
(g69
g70
NtRp2174
(dp2175
g73
(dp2176
g81
I4
ssg82
g2170
sg75
(lp2177
g111
asbasbasbag68
(g84
g70
NtRp2178
(dp2179
g73
(dp2180
sg82
g2007
sg75
(lp2181
g68
(g89
g70
NtRp2182
(dp2183
g73
(dp2184
g93
g94
ssg82
g2178
sg75
(lp2185
g1245
asbag68
(g89
g70
NtRp2186
(dp2187
g73
(dp2188
g100
g101
ssg82
g2178
sg75
(lp2189
S':'
asbag68
(g89
g70
NtRp2190
(dp2191
g73
(dp2192
sg82
g2178
sg75
(lp2193
g68
(g69
g70
NtRp2194
(dp2195
g73
(dp2196
g81
I4
ssg82
g2190
sg75
(lp2197
g111
asbasbasbag68
(g84
g70
NtRp2198
(dp2199
g73
(dp2200
sg82
g2007
sg75
(lp2201
g68
(g89
g70
NtRp2202
(dp2203
g73
(dp2204
g93
g94
ssg82
g2198
sg75
(lp2205
g1266
asbag68
(g89
g70
NtRp2206
(dp2207
g73
(dp2208
g100
g101
ssg82
g2198
sg75
(lp2209
S':'
asbag68
(g89
g70
NtRp2210
(dp2211
g73
(dp2212
sg82
g2198
sg75
(lp2213
g68
(g69
g70
NtRp2214
(dp2215
g73
(dp2216
g81
I4
ssg82
g2210
sg75
(lp2217
g68
(g77
g70
NtRp2218
(dp2219
g73
(dp2220
g81
I3
ssg82
Nsg75
(lp2221
g68
(g84
g70
NtRp2222
(dp2223
g73
(dp2224
sg82
g2218
sg75
(lp2225
g68
(g89
g70
NtRp2226
(dp2227
g73
(dp2228
sg82
g2222
sg75
(lp2229
g68
(g69
g70
NtRp2230
(dp2231
g73
(dp2232
g81
I3
ssg82
g2226
sg75
(lp2233
g1295
asbasbasbag68
(g84
g70
NtRp2234
(dp2235
g73
(dp2236
sg82
g2218
sg75
(lp2237
g68
(g89
g70
NtRp2238
(dp2239
g73
(dp2240
sg82
g2234
sg75
(lp2241
g68
(g69
g70
NtRp2242
(dp2243
g73
(dp2244
g81
I3
ssg82
g2238
sg75
(lp2245
g1308
asbasbasbag68
(g84
g70
NtRp2246
(dp2247
g73
(dp2248
sg82
g2218
sg75
(lp2249
g68
(g89
g70
NtRp2250
(dp2251
g73
(dp2252
sg82
g2246
sg75
(lp2253
g68
(g69
g70
NtRp2254
(dp2255
g73
(dp2256
g81
I3
ssg82
g2250
sg75
(lp2257
g1321
asbasbasbag68
(g84
g70
NtRp2258
(dp2259
g73
(dp2260
sg82
g2218
sg75
(lp2261
g68
(g89
g70
NtRp2262
(dp2263
g73
(dp2264
sg82
g2258
sg75
(lp2265
g68
(g69
g70
NtRp2266
(dp2267
g73
(dp2268
g81
I3
ssg82
g2262
sg75
(lp2269
g1334
asbasbasbag68
(g84
g70
NtRp2270
(dp2271
g73
(dp2272
sg82
g2218
sg75
(lp2273
g68
(g89
g70
NtRp2274
(dp2275
g73
(dp2276
sg82
g2270
sg75
(lp2277
g68
(g69
g70
NtRp2278
(dp2279
g73
(dp2280
g81
I3
ssg82
g2274
sg75
(lp2281
g1347
asbasbasbasbasbasbasbag68
(g84
g70
NtRp2282
(dp2283
g73
(dp2284
sg82
g2007
sg75
(lp2285
g68
(g89
g70
NtRp2286
(dp2287
g73
(dp2288
g93
g94
ssg82
g2282
sg75
(lp2289
g1615
asbag68
(g89
g70
NtRp2290
(dp2291
g73
(dp2292
g100
g101
ssg82
g2282
sg75
(lp2293
S':'
asbag68
(g89
g70
NtRp2294
(dp2295
g73
(dp2296
sg82
g2282
sg75
(lp2297
g68
(g69
g70
NtRp2298
(dp2299
g73
(dp2300
g81
I4
ssg82
g2294
sg75
(lp2301
g68
(g77
g70
NtRp2302
(dp2303
g73
(dp2304
g81
I3
ssg82
Nsg75
(lp2305
g68
(g84
g70
NtRp2306
(dp2307
g73
(dp2308
sg82
g2302
sg75
(lp2309
g68
(g89
g70
NtRp2310
(dp2311
g73
(dp2312
sg82
g2306
sg75
(lp2313
g68
(g69
g70
NtRp2314
(dp2315
g73
(dp2316
g81
I3
ssg82
g2310
sg75
(lp2317
S'2'
asbasbasbag68
(g84
g70
NtRp2318
(dp2319
g73
(dp2320
sg82
g2302
sg75
(lp2321
g68
(g89
g70
NtRp2322
(dp2323
g73
(dp2324
sg82
g2318
sg75
(lp2325
g68
(g69
g70
NtRp2326
(dp2327
g73
(dp2328
g81
I3
ssg82
g2322
sg75
(lp2329
S'3'
asbasbasbag68
(g84
g70
NtRp2330
(dp2331
g73
(dp2332
sg82
g2302
sg75
(lp2333
g68
(g89
g70
NtRp2334
(dp2335
g73
(dp2336
sg82
g2330
sg75
(lp2337
g68
(g69
g70
NtRp2338
(dp2339
g73
(dp2340
g81
I3
ssg82
g2334
sg75
(lp2341
S'2'
asbasbasbag68
(g84
g70
NtRp2342
(dp2343
g73
(dp2344
sg82
g2302
sg75
(lp2345
g68
(g89
g70
NtRp2346
(dp2347
g73
(dp2348
sg82
g2342
sg75
(lp2349
g68
(g69
g70
NtRp2350
(dp2351
g73
(dp2352
g81
I3
ssg82
g2346
sg75
(lp2353
S'datetime.datetime(2012, 12, 17, 15, 3, 30)'
p2354
asbasbasbag68
(g84
g70
NtRp2355
(dp2356
g73
(dp2357
sg82
g2302
sg75
(lp2358
g68
(g89
g70
NtRp2359
(dp2360
g73
(dp2361
sg82
g2355
sg75
(lp2362
g68
(g69
g70
NtRp2363
(dp2364
g73
(dp2365
g81
I3
ssg82
g2359
sg75
(lp2366
g1693
asbasbasbasbasbasbasbasbasbasbasbag68
(g84
g70
NtRp2367
(dp2368
g73
(dp2369
sg82
g78
sg75
(lp2370
g68
(g89
g70
NtRp2371
(dp2372
g73
(dp2373
g93
g94
ssg82
g2367
sg75
(lp2374
S'is_https'
p2375
asbag68
(g89
g70
NtRp2376
(dp2377
g73
(dp2378
g100
g101
ssg82
g2367
sg75
(lp2379
S':'
asbag68
(g89
g70
NtRp2380
(dp2381
g73
(dp2382
sg82
g2367
sg75
(lp2383
g68
(g69
g70
NtRp2384
(dp2385
g73
(dp2386
g81
I5
ssg82
g2380
sg75
(lp2387
g111
asbasbasbag68
(g84
g70
NtRp2388
(dp2389
g73
(dp2390
sg82
g78
sg75
(lp2391
g68
(g89
g70
NtRp2392
(dp2393
g73
(dp2394
g93
g94
ssg82
g2388
sg75
(lp2395
S'is_local'
p2396
asbag68
(g89
g70
NtRp2397
(dp2398
g73
(dp2399
g100
g101
ssg82
g2388
sg75
(lp2400
S':'
asbag68
(g89
g70
NtRp2401
(dp2402
g73
(dp2403
sg82
g2388
sg75
(lp2404
g68
(g69
g70
NtRp2405
(dp2406
g73
(dp2407
g81
I5
ssg82
g2401
sg75
(lp2408
g1802
asbasbasbag68
(g84
g70
NtRp2409
(dp2410
g73
(dp2411
sg82
g78
sg75
(lp2412
g68
(g89
g70
NtRp2413
(dp2414
g73
(dp2415
g93
g94
ssg82
g2409
sg75
(lp2416
S'is_restful'
p2417
asbag68
(g89
g70
NtRp2418
(dp2419
g73
(dp2420
g100
g101
ssg82
g2409
sg75
(lp2421
S':'
asbag68
(g89
g70
NtRp2422
(dp2423
g73
(dp2424
sg82
g2409
sg75
(lp2425
g68
(g69
g70
NtRp2426
(dp2427
g73
(dp2428
g81
I5
ssg82
g2422
sg75
(lp2429
g111
asbasbasbag68
(g84
g70
NtRp2430
(dp2431
g73
(dp2432
sg82
g78
sg75
(lp2433
g68
(g89
g70
NtRp2434
(dp2435
g73
(dp2436
g93
g94
ssg82
g2430
sg75
(lp2437
S'now'
p2438
asbag68
(g89
g70
NtRp2439
(dp2440
g73
(dp2441
g100
g101
ssg82
g2430
sg75
(lp2442
S':'
asbag68
(g89
g70
NtRp2443
(dp2444
g73
(dp2445
sg82
g2430
sg75
(lp2446
g68
(g69
g70
NtRp2447
(dp2448
g73
(dp2449
g81
I5
ssg82
g2443
sg75
(lp2450
S'datetime.datetime(2013, 2, 18, 17, 5, 19, 227219)'
p2451
asbasbasbag68
(g84
g70
NtRp2452
(dp2453
g73
(dp2454
sg82
g78
sg75
(lp2455
g68
(g89
g70
NtRp2456
(dp2457
g73
(dp2458
g93
g94
ssg82
g2452
sg75
(lp2459
S'post_vars'
p2460
asbag68
(g89
g70
NtRp2461
(dp2462
g73
(dp2463
g100
g101
ssg82
g2452
sg75
(lp2464
S':'
asbag68
(g89
g70
NtRp2465
(dp2466
g73
(dp2467
sg82
g2452
sg75
(lp2468
g68
(g69
g70
NtRp2469
(dp2470
g73
(dp2471
g81
I5
ssg82
g2465
sg75
(lp2472
g68
(g77
g70
NtRp2473
(dp2474
g73
(dp2475
g81
I4
ssg82
Nsg75
(lp2476
sbasbasbasbag68
(g84
g70
NtRp2477
(dp2478
g73
(dp2479
sg82
g78
sg75
(lp2480
g68
(g89
g70
NtRp2481
(dp2482
g73
(dp2483
g93
g94
ssg82
g2477
sg75
(lp2484
S'raw_args'
p2485
asbag68
(g89
g70
NtRp2486
(dp2487
g73
(dp2488
g100
g101
ssg82
g2477
sg75
(lp2489
S':'
asbag68
(g89
g70
NtRp2490
(dp2491
g73
(dp2492
sg82
g2477
sg75
(lp2493
g68
(g69
g70
NtRp2494
(dp2495
g73
(dp2496
g81
I5
ssg82
g2490
sg75
(lp2497
S''
asbasbasbag68
(g84
g70
NtRp2498
(dp2499
g73
(dp2500
sg82
g78
sg75
(lp2501
g68
(g89
g70
NtRp2502
(dp2503
g73
(dp2504
g93
g94
ssg82
g2498
sg75
(lp2505
S'raw_extension'
p2506
asbag68
(g89
g70
NtRp2507
(dp2508
g73
(dp2509
g100
g101
ssg82
g2498
sg75
(lp2510
S':'
asbag68
(g89
g70
NtRp2511
(dp2512
g73
(dp2513
sg82
g2498
sg75
(lp2514
g68
(g69
g70
NtRp2515
(dp2516
g73
(dp2517
g81
I5
ssg82
g2511
sg75
(lp2518
S'None'
p2519
asbasbasbag68
(g84
g70
NtRp2520
(dp2521
g73
(dp2522
sg82
g78
sg75
(lp2523
g68
(g89
g70
NtRp2524
(dp2525
g73
(dp2526
g93
g94
ssg82
g2520
sg75
(lp2527
S'url'
p2528
asbag68
(g89
g70
NtRp2529
(dp2530
g73
(dp2531
g100
g101
ssg82
g2520
sg75
(lp2532
S':'
asbag68
(g89
g70
NtRp2533
(dp2534
g73
(dp2535
sg82
g2520
sg75
(lp2536
g68
(g69
g70
NtRp2537
(dp2538
g73
(dp2539
g81
I5
ssg82
g2533
sg75
(lp2540
g1369
asbasbasbag68
(g84
g70
NtRp2541
(dp2542
g73
(dp2543
sg82
g78
sg75
(lp2544
g68
(g89
g70
NtRp2545
(dp2546
g73
(dp2547
g93
g94
ssg82
g2541
sg75
(lp2548
S'utcnow'
p2549
asbag68
(g89
g70
NtRp2550
(dp2551
g73
(dp2552
g100
g101
ssg82
g2541
sg75
(lp2553
S':'
asbag68
(g89
g70
NtRp2554
(dp2555
g73
(dp2556
sg82
g2541
sg75
(lp2557
g68
(g69
g70
NtRp2558
(dp2559
g73
(dp2560
g81
I5
ssg82
g2554
sg75
(lp2561
S'datetime.datetime(2013, 2, 18, 21, 35, 19, 227246)'
p2562
asbasbasbag68
(g84
g70
NtRp2563
(dp2564
g73
(dp2565
sg82
g78
sg75
(lp2566
g68
(g89
g70
NtRp2567
(dp2568
g73
(dp2569
g93
g94
ssg82
g2563
sg75
(lp2570
S'uuid'
p2571
asbag68
(g89
g70
NtRp2572
(dp2573
g73
(dp2574
g100
g101
ssg82
g2563
sg75
(lp2575
S':'
asbag68
(g89
g70
NtRp2576
(dp2577
g73
(dp2578
sg82
g2563
sg75
(lp2579
g68
(g69
g70
NtRp2580
(dp2581
g73
(dp2582
g81
I5
ssg82
g2576
sg75
(lp2583
S'flota/127.0.0.1.2013-02-18.17-05-19.06cb41ae-34a5-4cf9-ac36-187029d7bee2'
p2584
asbasbasbag68
(g84
g70
NtRp2585
(dp2586
g73
(dp2587
sg82
g78
sg75
(lp2588
g68
(g89
g70
NtRp2589
(dp2590
g73
(dp2591
g93
g94
ssg82
g2585
sg75
(lp2592
S'vars'
p2593
asbag68
(g89
g70
NtRp2594
(dp2595
g73
(dp2596
g100
g101
ssg82
g2585
sg75
(lp2597
S':'
asbag68
(g89
g70
NtRp2598
(dp2599
g73
(dp2600
sg82
g2585
sg75
(lp2601
g68
(g69
g70
NtRp2602
(dp2603
g73
(dp2604
g81
I5
ssg82
g2598
sg75
(lp2605
g68
(g77
g70
NtRp2606
(dp2607
g73
(dp2608
g81
I4
ssg82
Nsg75
(lp2609
sbasbasbasbag68
(g84
g70
NtRp2610
(dp2611
g73
(dp2612
sg82
g78
sg75
(lp2613
g68
(g89
g70
NtRp2614
(dp2615
g73
(dp2616
g93
g94
ssg82
g2610
sg75
(lp2617
S'wsgi'
p2618
asbag68
(g89
g70
NtRp2619
(dp2620
g73
(dp2621
g100
g101
ssg82
g2610
sg75
(lp2622
S':'
asbag68
(g89
g70
NtRp2623
(dp2624
g73
(dp2625
sg82
g2610
sg75
(lp2626
g68
(g69
g70
NtRp2627
(dp2628
g73
(dp2629
g81
I5
ssg82
g2623
sg75
(lp2630
g68
(g77
g70
NtRp2631
(dp2632
g73
(dp2633
g81
I4
ssg82
Nsg75
(lp2634
g68
(g84
g70
NtRp2635
(dp2636
g73
(dp2637
sg82
g2631
sg75
(lp2638
g68
(g89
g70
NtRp2639
(dp2640
g73
(dp2641
g93
g94
ssg82
g2635
sg75
(lp2642
S'environ'
p2643
asbag68
(g89
g70
NtRp2644
(dp2645
g73
(dp2646
g100
g101
ssg82
g2635
sg75
(lp2647
S':'
asbag68
(g89
g70
NtRp2648
(dp2649
g73
(dp2650
sg82
g2635
sg75
(lp2651
g68
(g69
g70
NtRp2652
(dp2653
g73
(dp2654
g81
I4
ssg82
g2648
sg75
(lp2655
g68
(g77
g70
NtRp2656
(dp2657
g73
(dp2658
g81
I3
ssg82
Nsg75
(lp2659
g68
(g84
g70
NtRp2660
(dp2661
g73
(dp2662
sg82
g2656
sg75
(lp2663
g68
(g89
g70
NtRp2664
(dp2665
g73
(dp2666
g93
g94
ssg82
g2660
sg75
(lp2667
S'HTTP_ACCEPT'
p2668
asbag68
(g89
g70
NtRp2669
(dp2670
g73
(dp2671
g100
g101
ssg82
g2660
sg75
(lp2672
S':'
asbag68
(g89
g70
NtRp2673
(dp2674
g73
(dp2675
sg82
g2660
sg75
(lp2676
g68
(g69
g70
NtRp2677
(dp2678
g73
(dp2679
g81
I3
ssg82
g2673
sg75
(lp2680
g1039
asbasbasbag68
(g84
g70
NtRp2681
(dp2682
g73
(dp2683
sg82
g2656
sg75
(lp2684
g68
(g89
g70
NtRp2685
(dp2686
g73
(dp2687
g93
g94
ssg82
g2681
sg75
(lp2688
S'HTTP_ACCEPT_ENCODING'
p2689
asbag68
(g89
g70
NtRp2690
(dp2691
g73
(dp2692
g100
g101
ssg82
g2681
sg75
(lp2693
S':'
asbag68
(g89
g70
NtRp2694
(dp2695
g73
(dp2696
sg82
g2681
sg75
(lp2697
g68
(g69
g70
NtRp2698
(dp2699
g73
(dp2700
g81
I3
ssg82
g2694
sg75
(lp2701
g1061
asbasbasbag68
(g84
g70
NtRp2702
(dp2703
g73
(dp2704
sg82
g2656
sg75
(lp2705
g68
(g89
g70
NtRp2706
(dp2707
g73
(dp2708
g93
g94
ssg82
g2702
sg75
(lp2709
S'HTTP_ACCEPT_LANGUAGE'
p2710
asbag68
(g89
g70
NtRp2711
(dp2712
g73
(dp2713
g100
g101
ssg82
g2702
sg75
(lp2714
S':'
asbag68
(g89
g70
NtRp2715
(dp2716
g73
(dp2717
sg82
g2702
sg75
(lp2718
g68
(g69
g70
NtRp2719
(dp2720
g73
(dp2721
g81
I3
ssg82
g2715
sg75
(lp2722
g1083
asbasbasbag68
(g84
g70
NtRp2723
(dp2724
g73
(dp2725
sg82
g2656
sg75
(lp2726
g68
(g89
g70
NtRp2727
(dp2728
g73
(dp2729
g93
g94
ssg82
g2723
sg75
(lp2730
S'HTTP_CACHE_CONTROL'
p2731
asbag68
(g89
g70
NtRp2732
(dp2733
g73
(dp2734
g100
g101
ssg82
g2723
sg75
(lp2735
S':'
asbag68
(g89
g70
NtRp2736
(dp2737
g73
(dp2738
sg82
g2723
sg75
(lp2739
g68
(g69
g70
NtRp2740
(dp2741
g73
(dp2742
g81
I3
ssg82
g2736
sg75
(lp2743
g1105
asbasbasbag68
(g84
g70
NtRp2744
(dp2745
g73
(dp2746
sg82
g2656
sg75
(lp2747
g68
(g89
g70
NtRp2748
(dp2749
g73
(dp2750
g93
g94
ssg82
g2744
sg75
(lp2751
S'HTTP_CONNECTION'
p2752
asbag68
(g89
g70
NtRp2753
(dp2754
g73
(dp2755
g100
g101
ssg82
g2744
sg75
(lp2756
S':'
asbag68
(g89
g70
NtRp2757
(dp2758
g73
(dp2759
sg82
g2744
sg75
(lp2760
g68
(g69
g70
NtRp2761
(dp2762
g73
(dp2763
g81
I3
ssg82
g2757
sg75
(lp2764
g1127
asbasbasbag68
(g84
g70
NtRp2765
(dp2766
g73
(dp2767
sg82
g2656
sg75
(lp2768
g68
(g89
g70
NtRp2769
(dp2770
g73
(dp2771
g93
g94
ssg82
g2765
sg75
(lp2772
S'HTTP_COOKIE'
p2773
asbag68
(g89
g70
NtRp2774
(dp2775
g73
(dp2776
g100
g101
ssg82
g2765
sg75
(lp2777
S':'
asbag68
(g89
g70
NtRp2778
(dp2779
g73
(dp2780
sg82
g2765
sg75
(lp2781
g68
(g69
g70
NtRp2782
(dp2783
g73
(dp2784
g81
I3
ssg82
g2778
sg75
(lp2785
g1149
asbasbasbag68
(g84
g70
NtRp2786
(dp2787
g73
(dp2788
sg82
g2656
sg75
(lp2789
g68
(g89
g70
NtRp2790
(dp2791
g73
(dp2792
g93
g94
ssg82
g2786
sg75
(lp2793
S'HTTP_HOST'
p2794
asbag68
(g89
g70
NtRp2795
(dp2796
g73
(dp2797
g100
g101
ssg82
g2786
sg75
(lp2798
S':'
asbag68
(g89
g70
NtRp2799
(dp2800
g73
(dp2801
sg82
g2786
sg75
(lp2802
g68
(g69
g70
NtRp2803
(dp2804
g73
(dp2805
g81
I3
ssg82
g2799
sg75
(lp2806
g1171
asbasbasbag68
(g84
g70
NtRp2807
(dp2808
g73
(dp2809
sg82
g2656
sg75
(lp2810
g68
(g89
g70
NtRp2811
(dp2812
g73
(dp2813
g93
g94
ssg82
g2807
sg75
(lp2814
S'HTTP_REFERER'
p2815
asbag68
(g89
g70
NtRp2816
(dp2817
g73
(dp2818
g100
g101
ssg82
g2807
sg75
(lp2819
S':'
asbag68
(g89
g70
NtRp2820
(dp2821
g73
(dp2822
sg82
g2807
sg75
(lp2823
g68
(g69
g70
NtRp2824
(dp2825
g73
(dp2826
g81
I3
ssg82
g2820
sg75
(lp2827
g1193
asbasbasbag68
(g84
g70
NtRp2828
(dp2829
g73
(dp2830
sg82
g2656
sg75
(lp2831
g68
(g89
g70
NtRp2832
(dp2833
g73
(dp2834
g93
g94
ssg82
g2828
sg75
(lp2835
S'HTTP_USER_AGENT'
p2836
asbag68
(g89
g70
NtRp2837
(dp2838
g73
(dp2839
g100
g101
ssg82
g2828
sg75
(lp2840
S':'
asbag68
(g89
g70
NtRp2841
(dp2842
g73
(dp2843
sg82
g2828
sg75
(lp2844
g68
(g69
g70
NtRp2845
(dp2846
g73
(dp2847
g81
I3
ssg82
g2841
sg75
(lp2848
g1215
asbasbasbag68
(g84
g70
NtRp2849
(dp2850
g73
(dp2851
sg82
g2656
sg75
(lp2852
g68
(g89
g70
NtRp2853
(dp2854
g73
(dp2855
g93
g94
ssg82
g2849
sg75
(lp2856
S'PATH_INFO'
p2857
asbag68
(g89
g70
NtRp2858
(dp2859
g73
(dp2860
g100
g101
ssg82
g2849
sg75
(lp2861
S':'
asbag68
(g89
g70
NtRp2862
(dp2863
g73
(dp2864
sg82
g2849
sg75
(lp2865
g68
(g69
g70
NtRp2866
(dp2867
g73
(dp2868
g81
I3
ssg82
g2862
sg75
(lp2869
g1369
asbasbasbag68
(g84
g70
NtRp2870
(dp2871
g73
(dp2872
sg82
g2656
sg75
(lp2873
g68
(g89
g70
NtRp2874
(dp2875
g73
(dp2876
g93
g94
ssg82
g2870
sg75
(lp2877
S'QUERY_STRING'
p2878
asbag68
(g89
g70
NtRp2879
(dp2880
g73
(dp2881
g100
g101
ssg82
g2870
sg75
(lp2882
S':'
asbag68
(g89
g70
NtRp2883
(dp2884
g73
(dp2885
sg82
g2870
sg75
(lp2886
g68
(g69
g70
NtRp2887
(dp2888
g73
(dp2889
g81
I3
ssg82
g2883
sg75
(lp2890
S''
asbasbasbag68
(g84
g70
NtRp2891
(dp2892
g73
(dp2893
sg82
g2656
sg75
(lp2894
g68
(g89
g70
NtRp2895
(dp2896
g73
(dp2897
g93
g94
ssg82
g2891
sg75
(lp2898
S'REMOTE_ADDR'
p2899
asbag68
(g89
g70
NtRp2900
(dp2901
g73
(dp2902
g100
g101
ssg82
g2891
sg75
(lp2903
S':'
asbag68
(g89
g70
NtRp2904
(dp2905
g73
(dp2906
sg82
g2891
sg75
(lp2907
g68
(g69
g70
NtRp2908
(dp2909
g73
(dp2910
g81
I3
ssg82
g2904
sg75
(lp2911
g223
asbasbasbag68
(g84
g70
NtRp2912
(dp2913
g73
(dp2914
sg82
g2656
sg75
(lp2915
g68
(g89
g70
NtRp2916
(dp2917
g73
(dp2918
g93
g94
ssg82
g2912
sg75
(lp2919
S'REMOTE_PORT'
p2920
asbag68
(g89
g70
NtRp2921
(dp2922
g73
(dp2923
g100
g101
ssg82
g2912
sg75
(lp2924
S':'
asbag68
(g89
g70
NtRp2925
(dp2926
g73
(dp2927
sg82
g2912
sg75
(lp2928
g68
(g69
g70
NtRp2929
(dp2930
g73
(dp2931
g81
I3
ssg82
g2925
sg75
(lp2932
g1433
asbasbasbag68
(g84
g70
NtRp2933
(dp2934
g73
(dp2935
sg82
g2656
sg75
(lp2936
g68
(g89
g70
NtRp2937
(dp2938
g73
(dp2939
g93
g94
ssg82
g2933
sg75
(lp2940
S'REQUEST_METHOD'
p2941
asbag68
(g89
g70
NtRp2942
(dp2943
g73
(dp2944
g100
g101
ssg82
g2933
sg75
(lp2945
S':'
asbag68
(g89
g70
NtRp2946
(dp2947
g73
(dp2948
sg82
g2933
sg75
(lp2949
g68
(g69
g70
NtRp2950
(dp2951
g73
(dp2952
g81
I3
ssg82
g2946
sg75
(lp2953
g1455
asbasbasbag68
(g84
g70
NtRp2954
(dp2955
g73
(dp2956
sg82
g2656
sg75
(lp2957
g68
(g89
g70
NtRp2958
(dp2959
g73
(dp2960
g93
g94
ssg82
g2954
sg75
(lp2961
S'REQUEST_URI'
p2962
asbag68
(g89
g70
NtRp2963
(dp2964
g73
(dp2965
g100
g101
ssg82
g2954
sg75
(lp2966
S':'
asbag68
(g89
g70
NtRp2967
(dp2968
g73
(dp2969
sg82
g2954
sg75
(lp2970
g68
(g69
g70
NtRp2971
(dp2972
g73
(dp2973
g81
I3
ssg82
g2967
sg75
(lp2974
g1369
asbasbasbag68
(g84
g70
NtRp2975
(dp2976
g73
(dp2977
sg82
g2656
sg75
(lp2978
g68
(g89
g70
NtRp2979
(dp2980
g73
(dp2981
g93
g94
ssg82
g2975
sg75
(lp2982
S'SCRIPT_NAME'
p2983
asbag68
(g89
g70
NtRp2984
(dp2985
g73
(dp2986
g100
g101
ssg82
g2975
sg75
(lp2987
S':'
asbag68
(g89
g70
NtRp2988
(dp2989
g73
(dp2990
sg82
g2975
sg75
(lp2991
g68
(g69
g70
NtRp2992
(dp2993
g73
(dp2994
g81
I3
ssg82
g2988
sg75
(lp2995
S''
asbasbasbag68
(g84
g70
NtRp2996
(dp2997
g73
(dp2998
sg82
g2656
sg75
(lp2999
g68
(g89
g70
NtRp3000
(dp3001
g73
(dp3002
g93
g94
ssg82
g2996
sg75
(lp3003
S'SERVER_NAME'
p3004
asbag68
(g89
g70
NtRp3005
(dp3006
g73
(dp3007
g100
g101
ssg82
g2996
sg75
(lp3008
S':'
asbag68
(g89
g70
NtRp3009
(dp3010
g73
(dp3011
sg82
g2996
sg75
(lp3012
g68
(g69
g70
NtRp3013
(dp3014
g73
(dp3015
g81
I3
ssg82
g3009
sg75
(lp3016
g1519
asbasbasbag68
(g84
g70
NtRp3017
(dp3018
g73
(dp3019
sg82
g2656
sg75
(lp3020
g68
(g89
g70
NtRp3021
(dp3022
g73
(dp3023
g93
g94
ssg82
g3017
sg75
(lp3024
S'SERVER_PORT'
p3025
asbag68
(g89
g70
NtRp3026
(dp3027
g73
(dp3028
g100
g101
ssg82
g3017
sg75
(lp3029
S':'
asbag68
(g89
g70
NtRp3030
(dp3031
g73
(dp3032
sg82
g3017
sg75
(lp3033
g68
(g69
g70
NtRp3034
(dp3035
g73
(dp3036
g81
I3
ssg82
g3030
sg75
(lp3037
g1541
asbasbasbag68
(g84
g70
NtRp3038
(dp3039
g73
(dp3040
sg82
g2656
sg75
(lp3041
g68
(g89
g70
NtRp3042
(dp3043
g73
(dp3044
g93
g94
ssg82
g3038
sg75
(lp3045
S'SERVER_PROTOCOL'
p3046
asbag68
(g89
g70
NtRp3047
(dp3048
g73
(dp3049
g100
g101
ssg82
g3038
sg75
(lp3050
S':'
asbag68
(g89
g70
NtRp3051
(dp3052
g73
(dp3053
sg82
g3038
sg75
(lp3054
g68
(g69
g70
NtRp3055
(dp3056
g73
(dp3057
g81
I3
ssg82
g3051
sg75
(lp3058
g1563
asbasbasbag68
(g84
g70
NtRp3059
(dp3060
g73
(dp3061
sg82
g2656
sg75
(lp3062
g68
(g89
g70
NtRp3063
(dp3064
g73
(dp3065
g93
g94
ssg82
g3059
sg75
(lp3066
S'SERVER_SOFTWARE'
p3067
asbag68
(g89
g70
NtRp3068
(dp3069
g73
(dp3070
g100
g101
ssg82
g3059
sg75
(lp3071
S':'
asbag68
(g89
g70
NtRp3072
(dp3073
g73
(dp3074
sg82
g3059
sg75
(lp3075
g68
(g69
g70
NtRp3076
(dp3077
g73
(dp3078
g81
I3
ssg82
g3072
sg75
(lp3079
g1585
asbasbasbag68
(g84
g70
NtRp3080
(dp3081
g73
(dp3082
sg82
g2656
sg75
(lp3083
g68
(g89
g70
NtRp3084
(dp3085
g73
(dp3086
g93
g94
ssg82
g3080
sg75
(lp3087
S'wsgi.errors'
p3088
asbag68
(g89
g70
NtRp3089
(dp3090
g73
(dp3091
g100
g101
ssg82
g3080
sg75
(lp3092
S':'
asbag68
(g89
g70
NtRp3093
(dp3094
g73
(dp3095
sg82
g3080
sg75
(lp3096
g68
(g69
g70
NtRp3097
(dp3098
g73
(dp3099
g81
I3
ssg82
g3093
sg75
(lp3100
S"<open file '<stderr>', mode 'w' at 0xb74b90d0>"
p3101
asbasbasbag68
(g84
g70
NtRp3102
(dp3103
g73
(dp3104
sg82
g2656
sg75
(lp3105
g68
(g89
g70
NtRp3106
(dp3107
g73
(dp3108
g93
g94
ssg82
g3102
sg75
(lp3109
S'wsgi.file_wrapper'
p3110
asbag68
(g89
g70
NtRp3111
(dp3112
g73
(dp3113
g100
g101
ssg82
g3102
sg75
(lp3114
S':'
asbag68
(g89
g70
NtRp3115
(dp3116
g73
(dp3117
sg82
g3102
sg75
(lp3118
g68
(g69
g70
NtRp3119
(dp3120
g73
(dp3121
g81
I3
ssg82
g3115
sg75
(lp3122
S'<class wsgiref.util.FileWrapper at 0x8a902fc>'
p3123
asbasbasbag68
(g84
g70
NtRp3124
(dp3125
g73
(dp3126
sg82
g2656
sg75
(lp3127
g68
(g89
g70
NtRp3128
(dp3129
g73
(dp3130
g93
g94
ssg82
g3124
sg75
(lp3131
S'wsgi.input'
p3132
asbag68
(g89
g70
NtRp3133
(dp3134
g73
(dp3135
g100
g101
ssg82
g3124
sg75
(lp3136
S':'
asbag68
(g89
g70
NtRp3137
(dp3138
g73
(dp3139
sg82
g3124
sg75
(lp3140
g68
(g69
g70
NtRp3141
(dp3142
g73
(dp3143
g81
I3
ssg82
g3137
sg75
(lp3144
S'<cStringIO.StringO object at 0xaca7aa80>'
p3145
asbasbasbag68
(g84
g70
NtRp3146
(dp3147
g73
(dp3148
sg82
g2656
sg75
(lp3149
g68
(g89
g70
NtRp3150
(dp3151
g73
(dp3152
g93
g94
ssg82
g3146
sg75
(lp3153
S'wsgi.multiprocess'
p3154
asbag68
(g89
g70
NtRp3155
(dp3156
g73
(dp3157
g100
g101
ssg82
g3146
sg75
(lp3158
S':'
asbag68
(g89
g70
NtRp3159
(dp3160
g73
(dp3161
sg82
g3146
sg75
(lp3162
g68
(g69
g70
NtRp3163
(dp3164
g73
(dp3165
g81
I3
ssg82
g3159
sg75
(lp3166
g111
asbasbasbag68
(g84
g70
NtRp3167
(dp3168
g73
(dp3169
sg82
g2656
sg75
(lp3170
g68
(g89
g70
NtRp3171
(dp3172
g73
(dp3173
g93
g94
ssg82
g3167
sg75
(lp3174
S'wsgi.multithread'
p3175
asbag68
(g89
g70
NtRp3176
(dp3177
g73
(dp3178
g100
g101
ssg82
g3167
sg75
(lp3179
S':'
asbag68
(g89
g70
NtRp3180
(dp3181
g73
(dp3182
sg82
g3167
sg75
(lp3183
g68
(g69
g70
NtRp3184
(dp3185
g73
(dp3186
g81
I3
ssg82
g3180
sg75
(lp3187
g1802
asbasbasbag68
(g84
g70
NtRp3188
(dp3189
g73
(dp3190
sg82
g2656
sg75
(lp3191
g68
(g89
g70
NtRp3192
(dp3193
g73
(dp3194
g93
g94
ssg82
g3188
sg75
(lp3195
S'wsgi.run_once'
p3196
asbag68
(g89
g70
NtRp3197
(dp3198
g73
(dp3199
g100
g101
ssg82
g3188
sg75
(lp3200
S':'
asbag68
(g89
g70
NtRp3201
(dp3202
g73
(dp3203
sg82
g3188
sg75
(lp3204
g68
(g69
g70
NtRp3205
(dp3206
g73
(dp3207
g81
I3
ssg82
g3201
sg75
(lp3208
g111
asbasbasbag68
(g84
g70
NtRp3209
(dp3210
g73
(dp3211
sg82
g2656
sg75
(lp3212
g68
(g89
g70
NtRp3213
(dp3214
g73
(dp3215
g93
g94
ssg82
g3209
sg75
(lp3216
S'wsgi.url_scheme'
p3217
asbag68
(g89
g70
NtRp3218
(dp3219
g73
(dp3220
g100
g101
ssg82
g3209
sg75
(lp3221
S':'
asbag68
(g89
g70
NtRp3222
(dp3223
g73
(dp3224
sg82
g3209
sg75
(lp3225
g68
(g69
g70
NtRp3226
(dp3227
g73
(dp3228
g81
I3
ssg82
g3222
sg75
(lp3229
g1845
asbasbasbag68
(g84
g70
NtRp3230
(dp3231
g73
(dp3232
sg82
g2656
sg75
(lp3233
g68
(g89
g70
NtRp3234
(dp3235
g73
(dp3236
g93
g94
ssg82
g3230
sg75
(lp3237
S'wsgi.version'
p3238
asbag68
(g89
g70
NtRp3239
(dp3240
g73
(dp3241
g100
g101
ssg82
g3230
sg75
(lp3242
S':'
asbag68
(g89
g70
NtRp3243
(dp3244
g73
(dp3245
sg82
g3230
sg75
(lp3246
g68
(g69
g70
NtRp3247
(dp3248
g73
(dp3249
g81
I3
ssg82
g3243
sg75
(lp3250
S'1'
asbasbasbasbasbasbasbasbasbasbasbasbasbsS'frames'
p3251
(lp3252
(dp3253
S'file'
p3254
S'/home/wasuaje/Documentos/desarrollo/web2py5/gluon/restricted.py'
p3255
sS'dump'
p3256
(dp3257
S'code'
p3258
S"'# -*- coding: utf-8 -*-\\n### required - do no del... dict()\\n\\n\\nresponse._vars=response._caller(index)\\n'"
p3259
sS'layer'
p3260
S"'/home/wasuaje/Documentos/desarrollo/web2py5/applications/flota/controllers/cobro2.py'"
p3261
sS'global compile2'
p3262
S'<function compile2>'
p3263
sS'ccode'
p3264
S'undefined'
p3265
ssS'lnum'
p3266
I211
sS'lines'
p3267
(dp3268
I206
S"    environment['__name__'] = '__restricted__'"
p3269
sI207
S'    try:'
p3270
sI208
S'        if isinstance(code, types.CodeType):'
p3271
sI209
S'            ccode = code'
p3272
sI210
S'        else:'
p3273
sI211
S'            ccode = compile2(code, layer)'
p3274
sI212
S'        exec ccode in environment'
p3275
sI213
S'    except HTTP:'
p3276
sI214
S'        raise'
p3277
sI215
S'    except RestrictedError:'
p3278
ssS'call'
p3279
S"(code='# -*- coding: utf-8 -*-\\n### required - do no del... dict()\\n\\n\\nresponse._vars=response._caller(index)\\n', environment={'A': <class 'gluon.html.A'>, 'Auth': <class 'gluon.tools.Auth'>, 'B': <class 'gluon.html.B'>, 'BEAUTIFY': <class 'gluon.html.BEAUTIFY'>, 'BODY': <class 'gluon.html.BODY'>, 'BR': <class 'gluon.html.BR'>, 'BUTTON': <class 'gluon.html.BUTTON'>, 'CAT': <class 'gluon.html.CAT'>, 'CENTER': <class 'gluon.html.CENTER'>, 'CLEANUP': <class 'gluon.validators.CLEANUP'>, ...}, layer='/home/wasuaje/Documentos/desarrollo/web2py5/applications/flota/controllers/cobro2.py')"
p3280
sS'func'
p3281
S'restricted'
p3282
sa(dp3283
g3254
S'/home/wasuaje/Documentos/desarrollo/web2py5/gluon/restricted.py'
p3284
sg3256
(dp3285
S'builtincompile'
p3286
S'<built-in function compile>'
p3287
sS'code'
p3288
S"'# -*- coding: utf-8 -*-\\n### required - do no del... dict()\\n\\n\\nresponse._vars=response._caller(index)\\n'"
p3289
sS'code.rstrip'
p3290
S'<built-in method rstrip of str object>'
p3291
sS').replace'
p3292
g3265
sS'layer'
p3293
S"'/home/wasuaje/Documentos/desarrollo/web2py5/applications/flota/controllers/cobro2.py'"
p3294
ssg3266
I194
sg3267
(dp3295
I192
S"    The +'\\n' is necessary else compile fails when code ends in a comment."
p3296
sI193
S'    """'
p3297
sI194
S"    return compile(code.rstrip().replace('\\r\\n', '\\n') + '\\n', layer, 'exec')"
p3298
sI195
S''
sI196
S''
sI197
S"def restricted(code, environment=None, layer='Unknown'):"
p3299
sI198
S'    """'
p3300
sI189
S''
sI190
S'def compile2(code, layer):'
p3301
sI191
S'    """'
p3302
ssg3279
S"(code='# -*- coding: utf-8 -*-\\n### required - do no del... dict()\\n\\n\\nresponse._vars=response._caller(index)\\n', layer='/home/wasuaje/Documentos/desarrollo/web2py5/applications/flota/controllers/cobro2.py')"
p3303
sg3281
S'compile2'
p3304
sasS'pyver'
p3305
S'Python 2.7.3: /usr/bin/python'
p3306
sS'session'
p3307
g68
(g69
g70
NtRp3308
(dp3309
g73
(dp3310
sg75
(lp3311
g68
(g77
g70
NtRp3312
(dp3313
g73
(dp3314
g81
I5
ssg82
Nsg75
(lp3315
sbasbsS'etype'
p3316
S"<type 'exceptions.SyntaxError'>"
p3317
sS'date'
p3318
S'Mon Feb 18 17:05:19 2013'
p3319
sS'response'
p3320
g68
(g69
g70
NtRp3321
(dp3322
g73
(dp3323
sg75
(lp3324
g68
(g77
g70
NtRp3325
(dp3326
g73
(dp3327
g81
I5
ssg82
Nsg75
(lp3328
g68
(g84
g70
NtRp3329
(dp3330
g73
(dp3331
sg82
g3325
sg75
(lp3332
g68
(g89
g70
NtRp3333
(dp3334
g73
(dp3335
g93
g94
ssg82
g3329
sg75
(lp3336
g166
asbag68
(g89
g70
NtRp3337
(dp3338
g73
(dp3339
g100
g101
ssg82
g3329
sg75
(lp3340
S':'
asbag68
(g89
g70
NtRp3341
(dp3342
g73
(dp3343
sg82
g3329
sg75
(lp3344
g68
(g69
g70
NtRp3345
(dp3346
g73
(dp3347
g81
I5
ssg82
g3341
sg75
(lp3348
S'<cStringIO.StringO object at 0xabb706e0>'
p3349
asbasbasbag68
(g84
g70
NtRp3350
(dp3351
g73
(dp3352
sg82
g3325
sg75
(lp3353
g68
(g89
g70
NtRp3354
(dp3355
g73
(dp3356
g93
g94
ssg82
g3350
sg75
(lp3357
g254
asbag68
(g89
g70
NtRp3358
(dp3359
g73
(dp3360
g100
g101
ssg82
g3350
sg75
(lp3361
S':'
asbag68
(g89
g70
NtRp3362
(dp3363
g73
(dp3364
sg82
g3350
sg75
(lp3365
g68
(g69
g70
NtRp3366
(dp3367
g73
(dp3368
g81
I5
ssg82
g3362
sg75
(lp3369
g68
(g77
g70
NtRp3370
(dp3371
g73
(dp3372
g81
I4
ssg82
Nsg75
(lp3373
g68
(g84
g70
NtRp3374
(dp3375
g73
(dp3376
sg82
g3370
sg75
(lp3377
g68
(g89
g70
NtRp3378
(dp3379
g73
(dp3380
g93
g94
ssg82
g3374
sg75
(lp3381
S'session_id_flota'
p3382
asbag68
(g89
g70
NtRp3383
(dp3384
g73
(dp3385
g100
g101
ssg82
g3374
sg75
(lp3386
S':'
asbag68
(g89
g70
NtRp3387
(dp3388
g73
(dp3389
sg82
g3374
sg75
(lp3390
g68
(g69
g70
NtRp3391
(dp3392
g73
(dp3393
g81
I4
ssg82
g3387
sg75
(lp3394
g292
ag68
(g77
g70
NtRp3395
(dp3396
g73
(dp3397
g81
I3
ssg82
Nsg75
(lp3398
g68
(g84
g70
NtRp3399
(dp3400
g73
(dp3401
sg82
g3395
sg75
(lp3402
g68
(g89
g70
NtRp3403
(dp3404
g73
(dp3405
g93
g94
ssg82
g3399
sg75
(lp3406
g305
asbag68
(g89
g70
NtRp3407
(dp3408
g73
(dp3409
g100
g101
ssg82
g3399
sg75
(lp3410
S':'
asbag68
(g89
g70
NtRp3411
(dp3412
g73
(dp3413
sg82
g3399
sg75
(lp3414
g68
(g69
g70
NtRp3415
(dp3416
g73
(dp3417
g81
I3
ssg82
g3411
sg75
(lp3418
S''
asbasbasbag68
(g84
g70
NtRp3419
(dp3420
g73
(dp3421
sg82
g3395
sg75
(lp3422
g68
(g89
g70
NtRp3423
(dp3424
g73
(dp3425
g93
g94
ssg82
g3419
sg75
(lp3426
g326
asbag68
(g89
g70
NtRp3427
(dp3428
g73
(dp3429
g100
g101
ssg82
g3419
sg75
(lp3430
S':'
asbag68
(g89
g70
NtRp3431
(dp3432
g73
(dp3433
sg82
g3419
sg75
(lp3434
g68
(g69
g70
NtRp3435
(dp3436
g73
(dp3437
g81
I3
ssg82
g3431
sg75
(lp3438
S''
asbasbasbag68
(g84
g70
NtRp3439
(dp3440
g73
(dp3441
sg82
g3395
sg75
(lp3442
g68
(g89
g70
NtRp3443
(dp3444
g73
(dp3445
g93
g94
ssg82
g3439
sg75
(lp3446
g347
asbag68
(g89
g70
NtRp3447
(dp3448
g73
(dp3449
g100
g101
ssg82
g3439
sg75
(lp3450
S':'
asbag68
(g89
g70
NtRp3451
(dp3452
g73
(dp3453
sg82
g3439
sg75
(lp3454
g68
(g69
g70
NtRp3455
(dp3456
g73
(dp3457
g81
I3
ssg82
g3451
sg75
(lp3458
S''
asbasbasbag68
(g84
g70
NtRp3459
(dp3460
g73
(dp3461
sg82
g3395
sg75
(lp3462
g68
(g89
g70
NtRp3463
(dp3464
g73
(dp3465
g93
g94
ssg82
g3459
sg75
(lp3466
g368
asbag68
(g89
g70
NtRp3467
(dp3468
g73
(dp3469
g100
g101
ssg82
g3459
sg75
(lp3470
S':'
asbag68
(g89
g70
NtRp3471
(dp3472
g73
(dp3473
sg82
g3459
sg75
(lp3474
g68
(g69
g70
NtRp3475
(dp3476
g73
(dp3477
g81
I3
ssg82
g3471
sg75
(lp3478
S''
asbasbasbag68
(g84
g70
NtRp3479
(dp3480
g73
(dp3481
sg82
g3395
sg75
(lp3482
g68
(g89
g70
NtRp3483
(dp3484
g73
(dp3485
g93
g94
ssg82
g3479
sg75
(lp3486
g389
asbag68
(g89
g70
NtRp3487
(dp3488
g73
(dp3489
g100
g101
ssg82
g3479
sg75
(lp3490
S':'
asbag68
(g89
g70
NtRp3491
(dp3492
g73
(dp3493
sg82
g3479
sg75
(lp3494
g68
(g69
g70
NtRp3495
(dp3496
g73
(dp3497
g81
I3
ssg82
g3491
sg75
(lp3498
S''
asbasbasbag68
(g84
g70
NtRp3499
(dp3500
g73
(dp3501
sg82
g3395
sg75
(lp3502
g68
(g89
g70
NtRp3503
(dp3504
g73
(dp3505
g93
g94
ssg82
g3499
sg75
(lp3506
g410
asbag68
(g89
g70
NtRp3507
(dp3508
g73
(dp3509
g100
g101
ssg82
g3499
sg75
(lp3510
S':'
asbag68
(g89
g70
NtRp3511
(dp3512
g73
(dp3513
sg82
g3499
sg75
(lp3514
g68
(g69
g70
NtRp3515
(dp3516
g73
(dp3517
g81
I3
ssg82
g3511
sg75
(lp3518
S'/'
asbasbasbag68
(g84
g70
NtRp3519
(dp3520
g73
(dp3521
sg82
g3395
sg75
(lp3522
g68
(g89
g70
NtRp3523
(dp3524
g73
(dp3525
g93
g94
ssg82
g3519
sg75
(lp3526
g431
asbag68
(g89
g70
NtRp3527
(dp3528
g73
(dp3529
g100
g101
ssg82
g3519
sg75
(lp3530
S':'
asbag68
(g89
g70
NtRp3531
(dp3532
g73
(dp3533
sg82
g3519
sg75
(lp3534
g68
(g69
g70
NtRp3535
(dp3536
g73
(dp3537
g81
I3
ssg82
g3531
sg75
(lp3538
S''
asbasbasbag68
(g84
g70
NtRp3539
(dp3540
g73
(dp3541
sg82
g3395
sg75
(lp3542
g68
(g89
g70
NtRp3543
(dp3544
g73
(dp3545
g93
g94
ssg82
g3539
sg75
(lp3546
g452
asbag68
(g89
g70
NtRp3547
(dp3548
g73
(dp3549
g100
g101
ssg82
g3539
sg75
(lp3550
S':'
asbag68
(g89
g70
NtRp3551
(dp3552
g73
(dp3553
sg82
g3539
sg75
(lp3554
g68
(g69
g70
NtRp3555
(dp3556
g73
(dp3557
g81
I3
ssg82
g3551
sg75
(lp3558
S''
asbasbasbasbasbasbasbasbasbasbasbag68
(g84
g70
NtRp3559
(dp3560
g73
(dp3561
sg82
g3325
sg75
(lp3562
g68
(g89
g70
NtRp3563
(dp3564
g73
(dp3565
g93
g94
ssg82
g3559
sg75
(lp3566
S'delimiters'
p3567
asbag68
(g89
g70
NtRp3568
(dp3569
g73
(dp3570
g100
g101
ssg82
g3559
sg75
(lp3571
S':'
asbag68
(g89
g70
NtRp3572
(dp3573
g73
(dp3574
sg82
g3559
sg75
(lp3575
g68
(g69
g70
NtRp3576
(dp3577
g73
(dp3578
g81
I5
ssg82
g3572
sg75
(lp3579
g68
(g77
g70
NtRp3580
(dp3581
g73
(dp3582
g81
I4
ssg82
Nsg75
(lp3583
g68
(g84
g70
NtRp3584
(dp3585
g73
(dp3586
sg82
g3580
sg75
(lp3587
g68
(g89
g70
NtRp3588
(dp3589
g73
(dp3590
sg82
g3584
sg75
(lp3591
g68
(g69
g70
NtRp3592
(dp3593
g73
(dp3594
g81
I4
ssg82
g3588
sg75
(lp3595
S'{{'
p3596
asbasbasbag68
(g84
g70
NtRp3597
(dp3598
g73
(dp3599
sg82
g3580
sg75
(lp3600
g68
(g89
g70
NtRp3601
(dp3602
g73
(dp3603
sg82
g3597
sg75
(lp3604
g68
(g69
g70
NtRp3605
(dp3606
g73
(dp3607
g81
I4
ssg82
g3601
sg75
(lp3608
S'}}'
p3609
asbasbasbasbasbasbasbag68
(g84
g70
NtRp3610
(dp3611
g73
(dp3612
sg82
g3325
sg75
(lp3613
g68
(g89
g70
NtRp3614
(dp3615
g73
(dp3616
g93
g94
ssg82
g3610
sg75
(lp3617
S'files'
p3618
asbag68
(g89
g70
NtRp3619
(dp3620
g73
(dp3621
g100
g101
ssg82
g3610
sg75
(lp3622
S':'
asbag68
(g89
g70
NtRp3623
(dp3624
g73
(dp3625
sg82
g3610
sg75
(lp3626
g68
(g69
g70
NtRp3627
(dp3628
g73
(dp3629
g81
I5
ssg82
g3623
sg75
(lp3630
g68
(g77
g70
NtRp3631
(dp3632
g73
(dp3633
g81
I4
ssg82
Nsg75
(lp3634
g68
(g84
g70
NtRp3635
(dp3636
g73
(dp3637
sg82
g3631
sg75
(lp3638
g68
(g89
g70
NtRp3639
(dp3640
g73
(dp3641
sg82
g3635
sg75
(lp3642
g68
(g69
g70
NtRp3643
(dp3644
g73
(dp3645
g81
I4
ssg82
g3639
sg75
(lp3646
S'/flota/static/jquery-autocomplete/jquery.autocomplete.js'
p3647
asbasbasbag68
(g84
g70
NtRp3648
(dp3649
g73
(dp3650
sg82
g3631
sg75
(lp3651
g68
(g89
g70
NtRp3652
(dp3653
g73
(dp3654
sg82
g3648
sg75
(lp3655
g68
(g69
g70
NtRp3656
(dp3657
g73
(dp3658
g81
I4
ssg82
g3652
sg75
(lp3659
S'/flota/static/jquery-autocomplete/jquery.autocomplete.css'
p3660
asbasbasbag68
(g84
g70
NtRp3661
(dp3662
g73
(dp3663
sg82
g3631
sg75
(lp3664
g68
(g89
g70
NtRp3665
(dp3666
g73
(dp3667
sg82
g3661
sg75
(lp3668
g68
(g69
g70
NtRp3669
(dp3670
g73
(dp3671
g81
I4
ssg82
g3665
sg75
(lp3672
S'/flota/static/plugin_datatable/jquery.dataTables.min.js'
p3673
asbasbasbag68
(g84
g70
NtRp3674
(dp3675
g73
(dp3676
sg82
g3631
sg75
(lp3677
g68
(g89
g70
NtRp3678
(dp3679
g73
(dp3680
sg82
g3674
sg75
(lp3681
g68
(g69
g70
NtRp3682
(dp3683
g73
(dp3684
g81
I4
ssg82
g3678
sg75
(lp3685
S'/flota/static/plugin_datatable/jquery.dataTables.css'
p3686
asbasbasbag68
(g84
g70
NtRp3687
(dp3688
g73
(dp3689
sg82
g3631
sg75
(lp3690
g68
(g89
g70
NtRp3691
(dp3692
g73
(dp3693
sg82
g3687
sg75
(lp3694
g68
(g69
g70
NtRp3695
(dp3696
g73
(dp3697
g81
I4
ssg82
g3691
sg75
(lp3698
S'/flota/static/plugin_jqgrid/ui.jqgrid.css'
p3699
asbasbasbag68
(g84
g70
NtRp3700
(dp3701
g73
(dp3702
sg82
g3631
sg75
(lp3703
g68
(g89
g70
NtRp3704
(dp3705
g73
(dp3706
sg82
g3700
sg75
(lp3707
g68
(g69
g70
NtRp3708
(dp3709
g73
(dp3710
g81
I4
ssg82
g3704
sg75
(lp3711
S'/flota/static/plugin_jqgrid/ui-darkness/jquery-ui-1.8.1.custom.css'
p3712
asbasbasbag68
(g84
g70
NtRp3713
(dp3714
g73
(dp3715
sg82
g3631
sg75
(lp3716
g68
(g89
g70
NtRp3717
(dp3718
g73
(dp3719
sg82
g3713
sg75
(lp3720
g68
(g69
g70
NtRp3721
(dp3722
g73
(dp3723
g81
I4
ssg82
g3717
sg75
(lp3724
S'/flota/static/plugin_jqgrid/jquery-ui-1.7.2.custom.min.js'
p3725
asbasbasbag68
(g84
g70
NtRp3726
(dp3727
g73
(dp3728
sg82
g3631
sg75
(lp3729
g68
(g89
g70
NtRp3730
(dp3731
g73
(dp3732
sg82
g3726
sg75
(lp3733
g68
(g69
g70
NtRp3734
(dp3735
g73
(dp3736
g81
I4
ssg82
g3730
sg75
(lp3737
S'/flota/static/plugin_jqgrid/i18n/grid.locale-en.js'
p3738
asbasbasbag68
(g84
g70
NtRp3739
(dp3740
g73
(dp3741
sg82
g3631
sg75
(lp3742
g68
(g89
g70
NtRp3743
(dp3744
g73
(dp3745
sg82
g3739
sg75
(lp3746
g68
(g69
g70
NtRp3747
(dp3748
g73
(dp3749
g81
I4
ssg82
g3743
sg75
(lp3750
S'/flota/static/plugin_jqgrid/jquery.jqGrid.min.js'
p3751
asbasbasbag68
(g84
g70
NtRp3752
(dp3753
g73
(dp3754
sg82
g3631
sg75
(lp3755
g68
(g89
g70
NtRp3756
(dp3757
g73
(dp3758
sg82
g3752
sg75
(lp3759
g68
(g69
g70
NtRp3760
(dp3761
g73
(dp3762
g81
I4
ssg82
g3756
sg75
(lp3763
S'/flota/static/plugin_jqgrid/ui.jqgrid.css'
p3764
asbasbasbag68
(g84
g70
NtRp3765
(dp3766
g73
(dp3767
sg82
g3631
sg75
(lp3768
g68
(g89
g70
NtRp3769
(dp3770
g73
(dp3771
sg82
g3765
sg75
(lp3772
g68
(g69
g70
NtRp3773
(dp3774
g73
(dp3775
g81
I4
ssg82
g3769
sg75
(lp3776
S'/flota/static/plugin_jqgrid/ui-darkness/jquery-ui-1.8.1.custom.css'
p3777
asbasbasbag68
(g84
g70
NtRp3778
(dp3779
g73
(dp3780
sg82
g3631
sg75
(lp3781
g68
(g89
g70
NtRp3782
(dp3783
g73
(dp3784
sg82
g3778
sg75
(lp3785
g68
(g69
g70
NtRp3786
(dp3787
g73
(dp3788
g81
I4
ssg82
g3782
sg75
(lp3789
S'/flota/static/plugin_jqgrid/jquery-ui-1.7.2.custom.min.js'
p3790
asbasbasbag68
(g84
g70
NtRp3791
(dp3792
g73
(dp3793
sg82
g3631
sg75
(lp3794
g68
(g89
g70
NtRp3795
(dp3796
g73
(dp3797
sg82
g3791
sg75
(lp3798
g68
(g69
g70
NtRp3799
(dp3800
g73
(dp3801
g81
I4
ssg82
g3795
sg75
(lp3802
S'/flota/static/plugin_jqgrid/i18n/grid.locale-en.js'
p3803
asbasbasbag68
(g84
g70
NtRp3804
(dp3805
g73
(dp3806
sg82
g3631
sg75
(lp3807
g68
(g89
g70
NtRp3808
(dp3809
g73
(dp3810
sg82
g3804
sg75
(lp3811
g68
(g69
g70
NtRp3812
(dp3813
g73
(dp3814
g81
I4
ssg82
g3808
sg75
(lp3815
S'/flota/static/plugin_jqgrid/jquery.jqGrid.min.js'
p3816
asbasbasbasbasbasbasbag68
(g84
g70
NtRp3817
(dp3818
g73
(dp3819
sg82
g3325
sg75
(lp3820
g68
(g89
g70
NtRp3821
(dp3822
g73
(dp3823
g93
g94
ssg82
g3817
sg75
(lp3824
S'flash'
p3825
asbag68
(g89
g70
NtRp3826
(dp3827
g73
(dp3828
g100
g101
ssg82
g3817
sg75
(lp3829
S':'
asbag68
(g89
g70
NtRp3830
(dp3831
g73
(dp3832
sg82
g3817
sg75
(lp3833
g68
(g69
g70
NtRp3834
(dp3835
g73
(dp3836
g81
I5
ssg82
g3830
sg75
(lp3837
S''
asbasbasbag68
(g84
g70
NtRp3838
(dp3839
g73
(dp3840
sg82
g3325
sg75
(lp3841
g68
(g89
g70
NtRp3842
(dp3843
g73
(dp3844
g93
g94
ssg82
g3838
sg75
(lp3845
S'generic_patterns'
p3846
asbag68
(g89
g70
NtRp3847
(dp3848
g73
(dp3849
g100
g101
ssg82
g3838
sg75
(lp3850
S':'
asbag68
(g89
g70
NtRp3851
(dp3852
g73
(dp3853
sg82
g3838
sg75
(lp3854
g68
(g69
g70
NtRp3855
(dp3856
g73
(dp3857
g81
I5
ssg82
g3851
sg75
(lp3858
g68
(g77
g70
NtRp3859
(dp3860
g73
(dp3861
g81
I4
ssg82
Nsg75
(lp3862
g68
(g84
g70
NtRp3863
(dp3864
g73
(dp3865
sg82
g3859
sg75
(lp3866
g68
(g89
g70
NtRp3867
(dp3868
g73
(dp3869
sg82
g3863
sg75
(lp3870
g68
(g69
g70
NtRp3871
(dp3872
g73
(dp3873
g81
I4
ssg82
g3867
sg75
(lp3874
S'*'
asbasbasbasbasbasbasbag68
(g84
g70
NtRp3875
(dp3876
g73
(dp3877
sg82
g3325
sg75
(lp3878
g68
(g89
g70
NtRp3879
(dp3880
g73
(dp3881
g93
g94
ssg82
g3875
sg75
(lp3882
S'headers'
p3883
asbag68
(g89
g70
NtRp3884
(dp3885
g73
(dp3886
g100
g101
ssg82
g3875
sg75
(lp3887
S':'
asbag68
(g89
g70
NtRp3888
(dp3889
g73
(dp3890
sg82
g3875
sg75
(lp3891
g68
(g69
g70
NtRp3892
(dp3893
g73
(dp3894
g81
I5
ssg82
g3888
sg75
(lp3895
g68
(g77
g70
NtRp3896
(dp3897
g73
(dp3898
g81
I4
ssg82
Nsg75
(lp3899
g68
(g84
g70
NtRp3900
(dp3901
g73
(dp3902
sg82
g3896
sg75
(lp3903
g68
(g89
g70
NtRp3904
(dp3905
g73
(dp3906
g93
g94
ssg82
g3900
sg75
(lp3907
S'X-Powered-By'
p3908
asbag68
(g89
g70
NtRp3909
(dp3910
g73
(dp3911
g100
g101
ssg82
g3900
sg75
(lp3912
S':'
asbag68
(g89
g70
NtRp3913
(dp3914
g73
(dp3915
sg82
g3900
sg75
(lp3916
g68
(g69
g70
NtRp3917
(dp3918
g73
(dp3919
g81
I4
ssg82
g3913
sg75
(lp3920
S'web2py'
p3921
asbasbasbasbasbasbasbag68
(g84
g70
NtRp3922
(dp3923
g73
(dp3924
sg82
g3325
sg75
(lp3925
g68
(g89
g70
NtRp3926
(dp3927
g73
(dp3928
g93
g94
ssg82
g3922
sg75
(lp3929
S'menu'
p3930
asbag68
(g89
g70
NtRp3931
(dp3932
g73
(dp3933
g100
g101
ssg82
g3922
sg75
(lp3934
S':'
asbag68
(g89
g70
NtRp3935
(dp3936
g73
(dp3937
sg82
g3922
sg75
(lp3938
g68
(g69
g70
NtRp3939
(dp3940
g73
(dp3941
g81
I5
ssg82
g3935
sg75
(lp3942
g68
(g77
g70
NtRp3943
(dp3944
g73
(dp3945
g81
I4
ssg82
Nsg75
(lp3946
g68
(g84
g70
NtRp3947
(dp3948
g73
(dp3949
sg82
g3943
sg75
(lp3950
g68
(g89
g70
NtRp3951
(dp3952
g73
(dp3953
sg82
g3947
sg75
(lp3954
g68
(g69
g70
NtRp3955
(dp3956
g73
(dp3957
g81
I4
ssg82
g3951
sg75
(lp3958
g68
(g77
g70
NtRp3959
(dp3960
g73
(dp3961
g81
I3
ssg82
Nsg75
(lp3962
g68
(g84
g70
NtRp3963
(dp3964
g73
(dp3965
sg82
g3959
sg75
(lp3966
g68
(g89
g70
NtRp3967
(dp3968
g73
(dp3969
sg82
g3963
sg75
(lp3970
g68
(g69
g70
NtRp3971
(dp3972
g73
(dp3973
g81
I3
ssg82
g3967
sg75
(lp3974
cgluon.languages
lazyT_unpickle
p3975
(S's\x06\x00\x00\x00Inicio'
tRp3976
asbasbasbag68
(g84
g70
NtRp3977
(dp3978
g73
(dp3979
sg82
g3959
sg75
(lp3980
g68
(g89
g70
NtRp3981
(dp3982
g73
(dp3983
sg82
g3977
sg75
(lp3984
g68
(g69
g70
NtRp3985
(dp3986
g73
(dp3987
g81
I3
ssg82
g3981
sg75
(lp3988
g111
asbasbasbag68
(g84
g70
NtRp3989
(dp3990
g73
(dp3991
sg82
g3959
sg75
(lp3992
g68
(g89
g70
NtRp3993
(dp3994
g73
(dp3995
sg82
g3989
sg75
(lp3996
g68
(g69
g70
NtRp3997
(dp3998
g73
(dp3999
g81
I3
ssg82
g3993
sg75
(lp4000
S'/flota/default/index'
p4001
asbasbasbag68
(g84
g70
NtRp4002
(dp4003
g73
(dp4004
sg82
g3959
sg75
(lp4005
g68
(g89
g70
NtRp4006
(dp4007
g73
(dp4008
sg82
g4002
sg75
(lp4009
g68
(g69
g70
NtRp4010
(dp4011
g73
(dp4012
g81
I3
ssg82
g4006
sg75
(lp4013
g68
(g77
g70
NtRp4014
(dp4015
g73
(dp4016
g81
I2
ssg82
Nsg75
(lp4017
sbasbasbasbasbasbasbasbag68
(g84
g70
NtRp4018
(dp4019
g73
(dp4020
sg82
g3943
sg75
(lp4021
g68
(g89
g70
NtRp4022
(dp4023
g73
(dp4024
sg82
g4018
sg75
(lp4025
g68
(g69
g70
NtRp4026
(dp4027
g73
(dp4028
g81
I4
ssg82
g4022
sg75
(lp4029
g68
(g77
g70
NtRp4030
(dp4031
g73
(dp4032
g81
I3
ssg82
Nsg75
(lp4033
g68
(g84
g70
NtRp4034
(dp4035
g73
(dp4036
sg82
g4030
sg75
(lp4037
g68
(g89
g70
NtRp4038
(dp4039
g73
(dp4040
sg82
g4034
sg75
(lp4041
g68
(g69
g70
NtRp4042
(dp4043
g73
(dp4044
g81
I3
ssg82
g4038
sg75
(lp4045
g3975
(S's\r\x00\x00\x00Configuracion'
tRp4046
asbasbasbag68
(g84
g70
NtRp4047
(dp4048
g73
(dp4049
sg82
g4030
sg75
(lp4050
g68
(g89
g70
NtRp4051
(dp4052
g73
(dp4053
sg82
g4047
sg75
(lp4054
g68
(g69
g70
NtRp4055
(dp4056
g73
(dp4057
g81
I3
ssg82
g4051
sg75
(lp4058
g111
asbasbasbag68
(g84
g70
NtRp4059
(dp4060
g73
(dp4061
sg82
g4030
sg75
(lp4062
g68
(g89
g70
NtRp4063
(dp4064
g73
(dp4065
sg82
g4059
sg75
(lp4066
g68
(g69
g70
NtRp4067
(dp4068
g73
(dp4069
g81
I3
ssg82
g4063
sg75
(lp4070
S'/flota/default/index'
p4071
asbasbasbag68
(g84
g70
NtRp4072
(dp4073
g73
(dp4074
sg82
g4030
sg75
(lp4075
g68
(g89
g70
NtRp4076
(dp4077
g73
(dp4078
sg82
g4072
sg75
(lp4079
g68
(g69
g70
NtRp4080
(dp4081
g73
(dp4082
g81
I3
ssg82
g4076
sg75
(lp4083
g68
(g77
g70
NtRp4084
(dp4085
g73
(dp4086
g81
I2
ssg82
Nsg75
(lp4087
g68
(g84
g70
NtRp4088
(dp4089
g73
(dp4090
sg82
g4084
sg75
(lp4091
g68
(g89
g70
NtRp4092
(dp4093
g73
(dp4094
sg82
g4088
sg75
(lp4095
g68
(g69
g70
NtRp4096
(dp4097
g73
(dp4098
g81
I2
ssg82
g4092
sg75
(lp4099
g68
(g77
g70
NtRp4100
(dp4101
g73
(dp4102
g81
I1
ssg82
Nsg75
(lp4103
g68
(g84
g70
NtRp4104
(dp4105
g73
(dp4106
sg82
g4100
sg75
(lp4107
g68
(g89
g70
NtRp4108
(dp4109
g73
(dp4110
sg82
g4104
sg75
(lp4111
g68
(g69
g70
NtRp4112
(dp4113
g73
(dp4114
g81
I1
ssg82
g4108
sg75
(lp4115
g3975
(S's\x06\x00\x00\x00Tablas'
tRp4116
asbasbasbag68
(g84
g70
NtRp4117
(dp4118
g73
(dp4119
sg82
g4100
sg75
(lp4120
g68
(g89
g70
NtRp4121
(dp4122
g73
(dp4123
sg82
g4117
sg75
(lp4124
g68
(g69
g70
NtRp4125
(dp4126
g73
(dp4127
g81
I1
ssg82
g4121
sg75
(lp4128
I00
asbasbasbag68
(g84
g70
NtRp4129
(dp4130
g73
(dp4131
sg82
g4100
sg75
(lp4132
g68
(g89
g70
NtRp4133
(dp4134
g73
(dp4135
sg82
g4129
sg75
(lp4136
g68
(g69
g70
NtRp4137
(dp4138
g73
(dp4139
g81
I1
ssg82
g4133
sg75
(lp4140
S'/flota/tablas/index'
p4141
asbasbasbasbasbasbasbag68
(g84
g70
NtRp4142
(dp4143
g73
(dp4144
sg82
g4084
sg75
(lp4145
g68
(g89
g70
NtRp4146
(dp4147
g73
(dp4148
sg82
g4142
sg75
(lp4149
g68
(g69
g70
NtRp4150
(dp4151
g73
(dp4152
g81
I2
ssg82
g4146
sg75
(lp4153
g68
(g77
g70
NtRp4154
(dp4155
g73
(dp4156
g81
I1
ssg82
Nsg75
(lp4157
g68
(g84
g70
NtRp4158
(dp4159
g73
(dp4160
sg82
g4154
sg75
(lp4161
g68
(g89
g70
NtRp4162
(dp4163
g73
(dp4164
sg82
g4158
sg75
(lp4165
g68
(g69
g70
NtRp4166
(dp4167
g73
(dp4168
g81
I1
ssg82
g4162
sg75
(lp4169
g3975
(S's\x08\x00\x00\x00Maestros'
tRp4170
asbasbasbag68
(g84
g70
NtRp4171
(dp4172
g73
(dp4173
sg82
g4154
sg75
(lp4174
g68
(g89
g70
NtRp4175
(dp4176
g73
(dp4177
sg82
g4171
sg75
(lp4178
g68
(g69
g70
NtRp4179
(dp4180
g73
(dp4181
g81
I1
ssg82
g4175
sg75
(lp4182
I00
asbasbasbag68
(g84
g70
NtRp4183
(dp4184
g73
(dp4185
sg82
g4154
sg75
(lp4186
g68
(g89
g70
NtRp4187
(dp4188
g73
(dp4189
sg82
g4183
sg75
(lp4190
g68
(g69
g70
NtRp4191
(dp4192
g73
(dp4193
g81
I1
ssg82
g4187
sg75
(lp4194
S'/flota/maestros/index'
p4195
asbasbasbasbasbasbasbasbasbasbasbasbasbasbasbag68
(g84
g70
NtRp4196
(dp4197
g73
(dp4198
sg82
g3943
sg75
(lp4199
g68
(g89
g70
NtRp4200
(dp4201
g73
(dp4202
sg82
g4196
sg75
(lp4203
g68
(g69
g70
NtRp4204
(dp4205
g73
(dp4206
g81
I4
ssg82
g4200
sg75
(lp4207
g68
(g77
g70
NtRp4208
(dp4209
g73
(dp4210
g81
I3
ssg82
Nsg75
(lp4211
g68
(g84
g70
NtRp4212
(dp4213
g73
(dp4214
sg82
g4208
sg75
(lp4215
g68
(g89
g70
NtRp4216
(dp4217
g73
(dp4218
sg82
g4212
sg75
(lp4219
g68
(g69
g70
NtRp4220
(dp4221
g73
(dp4222
g81
I3
ssg82
g4216
sg75
(lp4223
g3975
(S's\x06\x00\x00\x00Gastos'
tRp4224
asbasbasbag68
(g84
g70
NtRp4225
(dp4226
g73
(dp4227
sg82
g4208
sg75
(lp4228
g68
(g89
g70
NtRp4229
(dp4230
g73
(dp4231
sg82
g4225
sg75
(lp4232
g68
(g69
g70
NtRp4233
(dp4234
g73
(dp4235
g81
I3
ssg82
g4229
sg75
(lp4236
g111
asbasbasbag68
(g84
g70
NtRp4237
(dp4238
g73
(dp4239
sg82
g4208
sg75
(lp4240
g68
(g89
g70
NtRp4241
(dp4242
g73
(dp4243
sg82
g4237
sg75
(lp4244
g68
(g69
g70
NtRp4245
(dp4246
g73
(dp4247
g81
I3
ssg82
g4241
sg75
(lp4248
S'/flota/default/index'
p4249
asbasbasbag68
(g84
g70
NtRp4250
(dp4251
g73
(dp4252
sg82
g4208
sg75
(lp4253
g68
(g89
g70
NtRp4254
(dp4255
g73
(dp4256
sg82
g4250
sg75
(lp4257
g68
(g69
g70
NtRp4258
(dp4259
g73
(dp4260
g81
I3
ssg82
g4254
sg75
(lp4261
g68
(g77
g70
NtRp4262
(dp4263
g73
(dp4264
g81
I2
ssg82
Nsg75
(lp4265
g68
(g84
g70
NtRp4266
(dp4267
g73
(dp4268
sg82
g4262
sg75
(lp4269
g68
(g89
g70
NtRp4270
(dp4271
g73
(dp4272
sg82
g4266
sg75
(lp4273
g68
(g69
g70
NtRp4274
(dp4275
g73
(dp4276
g81
I2
ssg82
g4270
sg75
(lp4277
g68
(g77
g70
NtRp4278
(dp4279
g73
(dp4280
g81
I1
ssg82
Nsg75
(lp4281
g68
(g84
g70
NtRp4282
(dp4283
g73
(dp4284
sg82
g4278
sg75
(lp4285
g68
(g89
g70
NtRp4286
(dp4287
g73
(dp4288
sg82
g4282
sg75
(lp4289
g68
(g69
g70
NtRp4290
(dp4291
g73
(dp4292
g81
I1
ssg82
g4286
sg75
(lp4293
g3975
(S's\x08\x00\x00\x00Choferes'
tRp4294
asbasbasbag68
(g84
g70
NtRp4295
(dp4296
g73
(dp4297
sg82
g4278
sg75
(lp4298
g68
(g89
g70
NtRp4299
(dp4300
g73
(dp4301
sg82
g4295
sg75
(lp4302
g68
(g69
g70
NtRp4303
(dp4304
g73
(dp4305
g81
I1
ssg82
g4299
sg75
(lp4306
I00
asbasbasbag68
(g84
g70
NtRp4307
(dp4308
g73
(dp4309
sg82
g4278
sg75
(lp4310
g68
(g89
g70
NtRp4311
(dp4312
g73
(dp4313
sg82
g4307
sg75
(lp4314
g68
(g69
g70
NtRp4315
(dp4316
g73
(dp4317
g81
I1
ssg82
g4311
sg75
(lp4318
S'/flota/chofer/index'
p4319
asbasbasbasbasbasbasbag68
(g84
g70
NtRp4320
(dp4321
g73
(dp4322
sg82
g4262
sg75
(lp4323
g68
(g89
g70
NtRp4324
(dp4325
g73
(dp4326
sg82
g4320
sg75
(lp4327
g68
(g69
g70
NtRp4328
(dp4329
g73
(dp4330
g81
I2
ssg82
g4324
sg75
(lp4331
g68
(g77
g70
NtRp4332
(dp4333
g73
(dp4334
g81
I1
ssg82
Nsg75
(lp4335
g68
(g84
g70
NtRp4336
(dp4337
g73
(dp4338
sg82
g4332
sg75
(lp4339
g68
(g89
g70
NtRp4340
(dp4341
g73
(dp4342
sg82
g4336
sg75
(lp4343
g68
(g69
g70
NtRp4344
(dp4345
g73
(dp4346
g81
I1
ssg82
g4340
sg75
(lp4347
g3975
(S's\t\x00\x00\x00Vehiculos'
tRp4348
asbasbasbag68
(g84
g70
NtRp4349
(dp4350
g73
(dp4351
sg82
g4332
sg75
(lp4352
g68
(g89
g70
NtRp4353
(dp4354
g73
(dp4355
sg82
g4349
sg75
(lp4356
g68
(g69
g70
NtRp4357
(dp4358
g73
(dp4359
g81
I1
ssg82
g4353
sg75
(lp4360
I00
asbasbasbag68
(g84
g70
NtRp4361
(dp4362
g73
(dp4363
sg82
g4332
sg75
(lp4364
g68
(g89
g70
NtRp4365
(dp4366
g73
(dp4367
sg82
g4361
sg75
(lp4368
g68
(g69
g70
NtRp4369
(dp4370
g73
(dp4371
g81
I1
ssg82
g4365
sg75
(lp4372
S'/flota/vehiculo/index'
p4373
asbasbasbasbasbasbasbag68
(g84
g70
NtRp4374
(dp4375
g73
(dp4376
sg82
g4262
sg75
(lp4377
g68
(g89
g70
NtRp4378
(dp4379
g73
(dp4380
sg82
g4374
sg75
(lp4381
g68
(g69
g70
NtRp4382
(dp4383
g73
(dp4384
g81
I2
ssg82
g4378
sg75
(lp4385
g68
(g77
g70
NtRp4386
(dp4387
g73
(dp4388
g81
I1
ssg82
Nsg75
(lp4389
g68
(g84
g70
NtRp4390
(dp4391
g73
(dp4392
sg82
g4386
sg75
(lp4393
g68
(g89
g70
NtRp4394
(dp4395
g73
(dp4396
sg82
g4390
sg75
(lp4397
g68
(g69
g70
NtRp4398
(dp4399
g73
(dp4400
g81
I1
ssg82
g4394
sg75
(lp4401
g3975
(S's\x13\x00\x00\x00Solicitud de Viajes'
tRp4402
asbasbasbag68
(g84
g70
NtRp4403
(dp4404
g73
(dp4405
sg82
g4386
sg75
(lp4406
g68
(g89
g70
NtRp4407
(dp4408
g73
(dp4409
sg82
g4403
sg75
(lp4410
g68
(g69
g70
NtRp4411
(dp4412
g73
(dp4413
g81
I1
ssg82
g4407
sg75
(lp4414
I00
asbasbasbag68
(g84
g70
NtRp4415
(dp4416
g73
(dp4417
sg82
g4386
sg75
(lp4418
g68
(g89
g70
NtRp4419
(dp4420
g73
(dp4421
sg82
g4415
sg75
(lp4422
g68
(g69
g70
NtRp4423
(dp4424
g73
(dp4425
g81
I1
ssg82
g4419
sg75
(lp4426
S'/flota/viaje/index'
p4427
asbasbasbasbasbasbasbag68
(g84
g70
NtRp4428
(dp4429
g73
(dp4430
sg82
g4262
sg75
(lp4431
g68
(g89
g70
NtRp4432
(dp4433
g73
(dp4434
sg82
g4428
sg75
(lp4435
g68
(g69
g70
NtRp4436
(dp4437
g73
(dp4438
g81
I2
ssg82
g4432
sg75
(lp4439
g68
(g77
g70
NtRp4440
(dp4441
g73
(dp4442
g81
I1
ssg82
Nsg75
(lp4443
g68
(g84
g70
NtRp4444
(dp4445
g73
(dp4446
sg82
g4440
sg75
(lp4447
g68
(g89
g70
NtRp4448
(dp4449
g73
(dp4450
sg82
g4444
sg75
(lp4451
g68
(g69
g70
NtRp4452
(dp4453
g73
(dp4454
g81
I1
ssg82
g4448
sg75
(lp4455
g3975
(S's\x14\x00\x00\x00Asignacion de Viajes'
tRp4456
asbasbasbag68
(g84
g70
NtRp4457
(dp4458
g73
(dp4459
sg82
g4440
sg75
(lp4460
g68
(g89
g70
NtRp4461
(dp4462
g73
(dp4463
sg82
g4457
sg75
(lp4464
g68
(g69
g70
NtRp4465
(dp4466
g73
(dp4467
g81
I1
ssg82
g4461
sg75
(lp4468
I00
asbasbasbag68
(g84
g70
NtRp4469
(dp4470
g73
(dp4471
sg82
g4440
sg75
(lp4472
g68
(g89
g70
NtRp4473
(dp4474
g73
(dp4475
sg82
g4469
sg75
(lp4476
g68
(g69
g70
NtRp4477
(dp4478
g73
(dp4479
g81
I1
ssg82
g4473
sg75
(lp4480
S'/flota/asignacion/index'
p4481
asbasbasbasbasbasbasbasbasbasbasbasbasbasbasbag68
(g84
g70
NtRp4482
(dp4483
g73
(dp4484
sg82
g3943
sg75
(lp4485
g68
(g89
g70
NtRp4486
(dp4487
g73
(dp4488
sg82
g4482
sg75
(lp4489
g68
(g69
g70
NtRp4490
(dp4491
g73
(dp4492
g81
I4
ssg82
g4486
sg75
(lp4493
g68
(g77
g70
NtRp4494
(dp4495
g73
(dp4496
g81
I3
ssg82
Nsg75
(lp4497
g68
(g84
g70
NtRp4498
(dp4499
g73
(dp4500
sg82
g4494
sg75
(lp4501
g68
(g89
g70
NtRp4502
(dp4503
g73
(dp4504
sg82
g4498
sg75
(lp4505
g68
(g69
g70
NtRp4506
(dp4507
g73
(dp4508
g81
I3
ssg82
g4502
sg75
(lp4509
g3975
(S's\t\x00\x00\x00Traslados'
tRp4510
asbasbasbag68
(g84
g70
NtRp4511
(dp4512
g73
(dp4513
sg82
g4494
sg75
(lp4514
g68
(g89
g70
NtRp4515
(dp4516
g73
(dp4517
sg82
g4511
sg75
(lp4518
g68
(g69
g70
NtRp4519
(dp4520
g73
(dp4521
g81
I3
ssg82
g4515
sg75
(lp4522
g111
asbasbasbag68
(g84
g70
NtRp4523
(dp4524
g73
(dp4525
sg82
g4494
sg75
(lp4526
g68
(g89
g70
NtRp4527
(dp4528
g73
(dp4529
sg82
g4523
sg75
(lp4530
g68
(g69
g70
NtRp4531
(dp4532
g73
(dp4533
g81
I3
ssg82
g4527
sg75
(lp4534
S'/flota/default/index'
p4535
asbasbasbag68
(g84
g70
NtRp4536
(dp4537
g73
(dp4538
sg82
g4494
sg75
(lp4539
g68
(g89
g70
NtRp4540
(dp4541
g73
(dp4542
sg82
g4536
sg75
(lp4543
g68
(g69
g70
NtRp4544
(dp4545
g73
(dp4546
g81
I3
ssg82
g4540
sg75
(lp4547
g68
(g77
g70
NtRp4548
(dp4549
g73
(dp4550
g81
I2
ssg82
Nsg75
(lp4551
g68
(g84
g70
NtRp4552
(dp4553
g73
(dp4554
sg82
g4548
sg75
(lp4555
g68
(g89
g70
NtRp4556
(dp4557
g73
(dp4558
sg82
g4552
sg75
(lp4559
g68
(g69
g70
NtRp4560
(dp4561
g73
(dp4562
g81
I2
ssg82
g4556
sg75
(lp4563
g68
(g77
g70
NtRp4564
(dp4565
g73
(dp4566
g81
I1
ssg82
Nsg75
(lp4567
g68
(g84
g70
NtRp4568
(dp4569
g73
(dp4570
sg82
g4564
sg75
(lp4571
g68
(g89
g70
NtRp4572
(dp4573
g73
(dp4574
sg82
g4568
sg75
(lp4575
g68
(g69
g70
NtRp4576
(dp4577
g73
(dp4578
g81
I1
ssg82
g4572
sg75
(lp4579
g3975
(S's\x08\x00\x00\x00Choferes'
tRp4580
asbasbasbag68
(g84
g70
NtRp4581
(dp4582
g73
(dp4583
sg82
g4564
sg75
(lp4584
g68
(g89
g70
NtRp4585
(dp4586
g73
(dp4587
sg82
g4581
sg75
(lp4588
g68
(g69
g70
NtRp4589
(dp4590
g73
(dp4591
g81
I1
ssg82
g4585
sg75
(lp4592
I00
asbasbasbag68
(g84
g70
NtRp4593
(dp4594
g73
(dp4595
sg82
g4564
sg75
(lp4596
g68
(g89
g70
NtRp4597
(dp4598
g73
(dp4599
sg82
g4593
sg75
(lp4600
g68
(g69
g70
NtRp4601
(dp4602
g73
(dp4603
g81
I1
ssg82
g4597
sg75
(lp4604
S'/flota/chofer/index'
p4605
asbasbasbasbasbasbasbag68
(g84
g70
NtRp4606
(dp4607
g73
(dp4608
sg82
g4548
sg75
(lp4609
g68
(g89
g70
NtRp4610
(dp4611
g73
(dp4612
sg82
g4606
sg75
(lp4613
g68
(g69
g70
NtRp4614
(dp4615
g73
(dp4616
g81
I2
ssg82
g4610
sg75
(lp4617
g68
(g77
g70
NtRp4618
(dp4619
g73
(dp4620
g81
I1
ssg82
Nsg75
(lp4621
g68
(g84
g70
NtRp4622
(dp4623
g73
(dp4624
sg82
g4618
sg75
(lp4625
g68
(g89
g70
NtRp4626
(dp4627
g73
(dp4628
sg82
g4622
sg75
(lp4629
g68
(g69
g70
NtRp4630
(dp4631
g73
(dp4632
g81
I1
ssg82
g4626
sg75
(lp4633
g3975
(S's\t\x00\x00\x00Vehiculos'
tRp4634
asbasbasbag68
(g84
g70
NtRp4635
(dp4636
g73
(dp4637
sg82
g4618
sg75
(lp4638
g68
(g89
g70
NtRp4639
(dp4640
g73
(dp4641
sg82
g4635
sg75
(lp4642
g68
(g69
g70
NtRp4643
(dp4644
g73
(dp4645
g81
I1
ssg82
g4639
sg75
(lp4646
I00
asbasbasbag68
(g84
g70
NtRp4647
(dp4648
g73
(dp4649
sg82
g4618
sg75
(lp4650
g68
(g89
g70
NtRp4651
(dp4652
g73
(dp4653
sg82
g4647
sg75
(lp4654
g68
(g69
g70
NtRp4655
(dp4656
g73
(dp4657
g81
I1
ssg82
g4651
sg75
(lp4658
S'/flota/vehiculo/index'
p4659
asbasbasbasbasbasbasbag68
(g84
g70
NtRp4660
(dp4661
g73
(dp4662
sg82
g4548
sg75
(lp4663
g68
(g89
g70
NtRp4664
(dp4665
g73
(dp4666
sg82
g4660
sg75
(lp4667
g68
(g69
g70
NtRp4668
(dp4669
g73
(dp4670
g81
I2
ssg82
g4664
sg75
(lp4671
g68
(g77
g70
NtRp4672
(dp4673
g73
(dp4674
g81
I1
ssg82
Nsg75
(lp4675
g68
(g84
g70
NtRp4676
(dp4677
g73
(dp4678
sg82
g4672
sg75
(lp4679
g68
(g89
g70
NtRp4680
(dp4681
g73
(dp4682
sg82
g4676
sg75
(lp4683
g68
(g69
g70
NtRp4684
(dp4685
g73
(dp4686
g81
I1
ssg82
g4680
sg75
(lp4687
g3975
(S's\x13\x00\x00\x00Solicitud de Viajes'
tRp4688
asbasbasbag68
(g84
g70
NtRp4689
(dp4690
g73
(dp4691
sg82
g4672
sg75
(lp4692
g68
(g89
g70
NtRp4693
(dp4694
g73
(dp4695
sg82
g4689
sg75
(lp4696
g68
(g69
g70
NtRp4697
(dp4698
g73
(dp4699
g81
I1
ssg82
g4693
sg75
(lp4700
I00
asbasbasbag68
(g84
g70
NtRp4701
(dp4702
g73
(dp4703
sg82
g4672
sg75
(lp4704
g68
(g89
g70
NtRp4705
(dp4706
g73
(dp4707
sg82
g4701
sg75
(lp4708
g68
(g69
g70
NtRp4709
(dp4710
g73
(dp4711
g81
I1
ssg82
g4705
sg75
(lp4712
S'/flota/viaje/index'
p4713
asbasbasbasbasbasbasbag68
(g84
g70
NtRp4714
(dp4715
g73
(dp4716
sg82
g4548
sg75
(lp4717
g68
(g89
g70
NtRp4718
(dp4719
g73
(dp4720
sg82
g4714
sg75
(lp4721
g68
(g69
g70
NtRp4722
(dp4723
g73
(dp4724
g81
I2
ssg82
g4718
sg75
(lp4725
g68
(g77
g70
NtRp4726
(dp4727
g73
(dp4728
g81
I1
ssg82
Nsg75
(lp4729
g68
(g84
g70
NtRp4730
(dp4731
g73
(dp4732
sg82
g4726
sg75
(lp4733
g68
(g89
g70
NtRp4734
(dp4735
g73
(dp4736
sg82
g4730
sg75
(lp4737
g68
(g69
g70
NtRp4738
(dp4739
g73
(dp4740
g81
I1
ssg82
g4734
sg75
(lp4741
g3975
(S's\x14\x00\x00\x00Asignacion de Viajes'
tRp4742
asbasbasbag68
(g84
g70
NtRp4743
(dp4744
g73
(dp4745
sg82
g4726
sg75
(lp4746
g68
(g89
g70
NtRp4747
(dp4748
g73
(dp4749
sg82
g4743
sg75
(lp4750
g68
(g69
g70
NtRp4751
(dp4752
g73
(dp4753
g81
I1
ssg82
g4747
sg75
(lp4754
I00
asbasbasbag68
(g84
g70
NtRp4755
(dp4756
g73
(dp4757
sg82
g4726
sg75
(lp4758
g68
(g89
g70
NtRp4759
(dp4760
g73
(dp4761
sg82
g4755
sg75
(lp4762
g68
(g69
g70
NtRp4763
(dp4764
g73
(dp4765
g81
I1
ssg82
g4759
sg75
(lp4766
S'/flota/asignacion/index'
p4767
asbasbasbasbasbasbasbasbasbasbasbasbasbasbasbag68
(g84
g70
NtRp4768
(dp4769
g73
(dp4770
sg82
g3943
sg75
(lp4771
g68
(g89
g70
NtRp4772
(dp4773
g73
(dp4774
sg82
g4768
sg75
(lp4775
g68
(g69
g70
NtRp4776
(dp4777
g73
(dp4778
g81
I4
ssg82
g4772
sg75
(lp4779
g68
(g77
g70
NtRp4780
(dp4781
g73
(dp4782
g81
I3
ssg82
Nsg75
(lp4783
g68
(g84
g70
NtRp4784
(dp4785
g73
(dp4786
sg82
g4780
sg75
(lp4787
g68
(g89
g70
NtRp4788
(dp4789
g73
(dp4790
sg82
g4784
sg75
(lp4791
g68
(g69
g70
NtRp4792
(dp4793
g73
(dp4794
g81
I3
ssg82
g4788
sg75
(lp4795
g3975
(S's\x0b\x00\x00\x00Facturacion'
tRp4796
asbasbasbag68
(g84
g70
NtRp4797
(dp4798
g73
(dp4799
sg82
g4780
sg75
(lp4800
g68
(g89
g70
NtRp4801
(dp4802
g73
(dp4803
sg82
g4797
sg75
(lp4804
g68
(g69
g70
NtRp4805
(dp4806
g73
(dp4807
g81
I3
ssg82
g4801
sg75
(lp4808
g111
asbasbasbag68
(g84
g70
NtRp4809
(dp4810
g73
(dp4811
sg82
g4780
sg75
(lp4812
g68
(g89
g70
NtRp4813
(dp4814
g73
(dp4815
sg82
g4809
sg75
(lp4816
g68
(g69
g70
NtRp4817
(dp4818
g73
(dp4819
g81
I3
ssg82
g4813
sg75
(lp4820
S'/admin/default/design/flota'
p4821
asbasbasbag68
(g84
g70
NtRp4822
(dp4823
g73
(dp4824
sg82
g4780
sg75
(lp4825
g68
(g89
g70
NtRp4826
(dp4827
g73
(dp4828
sg82
g4822
sg75
(lp4829
g68
(g69
g70
NtRp4830
(dp4831
g73
(dp4832
g81
I3
ssg82
g4826
sg75
(lp4833
g68
(g77
g70
NtRp4834
(dp4835
g73
(dp4836
g81
I2
ssg82
Nsg75
(lp4837
g68
(g84
g70
NtRp4838
(dp4839
g73
(dp4840
sg82
g4834
sg75
(lp4841
g68
(g89
g70
NtRp4842
(dp4843
g73
(dp4844
sg82
g4838
sg75
(lp4845
g68
(g69
g70
NtRp4846
(dp4847
g73
(dp4848
g81
I2
ssg82
g4842
sg75
(lp4849
g68
(g77
g70
NtRp4850
(dp4851
g73
(dp4852
g81
I1
ssg82
Nsg75
(lp4853
g68
(g84
g70
NtRp4854
(dp4855
g73
(dp4856
sg82
g4850
sg75
(lp4857
g68
(g89
g70
NtRp4858
(dp4859
g73
(dp4860
sg82
g4854
sg75
(lp4861
g68
(g69
g70
NtRp4862
(dp4863
g73
(dp4864
g81
I1
ssg82
g4858
sg75
(lp4865
g3975
(S's\x12\x00\x00\x00Tipos de documento'
tRp4866
asbasbasbag68
(g84
g70
NtRp4867
(dp4868
g73
(dp4869
sg82
g4850
sg75
(lp4870
g68
(g89
g70
NtRp4871
(dp4872
g73
(dp4873
sg82
g4867
sg75
(lp4874
g68
(g69
g70
NtRp4875
(dp4876
g73
(dp4877
g81
I1
ssg82
g4871
sg75
(lp4878
I00
asbasbasbag68
(g84
g70
NtRp4879
(dp4880
g73
(dp4881
sg82
g4850
sg75
(lp4882
g68
(g89
g70
NtRp4883
(dp4884
g73
(dp4885
sg82
g4879
sg75
(lp4886
g68
(g69
g70
NtRp4887
(dp4888
g73
(dp4889
g81
I1
ssg82
g4883
sg75
(lp4890
S'/flota/tipodoc/index'
p4891
asbasbasbasbasbasbasbag68
(g84
g70
NtRp4892
(dp4893
g73
(dp4894
sg82
g4834
sg75
(lp4895
g68
(g89
g70
NtRp4896
(dp4897
g73
(dp4898
sg82
g4892
sg75
(lp4899
g68
(g69
g70
NtRp4900
(dp4901
g73
(dp4902
g81
I2
ssg82
g4896
sg75
(lp4903
g68
(g77
g70
NtRp4904
(dp4905
g73
(dp4906
g81
I1
ssg82
Nsg75
(lp4907
g68
(g84
g70
NtRp4908
(dp4909
g73
(dp4910
sg82
g4904
sg75
(lp4911
g68
(g89
g70
NtRp4912
(dp4913
g73
(dp4914
sg82
g4908
sg75
(lp4915
g68
(g69
g70
NtRp4916
(dp4917
g73
(dp4918
g81
I1
ssg82
g4912
sg75
(lp4919
g3975
(S's\x06\x00\x00\x00Bancos'
tRp4920
asbasbasbag68
(g84
g70
NtRp4921
(dp4922
g73
(dp4923
sg82
g4904
sg75
(lp4924
g68
(g89
g70
NtRp4925
(dp4926
g73
(dp4927
sg82
g4921
sg75
(lp4928
g68
(g69
g70
NtRp4929
(dp4930
g73
(dp4931
g81
I1
ssg82
g4925
sg75
(lp4932
I00
asbasbasbag68
(g84
g70
NtRp4933
(dp4934
g73
(dp4935
sg82
g4904
sg75
(lp4936
g68
(g89
g70
NtRp4937
(dp4938
g73
(dp4939
sg82
g4933
sg75
(lp4940
g68
(g69
g70
NtRp4941
(dp4942
g73
(dp4943
g81
I1
ssg82
g4937
sg75
(lp4944
S'/flota/banco/index'
p4945
asbasbasbasbasbasbasbag68
(g84
g70
NtRp4946
(dp4947
g73
(dp4948
sg82
g4834
sg75
(lp4949
g68
(g89
g70
NtRp4950
(dp4951
g73
(dp4952
sg82
g4946
sg75
(lp4953
g68
(g69
g70
NtRp4954
(dp4955
g73
(dp4956
g81
I2
ssg82
g4950
sg75
(lp4957
g68
(g77
g70
NtRp4958
(dp4959
g73
(dp4960
g81
I1
ssg82
Nsg75
(lp4961
g68
(g84
g70
NtRp4962
(dp4963
g73
(dp4964
sg82
g4958
sg75
(lp4965
g68
(g89
g70
NtRp4966
(dp4967
g73
(dp4968
sg82
g4962
sg75
(lp4969
g68
(g69
g70
NtRp4970
(dp4971
g73
(dp4972
g81
I1
ssg82
g4966
sg75
(lp4973
g3975
(S's\x0e\x00\x00\x00Formas de pago'
tRp4974
asbasbasbag68
(g84
g70
NtRp4975
(dp4976
g73
(dp4977
sg82
g4958
sg75
(lp4978
g68
(g89
g70
NtRp4979
(dp4980
g73
(dp4981
sg82
g4975
sg75
(lp4982
g68
(g69
g70
NtRp4983
(dp4984
g73
(dp4985
g81
I1
ssg82
g4979
sg75
(lp4986
I00
asbasbasbag68
(g84
g70
NtRp4987
(dp4988
g73
(dp4989
sg82
g4958
sg75
(lp4990
g68
(g89
g70
NtRp4991
(dp4992
g73
(dp4993
sg82
g4987
sg75
(lp4994
g68
(g69
g70
NtRp4995
(dp4996
g73
(dp4997
g81
I1
ssg82
g4991
sg75
(lp4998
S'/flota/formapago/index'
p4999
asbasbasbasbasbasbasbag68
(g84
g70
NtRp5000
(dp5001
g73
(dp5002
sg82
g4834
sg75
(lp5003
g68
(g89
g70
NtRp5004
(dp5005
g73
(dp5006
sg82
g5000
sg75
(lp5007
g68
(g69
g70
NtRp5008
(dp5009
g73
(dp5010
g81
I2
ssg82
g5004
sg75
(lp5011
g68
(g77
g70
NtRp5012
(dp5013
g73
(dp5014
g81
I1
ssg82
Nsg75
(lp5015
g68
(g84
g70
NtRp5016
(dp5017
g73
(dp5018
sg82
g5012
sg75
(lp5019
g68
(g89
g70
NtRp5020
(dp5021
g73
(dp5022
sg82
g5016
sg75
(lp5023
g68
(g69
g70
NtRp5024
(dp5025
g73
(dp5026
g81
I1
ssg82
g5020
sg75
(lp5027
g3975
(S's\x15\x00\x00\x00Tarifas por servicios'
tRp5028
asbasbasbag68
(g84
g70
NtRp5029
(dp5030
g73
(dp5031
sg82
g5012
sg75
(lp5032
g68
(g89
g70
NtRp5033
(dp5034
g73
(dp5035
sg82
g5029
sg75
(lp5036
g68
(g69
g70
NtRp5037
(dp5038
g73
(dp5039
g81
I1
ssg82
g5033
sg75
(lp5040
I00
asbasbasbag68
(g84
g70
NtRp5041
(dp5042
g73
(dp5043
sg82
g5012
sg75
(lp5044
g68
(g89
g70
NtRp5045
(dp5046
g73
(dp5047
sg82
g5041
sg75
(lp5048
g68
(g69
g70
NtRp5049
(dp5050
g73
(dp5051
g81
I1
ssg82
g5045
sg75
(lp5052
S'/flota/servicio/index'
p5053
asbasbasbasbasbasbasbag68
(g84
g70
NtRp5054
(dp5055
g73
(dp5056
sg82
g4834
sg75
(lp5057
g68
(g89
g70
NtRp5058
(dp5059
g73
(dp5060
sg82
g5054
sg75
(lp5061
g68
(g69
g70
NtRp5062
(dp5063
g73
(dp5064
g81
I2
ssg82
g5058
sg75
(lp5065
g68
(g77
g70
NtRp5066
(dp5067
g73
(dp5068
g81
I1
ssg82
Nsg75
(lp5069
g68
(g84
g70
NtRp5070
(dp5071
g73
(dp5072
sg82
g5066
sg75
(lp5073
g68
(g89
g70
NtRp5074
(dp5075
g73
(dp5076
sg82
g5070
sg75
(lp5077
g68
(g69
g70
NtRp5078
(dp5079
g73
(dp5080
g81
I1
ssg82
g5074
sg75
(lp5081
g3975
(S's\x0c\x00\x00\x00Presupuestos'
tRp5082
asbasbasbag68
(g84
g70
NtRp5083
(dp5084
g73
(dp5085
sg82
g5066
sg75
(lp5086
g68
(g89
g70
NtRp5087
(dp5088
g73
(dp5089
sg82
g5083
sg75
(lp5090
g68
(g69
g70
NtRp5091
(dp5092
g73
(dp5093
g81
I1
ssg82
g5087
sg75
(lp5094
I00
asbasbasbag68
(g84
g70
NtRp5095
(dp5096
g73
(dp5097
sg82
g5066
sg75
(lp5098
g68
(g89
g70
NtRp5099
(dp5100
g73
(dp5101
sg82
g5095
sg75
(lp5102
g68
(g69
g70
NtRp5103
(dp5104
g73
(dp5105
g81
I1
ssg82
g5099
sg75
(lp5106
S'/flota/presupuesto/index'
p5107
asbasbasbasbasbasbasbag68
(g84
g70
NtRp5108
(dp5109
g73
(dp5110
sg82
g4834
sg75
(lp5111
g68
(g89
g70
NtRp5112
(dp5113
g73
(dp5114
sg82
g5108
sg75
(lp5115
g68
(g69
g70
NtRp5116
(dp5117
g73
(dp5118
g81
I2
ssg82
g5112
sg75
(lp5119
g68
(g77
g70
NtRp5120
(dp5121
g73
(dp5122
g81
I1
ssg82
Nsg75
(lp5123
g68
(g84
g70
NtRp5124
(dp5125
g73
(dp5126
sg82
g5120
sg75
(lp5127
g68
(g89
g70
NtRp5128
(dp5129
g73
(dp5130
sg82
g5124
sg75
(lp5131
g68
(g69
g70
NtRp5132
(dp5133
g73
(dp5134
g81
I1
ssg82
g5128
sg75
(lp5135
g3975
(S's\x15\x00\x00\x00Facturar Presupuestos'
tRp5136
asbasbasbag68
(g84
g70
NtRp5137
(dp5138
g73
(dp5139
sg82
g5120
sg75
(lp5140
g68
(g89
g70
NtRp5141
(dp5142
g73
(dp5143
sg82
g5137
sg75
(lp5144
g68
(g69
g70
NtRp5145
(dp5146
g73
(dp5147
g81
I1
ssg82
g5141
sg75
(lp5148
I00
asbasbasbag68
(g84
g70
NtRp5149
(dp5150
g73
(dp5151
sg82
g5120
sg75
(lp5152
g68
(g89
g70
NtRp5153
(dp5154
g73
(dp5155
sg82
g5149
sg75
(lp5156
g68
(g69
g70
NtRp5157
(dp5158
g73
(dp5159
g81
I1
ssg82
g5153
sg75
(lp5160
S'/flota/facturar/index'
p5161
asbasbasbasbasbasbasbag68
(g84
g70
NtRp5162
(dp5163
g73
(dp5164
sg82
g4834
sg75
(lp5165
g68
(g89
g70
NtRp5166
(dp5167
g73
(dp5168
sg82
g5162
sg75
(lp5169
g68
(g69
g70
NtRp5170
(dp5171
g73
(dp5172
g81
I2
ssg82
g5166
sg75
(lp5173
g68
(g77
g70
NtRp5174
(dp5175
g73
(dp5176
g81
I1
ssg82
Nsg75
(lp5177
g68
(g84
g70
NtRp5178
(dp5179
g73
(dp5180
sg82
g5174
sg75
(lp5181
g68
(g89
g70
NtRp5182
(dp5183
g73
(dp5184
sg82
g5178
sg75
(lp5185
g68
(g69
g70
NtRp5186
(dp5187
g73
(dp5188
g81
I1
ssg82
g5182
sg75
(lp5189
g3975
(S's\x08\x00\x00\x00Facturas'
tRp5190
asbasbasbag68
(g84
g70
NtRp5191
(dp5192
g73
(dp5193
sg82
g5174
sg75
(lp5194
g68
(g89
g70
NtRp5195
(dp5196
g73
(dp5197
sg82
g5191
sg75
(lp5198
g68
(g69
g70
NtRp5199
(dp5200
g73
(dp5201
g81
I1
ssg82
g5195
sg75
(lp5202
I00
asbasbasbag68
(g84
g70
NtRp5203
(dp5204
g73
(dp5205
sg82
g5174
sg75
(lp5206
g68
(g89
g70
NtRp5207
(dp5208
g73
(dp5209
sg82
g5203
sg75
(lp5210
g68
(g69
g70
NtRp5211
(dp5212
g73
(dp5213
g81
I1
ssg82
g5207
sg75
(lp5214
S'/flota/factura/index'
p5215
asbasbasbasbasbasbasbag68
(g84
g70
NtRp5216
(dp5217
g73
(dp5218
sg82
g4834
sg75
(lp5219
g68
(g89
g70
NtRp5220
(dp5221
g73
(dp5222
sg82
g5216
sg75
(lp5223
g68
(g69
g70
NtRp5224
(dp5225
g73
(dp5226
g81
I2
ssg82
g5220
sg75
(lp5227
g68
(g77
g70
NtRp5228
(dp5229
g73
(dp5230
g81
I1
ssg82
Nsg75
(lp5231
g68
(g84
g70
NtRp5232
(dp5233
g73
(dp5234
sg82
g5228
sg75
(lp5235
g68
(g89
g70
NtRp5236
(dp5237
g73
(dp5238
sg82
g5232
sg75
(lp5239
g68
(g69
g70
NtRp5240
(dp5241
g73
(dp5242
g81
I1
ssg82
g5236
sg75
(lp5243
g3975
(S's\x06\x00\x00\x00Cobros'
tRp5244
asbasbasbag68
(g84
g70
NtRp5245
(dp5246
g73
(dp5247
sg82
g5228
sg75
(lp5248
g68
(g89
g70
NtRp5249
(dp5250
g73
(dp5251
sg82
g5245
sg75
(lp5252
g68
(g69
g70
NtRp5253
(dp5254
g73
(dp5255
g81
I1
ssg82
g5249
sg75
(lp5256
I00
asbasbasbag68
(g84
g70
NtRp5257
(dp5258
g73
(dp5259
sg82
g5228
sg75
(lp5260
g68
(g89
g70
NtRp5261
(dp5262
g73
(dp5263
sg82
g5257
sg75
(lp5264
g68
(g69
g70
NtRp5265
(dp5266
g73
(dp5267
g81
I1
ssg82
g5261
sg75
(lp5268
S'/flota/cobro/index'
p5269
asbasbasbasbasbasbasbag68
(g84
g70
NtRp5270
(dp5271
g73
(dp5272
sg82
g4834
sg75
(lp5273
g68
(g89
g70
NtRp5274
(dp5275
g73
(dp5276
sg82
g5270
sg75
(lp5277
g68
(g69
g70
NtRp5278
(dp5279
g73
(dp5280
g81
I2
ssg82
g5274
sg75
(lp5281
g68
(g77
g70
NtRp5282
(dp5283
g73
(dp5284
g81
I1
ssg82
Nsg75
(lp5285
g68
(g84
g70
NtRp5286
(dp5287
g73
(dp5288
sg82
g5282
sg75
(lp5289
g68
(g89
g70
NtRp5290
(dp5291
g73
(dp5292
sg82
g5286
sg75
(lp5293
g68
(g69
g70
NtRp5294
(dp5295
g73
(dp5296
g81
I1
ssg82
g5290
sg75
(lp5297
g3975
(S's\x05\x00\x00\x00Pagos'
tRp5298
asbasbasbag68
(g84
g70
NtRp5299
(dp5300
g73
(dp5301
sg82
g5282
sg75
(lp5302
g68
(g89
g70
NtRp5303
(dp5304
g73
(dp5305
sg82
g5299
sg75
(lp5306
g68
(g69
g70
NtRp5307
(dp5308
g73
(dp5309
g81
I1
ssg82
g5303
sg75
(lp5310
I00
asbasbasbag68
(g84
g70
NtRp5311
(dp5312
g73
(dp5313
sg82
g5282
sg75
(lp5314
g68
(g89
g70
NtRp5315
(dp5316
g73
(dp5317
sg82
g5311
sg75
(lp5318
g68
(g69
g70
NtRp5319
(dp5320
g73
(dp5321
g81
I1
ssg82
g5315
sg75
(lp5322
S'/flota/pago/index'
p5323
asbasbasbasbasbasbasbasbasbasbasbasbasbasbasbag68
(g84
g70
NtRp5324
(dp5325
g73
(dp5326
sg82
g3943
sg75
(lp5327
g68
(g89
g70
NtRp5328
(dp5329
g73
(dp5330
sg82
g5324
sg75
(lp5331
g68
(g69
g70
NtRp5332
(dp5333
g73
(dp5334
g81
I4
ssg82
g5328
sg75
(lp5335
g68
(g77
g70
NtRp5336
(dp5337
g73
(dp5338
g81
I3
ssg82
Nsg75
(lp5339
g68
(g84
g70
NtRp5340
(dp5341
g73
(dp5342
sg82
g5336
sg75
(lp5343
g68
(g89
g70
NtRp5344
(dp5345
g73
(dp5346
sg82
g5340
sg75
(lp5347
g68
(g69
g70
NtRp5348
(dp5349
g73
(dp5350
g81
I3
ssg82
g5344
sg75
(lp5351
g3975
(S's\x08\x00\x00\x00Reportes'
tRp5352
asbasbasbag68
(g84
g70
NtRp5353
(dp5354
g73
(dp5355
sg82
g5336
sg75
(lp5356
g68
(g89
g70
NtRp5357
(dp5358
g73
(dp5359
sg82
g5353
sg75
(lp5360
g68
(g69
g70
NtRp5361
(dp5362
g73
(dp5363
g81
I3
ssg82
g5357
sg75
(lp5364
g111
asbasbasbag68
(g84
g70
NtRp5365
(dp5366
g73
(dp5367
sg82
g5336
sg75
(lp5368
g68
(g89
g70
NtRp5369
(dp5370
g73
(dp5371
sg82
g5365
sg75
(lp5372
g68
(g69
g70
NtRp5373
(dp5374
g73
(dp5375
g81
I3
ssg82
g5369
sg75
(lp5376
S'/flota/reportes/index'
p5377
asbasbasbag68
(g84
g70
NtRp5378
(dp5379
g73
(dp5380
sg82
g5336
sg75
(lp5381
g68
(g89
g70
NtRp5382
(dp5383
g73
(dp5384
sg82
g5378
sg75
(lp5385
g68
(g69
g70
NtRp5386
(dp5387
g73
(dp5388
g81
I3
ssg82
g5382
sg75
(lp5389
g68
(g77
g70
NtRp5390
(dp5391
g73
(dp5392
g81
I2
ssg82
Nsg75
(lp5393
g68
(g84
g70
NtRp5394
(dp5395
g73
(dp5396
sg82
g5390
sg75
(lp5397
g68
(g89
g70
NtRp5398
(dp5399
g73
(dp5400
sg82
g5394
sg75
(lp5401
g68
(g69
g70
NtRp5402
(dp5403
g73
(dp5404
g81
I2
ssg82
g5398
sg75
(lp5405
g68
(g77
g70
NtRp5406
(dp5407
g73
(dp5408
g81
I1
ssg82
Nsg75
(lp5409
g68
(g84
g70
NtRp5410
(dp5411
g73
(dp5412
sg82
g5406
sg75
(lp5413
g68
(g89
g70
NtRp5414
(dp5415
g73
(dp5416
sg82
g5410
sg75
(lp5417
g68
(g69
g70
NtRp5418
(dp5419
g73
(dp5420
g81
I1
ssg82
g5414
sg75
(lp5421
g3975
(S's\r\x00\x00\x00Configuracion'
tRp5422
asbasbasbag68
(g84
g70
NtRp5423
(dp5424
g73
(dp5425
sg82
g5406
sg75
(lp5426
g68
(g89
g70
NtRp5427
(dp5428
g73
(dp5429
sg82
g5423
sg75
(lp5430
g68
(g69
g70
NtRp5431
(dp5432
g73
(dp5433
g81
I1
ssg82
g5427
sg75
(lp5434
I00
asbasbasbag68
(g84
g70
NtRp5435
(dp5436
g73
(dp5437
sg82
g5406
sg75
(lp5438
g68
(g89
g70
NtRp5439
(dp5440
g73
(dp5441
sg82
g5435
sg75
(lp5442
g68
(g69
g70
NtRp5443
(dp5444
g73
(dp5445
g81
I1
ssg82
g5439
sg75
(lp5446
S'/flota/reportes/configs'
p5447
asbasbasbasbasbasbasbag68
(g84
g70
NtRp5448
(dp5449
g73
(dp5450
sg82
g5390
sg75
(lp5451
g68
(g89
g70
NtRp5452
(dp5453
g73
(dp5454
sg82
g5448
sg75
(lp5455
g68
(g69
g70
NtRp5456
(dp5457
g73
(dp5458
g81
I2
ssg82
g5452
sg75
(lp5459
g68
(g77
g70
NtRp5460
(dp5461
g73
(dp5462
g81
I1
ssg82
Nsg75
(lp5463
g68
(g84
g70
NtRp5464
(dp5465
g73
(dp5466
sg82
g5460
sg75
(lp5467
g68
(g89
g70
NtRp5468
(dp5469
g73
(dp5470
sg82
g5464
sg75
(lp5471
g68
(g69
g70
NtRp5472
(dp5473
g73
(dp5474
g81
I1
ssg82
g5468
sg75
(lp5475
g3975
(S's\x08\x00\x00\x00Maestros'
tRp5476
asbasbasbag68
(g84
g70
NtRp5477
(dp5478
g73
(dp5479
sg82
g5460
sg75
(lp5480
g68
(g89
g70
NtRp5481
(dp5482
g73
(dp5483
sg82
g5477
sg75
(lp5484
g68
(g69
g70
NtRp5485
(dp5486
g73
(dp5487
g81
I1
ssg82
g5481
sg75
(lp5488
I00
asbasbasbag68
(g84
g70
NtRp5489
(dp5490
g73
(dp5491
sg82
g5460
sg75
(lp5492
g68
(g89
g70
NtRp5493
(dp5494
g73
(dp5495
sg82
g5489
sg75
(lp5496
g68
(g69
g70
NtRp5497
(dp5498
g73
(dp5499
g81
I1
ssg82
g5493
sg75
(lp5500
S'/flota/reportes/maestros'
p5501
asbasbasbasbasbasbasbag68
(g84
g70
NtRp5502
(dp5503
g73
(dp5504
sg82
g5390
sg75
(lp5505
g68
(g89
g70
NtRp5506
(dp5507
g73
(dp5508
sg82
g5502
sg75
(lp5509
g68
(g69
g70
NtRp5510
(dp5511
g73
(dp5512
g81
I2
ssg82
g5506
sg75
(lp5513
g68
(g77
g70
NtRp5514
(dp5515
g73
(dp5516
g81
I1
ssg82
Nsg75
(lp5517
g68
(g84
g70
NtRp5518
(dp5519
g73
(dp5520
sg82
g5514
sg75
(lp5521
g68
(g89
g70
NtRp5522
(dp5523
g73
(dp5524
sg82
g5518
sg75
(lp5525
g68
(g69
g70
NtRp5526
(dp5527
g73
(dp5528
g81
I1
ssg82
g5522
sg75
(lp5529
g3975
(S's\x0c\x00\x00\x00Presupuestos'
tRp5530
asbasbasbag68
(g84
g70
NtRp5531
(dp5532
g73
(dp5533
sg82
g5514
sg75
(lp5534
g68
(g89
g70
NtRp5535
(dp5536
g73
(dp5537
sg82
g5531
sg75
(lp5538
g68
(g69
g70
NtRp5539
(dp5540
g73
(dp5541
g81
I1
ssg82
g5535
sg75
(lp5542
I00
asbasbasbag68
(g84
g70
NtRp5543
(dp5544
g73
(dp5545
sg82
g5514
sg75
(lp5546
g68
(g89
g70
NtRp5547
(dp5548
g73
(dp5549
sg82
g5543
sg75
(lp5550
g68
(g69
g70
NtRp5551
(dp5552
g73
(dp5553
g81
I1
ssg82
g5547
sg75
(lp5554
S'/flota/cobro2/index'
p5555
asbasbasbag68
(g84
g70
NtRp5556
(dp5557
g73
(dp5558
sg82
g5514
sg75
(lp5559
g68
(g89
g70
NtRp5560
(dp5561
g73
(dp5562
sg82
g5556
sg75
(lp5563
g68
(g69
g70
NtRp5564
(dp5565
g73
(dp5566
g81
I1
ssg82
g5560
sg75
(lp5567
(lp5568
(g3975
(S's\x15\x00\x00\x00Todos los presupestos'
tRp5569
I00
S'/flota/reportes/presupuestos/todos'
tp5570
aasbasbasbasbasbasbasbag68
(g84
g70
NtRp5571
(dp5572
g73
(dp5573
sg82
g5390
sg75
(lp5574
g68
(g89
g70
NtRp5575
(dp5576
g73
(dp5577
sg82
g5571
sg75
(lp5578
g68
(g69
g70
NtRp5579
(dp5580
g73
(dp5581
g81
I2
ssg82
g5575
sg75
(lp5582
g68
(g77
g70
NtRp5583
(dp5584
g73
(dp5585
g81
I1
ssg82
Nsg75
(lp5586
g68
(g84
g70
NtRp5587
(dp5588
g73
(dp5589
sg82
g5583
sg75
(lp5590
g68
(g89
g70
NtRp5591
(dp5592
g73
(dp5593
sg82
g5587
sg75
(lp5594
g68
(g69
g70
NtRp5595
(dp5596
g73
(dp5597
g81
I1
ssg82
g5591
sg75
(lp5598
g3975
(S's\x0b\x00\x00\x00Facturacion'
tRp5599
asbasbasbag68
(g84
g70
NtRp5600
(dp5601
g73
(dp5602
sg82
g5583
sg75
(lp5603
g68
(g89
g70
NtRp5604
(dp5605
g73
(dp5606
sg82
g5600
sg75
(lp5607
g68
(g69
g70
NtRp5608
(dp5609
g73
(dp5610
g81
I1
ssg82
g5604
sg75
(lp5611
I00
asbasbasbag68
(g84
g70
NtRp5612
(dp5613
g73
(dp5614
sg82
g5583
sg75
(lp5615
g68
(g89
g70
NtRp5616
(dp5617
g73
(dp5618
sg82
g5612
sg75
(lp5619
g68
(g69
g70
NtRp5620
(dp5621
g73
(dp5622
g81
I1
ssg82
g5616
sg75
(lp5623
S'/flota/cobro2/index'
p5624
asbasbasbag68
(g84
g70
NtRp5625
(dp5626
g73
(dp5627
sg82
g5583
sg75
(lp5628
g68
(g89
g70
NtRp5629
(dp5630
g73
(dp5631
sg82
g5625
sg75
(lp5632
g68
(g69
g70
NtRp5633
(dp5634
g73
(dp5635
g81
I1
ssg82
g5629
sg75
(lp5636
(lp5637
(g3975
(S's\x12\x00\x00\x00Cuentas por cobrar'
tRp5638
I00
S'/flota/reportes/porcobrar/todos'
tp5639
aasbasbasbasbasbasbasbag68
(g84
g70
NtRp5640
(dp5641
g73
(dp5642
sg82
g5390
sg75
(lp5643
g68
(g89
g70
NtRp5644
(dp5645
g73
(dp5646
sg82
g5640
sg75
(lp5647
g68
(g69
g70
NtRp5648
(dp5649
g73
(dp5650
g81
I2
ssg82
g5644
sg75
(lp5651
g68
(g77
g70
NtRp5652
(dp5653
g73
(dp5654
g81
I1
ssg82
Nsg75
(lp5655
g68
(g84
g70
NtRp5656
(dp5657
g73
(dp5658
sg82
g5652
sg75
(lp5659
g68
(g89
g70
NtRp5660
(dp5661
g73
(dp5662
sg82
g5656
sg75
(lp5663
g68
(g69
g70
NtRp5664
(dp5665
g73
(dp5666
g81
I1
ssg82
g5660
sg75
(lp5667
g3975
(S's\x0b\x00\x00\x00Movimientos'
tRp5668
asbasbasbag68
(g84
g70
NtRp5669
(dp5670
g73
(dp5671
sg82
g5652
sg75
(lp5672
g68
(g89
g70
NtRp5673
(dp5674
g73
(dp5675
sg82
g5669
sg75
(lp5676
g68
(g69
g70
NtRp5677
(dp5678
g73
(dp5679
g81
I1
ssg82
g5673
sg75
(lp5680
I00
asbasbasbag68
(g84
g70
NtRp5681
(dp5682
g73
(dp5683
sg82
g5652
sg75
(lp5684
g68
(g89
g70
NtRp5685
(dp5686
g73
(dp5687
sg82
g5681
sg75
(lp5688
g68
(g69
g70
NtRp5689
(dp5690
g73
(dp5691
g81
I1
ssg82
g5685
sg75
(lp5692
S'/flota/reportes/movitos'
p5693
asbasbasbasbasbasbasbag68
(g84
g70
NtRp5694
(dp5695
g73
(dp5696
sg82
g5390
sg75
(lp5697
g68
(g89
g70
NtRp5698
(dp5699
g73
(dp5700
sg82
g5694
sg75
(lp5701
g68
(g69
g70
NtRp5702
(dp5703
g73
(dp5704
g81
I2
ssg82
g5698
sg75
(lp5705
g68
(g77
g70
NtRp5706
(dp5707
g73
(dp5708
g81
I1
ssg82
Nsg75
(lp5709
g68
(g84
g70
NtRp5710
(dp5711
g73
(dp5712
sg82
g5706
sg75
(lp5713
g68
(g89
g70
NtRp5714
(dp5715
g73
(dp5716
sg82
g5710
sg75
(lp5717
g68
(g69
g70
NtRp5718
(dp5719
g73
(dp5720
g81
I1
ssg82
g5714
sg75
(lp5721
g3975
(S's\x06\x00\x00\x00Gastos'
tRp5722
asbasbasbag68
(g84
g70
NtRp5723
(dp5724
g73
(dp5725
sg82
g5706
sg75
(lp5726
g68
(g89
g70
NtRp5727
(dp5728
g73
(dp5729
sg82
g5723
sg75
(lp5730
g68
(g69
g70
NtRp5731
(dp5732
g73
(dp5733
g81
I1
ssg82
g5727
sg75
(lp5734
I00
asbasbasbag68
(g84
g70
NtRp5735
(dp5736
g73
(dp5737
sg82
g5706
sg75
(lp5738
g68
(g89
g70
NtRp5739
(dp5740
g73
(dp5741
sg82
g5735
sg75
(lp5742
g68
(g69
g70
NtRp5743
(dp5744
g73
(dp5745
g81
I1
ssg82
g5739
sg75
(lp5746
S'/flota/reportes/gastos'
p5747
asbasbasbasbasbasbasbasbasbasbasbasbasbasbasbasbasbasbasbag68
(g84
g70
NtRp5748
(dp5749
g73
(dp5750
sg82
g3325
sg75
(lp5751
g68
(g89
g70
NtRp5752
(dp5753
g73
(dp5754
g93
g94
ssg82
g5748
sg75
(lp5755
S'meta'
p5756
asbag68
(g89
g70
NtRp5757
(dp5758
g73
(dp5759
g100
g101
ssg82
g5748
sg75
(lp5760
S':'
asbag68
(g89
g70
NtRp5761
(dp5762
g73
(dp5763
sg82
g5748
sg75
(lp5764
g68
(g69
g70
NtRp5765
(dp5766
g73
(dp5767
g81
I5
ssg82
g5761
sg75
(lp5768
g68
(g77
g70
NtRp5769
(dp5770
g73
(dp5771
g81
I4
ssg82
Nsg75
(lp5772
g68
(g84
g70
NtRp5773
(dp5774
g73
(dp5775
sg82
g5769
sg75
(lp5776
g68
(g89
g70
NtRp5777
(dp5778
g73
(dp5779
g93
g94
ssg82
g5773
sg75
(lp5780
S'author'
p5781
asbag68
(g89
g70
NtRp5782
(dp5783
g73
(dp5784
g100
g101
ssg82
g5773
sg75
(lp5785
S':'
asbag68
(g89
g70
NtRp5786
(dp5787
g73
(dp5788
sg82
g5773
sg75
(lp5789
g68
(g69
g70
NtRp5790
(dp5791
g73
(dp5792
g81
I4
ssg82
g5786
sg75
(lp5793
S'Wuelfhis Asuaje'
p5794
asbasbasbag68
(g84
g70
NtRp5795
(dp5796
g73
(dp5797
sg82
g5769
sg75
(lp5798
g68
(g89
g70
NtRp5799
(dp5800
g73
(dp5801
g93
g94
ssg82
g5795
sg75
(lp5802
S'copyright'
p5803
asbag68
(g89
g70
NtRp5804
(dp5805
g73
(dp5806
g100
g101
ssg82
g5795
sg75
(lp5807
S':'
asbag68
(g89
g70
NtRp5808
(dp5809
g73
(dp5810
sg82
g5795
sg75
(lp5811
g68
(g69
g70
NtRp5812
(dp5813
g73
(dp5814
g81
I4
ssg82
g5808
sg75
(lp5815
S'Copyright 2007-2012'
p5816
asbasbasbag68
(g84
g70
NtRp5817
(dp5818
g73
(dp5819
sg82
g5769
sg75
(lp5820
g68
(g89
g70
NtRp5821
(dp5822
g73
(dp5823
g93
g94
ssg82
g5817
sg75
(lp5824
S'description'
p5825
asbag68
(g89
g70
NtRp5826
(dp5827
g73
(dp5828
g100
g101
ssg82
g5817
sg75
(lp5829
S':'
asbag68
(g89
g70
NtRp5830
(dp5831
g73
(dp5832
sg82
g5817
sg75
(lp5833
g68
(g69
g70
NtRp5834
(dp5835
g73
(dp5836
g81
I4
ssg82
g5830
sg75
(lp5837
S'Free and open source full-stack enterprise framework for agile development of fast, scalable, secure and portable database-driven web-based applications. Written and programmable in Python'
p5838
asbasbasbag68
(g84
g70
NtRp5839
(dp5840
g73
(dp5841
sg82
g5769
sg75
(lp5842
g68
(g89
g70
NtRp5843
(dp5844
g73
(dp5845
g93
g94
ssg82
g5839
sg75
(lp5846
S'generator'
p5847
asbag68
(g89
g70
NtRp5848
(dp5849
g73
(dp5850
g100
g101
ssg82
g5839
sg75
(lp5851
S':'
asbag68
(g89
g70
NtRp5852
(dp5853
g73
(dp5854
sg82
g5839
sg75
(lp5855
g68
(g69
g70
NtRp5856
(dp5857
g73
(dp5858
g81
I4
ssg82
g5852
sg75
(lp5859
S'Web2py Enterprise Framework'
p5860
asbasbasbag68
(g84
g70
NtRp5861
(dp5862
g73
(dp5863
sg82
g5769
sg75
(lp5864
g68
(g89
g70
NtRp5865
(dp5866
g73
(dp5867
g93
g94
ssg82
g5861
sg75
(lp5868
S'keywords'
p5869
asbag68
(g89
g70
NtRp5870
(dp5871
g73
(dp5872
g100
g101
ssg82
g5861
sg75
(lp5873
S':'
asbag68
(g89
g70
NtRp5874
(dp5875
g73
(dp5876
sg82
g5861
sg75
(lp5877
g68
(g69
g70
NtRp5878
(dp5879
g73
(dp5880
g81
I4
ssg82
g5874
sg75
(lp5881
S'web2py, python, framework'
p5882
asbasbasbasbasbasbasbag68
(g84
g70
NtRp5883
(dp5884
g73
(dp5885
sg82
g3325
sg75
(lp5886
g68
(g89
g70
NtRp5887
(dp5888
g73
(dp5889
g93
g94
ssg82
g5883
sg75
(lp5890
S'models_to_run'
p5891
asbag68
(g89
g70
NtRp5892
(dp5893
g73
(dp5894
g100
g101
ssg82
g5883
sg75
(lp5895
S':'
asbag68
(g89
g70
NtRp5896
(dp5897
g73
(dp5898
sg82
g5883
sg75
(lp5899
g68
(g69
g70
NtRp5900
(dp5901
g73
(dp5902
g81
I5
ssg82
g5896
sg75
(lp5903
g68
(g77
g70
NtRp5904
(dp5905
g73
(dp5906
g81
I4
ssg82
Nsg75
(lp5907
g68
(g84
g70
NtRp5908
(dp5909
g73
(dp5910
sg82
g5904
sg75
(lp5911
g68
(g89
g70
NtRp5912
(dp5913
g73
(dp5914
sg82
g5908
sg75
(lp5915
g68
(g69
g70
NtRp5916
(dp5917
g73
(dp5918
g81
I4
ssg82
g5912
sg75
(lp5919
S'^\\w+\\.py$'
p5920
asbasbasbag68
(g84
g70
NtRp5921
(dp5922
g73
(dp5923
sg82
g5904
sg75
(lp5924
g68
(g89
g70
NtRp5925
(dp5926
g73
(dp5927
sg82
g5921
sg75
(lp5928
g68
(g69
g70
NtRp5929
(dp5930
g73
(dp5931
g81
I4
ssg82
g5925
sg75
(lp5932
S'^cobro2/\\w+\\.py$'
p5933
asbasbasbag68
(g84
g70
NtRp5934
(dp5935
g73
(dp5936
sg82
g5904
sg75
(lp5937
g68
(g89
g70
NtRp5938
(dp5939
g73
(dp5940
sg82
g5934
sg75
(lp5941
g68
(g69
g70
NtRp5942
(dp5943
g73
(dp5944
g81
I4
ssg82
g5938
sg75
(lp5945
S'^cobro2/index/\\w+\\.py$'
p5946
asbasbasbasbasbasbasbag68
(g84
g70
NtRp5947
(dp5948
g73
(dp5949
sg82
g3325
sg75
(lp5950
g68
(g89
g70
NtRp5951
(dp5952
g73
(dp5953
g93
g94
ssg82
g5947
sg75
(lp5954
S'postprocessing'
p5955
asbag68
(g89
g70
NtRp5956
(dp5957
g73
(dp5958
g100
g101
ssg82
g5947
sg75
(lp5959
S':'
asbag68
(g89
g70
NtRp5960
(dp5961
g73
(dp5962
sg82
g5947
sg75
(lp5963
g68
(g69
g70
NtRp5964
(dp5965
g73
(dp5966
g81
I5
ssg82
g5960
sg75
(lp5967
g68
(g77
g70
NtRp5968
(dp5969
g73
(dp5970
g81
I4
ssg82
Nsg75
(lp5971
sbasbasbasbag68
(g84
g70
NtRp5972
(dp5973
g73
(dp5974
sg82
g3325
sg75
(lp5975
g68
(g89
g70
NtRp5976
(dp5977
g73
(dp5978
g93
g94
ssg82
g5972
sg75
(lp5979
S'session_cookie_expires'
p5980
asbag68
(g89
g70
NtRp5981
(dp5982
g73
(dp5983
g100
g101
ssg82
g5972
sg75
(lp5984
S':'
asbag68
(g89
g70
NtRp5985
(dp5986
g73
(dp5987
sg82
g5972
sg75
(lp5988
g68
(g69
g70
NtRp5989
(dp5990
g73
(dp5991
g81
I5
ssg82
g5985
sg75
(lp5992
S'None'
p5993
asbasbasbag68
(g84
g70
NtRp5994
(dp5995
g73
(dp5996
sg82
g3325
sg75
(lp5997
g68
(g89
g70
NtRp5998
(dp5999
g73
(dp6000
g93
g94
ssg82
g5994
sg75
(lp6001
S'session_data_name'
p6002
asbag68
(g89
g70
NtRp6003
(dp6004
g73
(dp6005
g100
g101
ssg82
g5994
sg75
(lp6006
S':'
asbag68
(g89
g70
NtRp6007
(dp6008
g73
(dp6009
sg82
g5994
sg75
(lp6010
g68
(g69
g70
NtRp6011
(dp6012
g73
(dp6013
g81
I5
ssg82
g6007
sg75
(lp6014
S'session_data_flota'
p6015
asbasbasbag68
(g84
g70
NtRp6016
(dp6017
g73
(dp6018
sg82
g3325
sg75
(lp6019
g68
(g89
g70
NtRp6020
(dp6021
g73
(dp6022
g93
g94
ssg82
g6016
sg75
(lp6023
S'session_file'
p6024
asbag68
(g89
g70
NtRp6025
(dp6026
g73
(dp6027
g100
g101
ssg82
g6016
sg75
(lp6028
S':'
asbag68
(g89
g70
NtRp6029
(dp6030
g73
(dp6031
sg82
g6016
sg75
(lp6032
g68
(g69
g70
NtRp6033
(dp6034
g73
(dp6035
g81
I5
ssg82
g6029
sg75
(lp6036
S"<open file '/home/wasuaje/Documentos/desarrollo/web2py5/applications/flota/sessions/127.0.0.1-227c1349-b88e-4bb4-bbe8-d48810186339', mode 'rb+' at 0x8ef0f98>"
p6037
asbasbasbag68
(g84
g70
NtRp6038
(dp6039
g73
(dp6040
sg82
g3325
sg75
(lp6041
g68
(g89
g70
NtRp6042
(dp6043
g73
(dp6044
g93
g94
ssg82
g6038
sg75
(lp6045
S'session_filename'
p6046
asbag68
(g89
g70
NtRp6047
(dp6048
g73
(dp6049
g100
g101
ssg82
g6038
sg75
(lp6050
S':'
asbag68
(g89
g70
NtRp6051
(dp6052
g73
(dp6053
sg82
g6038
sg75
(lp6054
g68
(g69
g70
NtRp6055
(dp6056
g73
(dp6057
g81
I5
ssg82
g6051
sg75
(lp6058
S'/home/wasuaje/Documentos/desarrollo/web2py5/applications/flota/sessions/127.0.0.1-227c1349-b88e-4bb4-bbe8-d48810186339'
p6059
asbasbasbag68
(g84
g70
NtRp6060
(dp6061
g73
(dp6062
sg82
g3325
sg75
(lp6063
g68
(g89
g70
NtRp6064
(dp6065
g73
(dp6066
g93
g94
ssg82
g6060
sg75
(lp6067
S'session_id'
p6068
asbag68
(g89
g70
NtRp6069
(dp6070
g73
(dp6071
g100
g101
ssg82
g6060
sg75
(lp6072
S':'
asbag68
(g89
g70
NtRp6073
(dp6074
g73
(dp6075
sg82
g6060
sg75
(lp6076
g68
(g69
g70
NtRp6077
(dp6078
g73
(dp6079
g81
I5
ssg82
g6073
sg75
(lp6080
g292
asbasbasbag68
(g84
g70
NtRp6081
(dp6082
g73
(dp6083
sg82
g3325
sg75
(lp6084
g68
(g89
g70
NtRp6085
(dp6086
g73
(dp6087
g93
g94
ssg82
g6081
sg75
(lp6088
S'session_id_name'
p6089
asbag68
(g89
g70
NtRp6090
(dp6091
g73
(dp6092
g100
g101
ssg82
g6081
sg75
(lp6093
S':'
asbag68
(g89
g70
NtRp6094
(dp6095
g73
(dp6096
sg82
g6081
sg75
(lp6097
g68
(g69
g70
NtRp6098
(dp6099
g73
(dp6100
g81
I5
ssg82
g6094
sg75
(lp6101
g3382
asbasbasbag68
(g84
g70
NtRp6102
(dp6103
g73
(dp6104
sg82
g3325
sg75
(lp6105
g68
(g89
g70
NtRp6106
(dp6107
g73
(dp6108
g93
g94
ssg82
g6102
sg75
(lp6109
S'session_locked'
p6110
asbag68
(g89
g70
NtRp6111
(dp6112
g73
(dp6113
g100
g101
ssg82
g6102
sg75
(lp6114
S':'
asbag68
(g89
g70
NtRp6115
(dp6116
g73
(dp6117
sg82
g6102
sg75
(lp6118
g68
(g69
g70
NtRp6119
(dp6120
g73
(dp6121
g81
I5
ssg82
g6115
sg75
(lp6122
g1802
asbasbasbag68
(g84
g70
NtRp6123
(dp6124
g73
(dp6125
sg82
g3325
sg75
(lp6126
g68
(g89
g70
NtRp6127
(dp6128
g73
(dp6129
g93
g94
ssg82
g6123
sg75
(lp6130
S'session_new'
p6131
asbag68
(g89
g70
NtRp6132
(dp6133
g73
(dp6134
g100
g101
ssg82
g6123
sg75
(lp6135
S':'
asbag68
(g89
g70
NtRp6136
(dp6137
g73
(dp6138
sg82
g6123
sg75
(lp6139
g68
(g69
g70
NtRp6140
(dp6141
g73
(dp6142
g81
I5
ssg82
g6136
sg75
(lp6143
g111
asbasbasbag68
(g84
g70
NtRp6144
(dp6145
g73
(dp6146
sg82
g3325
sg75
(lp6147
g68
(g89
g70
NtRp6148
(dp6149
g73
(dp6150
g93
g94
ssg82
g6144
sg75
(lp6151
S'session_storage_type'
p6152
asbag68
(g89
g70
NtRp6153
(dp6154
g73
(dp6155
g100
g101
ssg82
g6144
sg75
(lp6156
S':'
asbag68
(g89
g70
NtRp6157
(dp6158
g73
(dp6159
sg82
g6144
sg75
(lp6160
g68
(g69
g70
NtRp6161
(dp6162
g73
(dp6163
g81
I5
ssg82
g6157
sg75
(lp6164
g3254
asbasbasbag68
(g84
g70
NtRp6165
(dp6166
g73
(dp6167
sg82
g3325
sg75
(lp6168
g68
(g89
g70
NtRp6169
(dp6170
g73
(dp6171
g93
g94
ssg82
g6165
sg75
(lp6172
S'status'
p6173
asbag68
(g89
g70
NtRp6174
(dp6175
g73
(dp6176
g100
g101
ssg82
g6165
sg75
(lp6177
S':'
asbag68
(g89
g70
NtRp6178
(dp6179
g73
(dp6180
sg82
g6165
sg75
(lp6181
g68
(g69
g70
NtRp6182
(dp6183
g73
(dp6184
g81
I5
ssg82
g6178
sg75
(lp6185
S'200'
p6186
asbasbasbag68
(g84
g70
NtRp6187
(dp6188
g73
(dp6189
sg82
g3325
sg75
(lp6190
g68
(g89
g70
NtRp6191
(dp6192
g73
(dp6193
g93
g94
ssg82
g6187
sg75
(lp6194
S'subtitle'
p6195
asbag68
(g89
g70
NtRp6196
(dp6197
g73
(dp6198
g100
g101
ssg82
g6187
sg75
(lp6199
S':'
asbag68
(g89
g70
NtRp6200
(dp6201
g73
(dp6202
sg82
g6187
sg75
(lp6203
g68
(g69
g70
NtRp6204
(dp6205
g73
(dp6206
g81
I5
ssg82
g6200
sg75
(lp6207
g3975
(S's\t\x00\x00\x00Adaptame!'
tRp6208
asbasbasbag68
(g84
g70
NtRp6209
(dp6210
g73
(dp6211
sg82
g3325
sg75
(lp6212
g68
(g89
g70
NtRp6213
(dp6214
g73
(dp6215
g93
g94
ssg82
g6209
sg75
(lp6216
S'title'
p6217
asbag68
(g89
g70
NtRp6218
(dp6219
g73
(dp6220
g100
g101
ssg82
g6209
sg75
(lp6221
S':'
asbag68
(g89
g70
NtRp6222
(dp6223
g73
(dp6224
sg82
g6209
sg75
(lp6225
g68
(g69
g70
NtRp6226
(dp6227
g73
(dp6228
g81
I5
ssg82
g6222
sg75
(lp6229
g133
asbasbasbag68
(g84
g70
NtRp6230
(dp6231
g73
(dp6232
sg82
g3325
sg75
(lp6233
g68
(g89
g70
NtRp6234
(dp6235
g73
(dp6236
g93
g94
ssg82
g6230
sg75
(lp6237
S'view'
p6238
asbag68
(g89
g70
NtRp6239
(dp6240
g73
(dp6241
g100
g101
ssg82
g6230
sg75
(lp6242
S':'
asbag68
(g89
g70
NtRp6243
(dp6244
g73
(dp6245
sg82
g6230
sg75
(lp6246
g68
(g69
g70
NtRp6247
(dp6248
g73
(dp6249
g81
I5
ssg82
g6243
sg75
(lp6250
S'cobro2/index.html'
p6251
asbasbasbasbasbsS'locals'
p6252
(dp6253
g4
S"'/home/wasuaje/Documentos/desarrollo/web2py5/applications/flota/controllers/cobro2.py'"
p6254
sg6
S"'# -*- coding: utf-8 -*-\\n### required - do no del... dict()\\n\\n\\nresponse._vars=response._caller(index)\\n'"
p6255
sssS'traceback'
p6256
S'Traceback (most recent call last):\n  File "/home/wasuaje/Documentos/desarrollo/web2py5/gluon/restricted.py", line 211, in restricted\n    ccode = compile2(code, layer)\n  File "/home/wasuaje/Documentos/desarrollo/web2py5/gluon/restricted.py", line 194, in compile2\n    return compile(code.rstrip().replace(\'\\r\\n\', \'\\n\') + \'\\n\', layer, \'exec\')\n  File "/home/wasuaje/Documentos/desarrollo/web2py5/applications/flota/controllers/cobro2.py", line 30\n    if !sidx:\n       ^\nSyntaxError: invalid syntax\n'
p6257
s.