(dp1
S'output'
p2
S"<type 'exceptions.AttributeError'> 'DAL' object has no attribute 'cobro'"
p3
sS'layer'
p4
S'/home/wasuaje/Documentos/desarrollo/web2py5/applications/flota/views/cobro2/index.html'
p5
sS'code'
p6
S'response.write(\'<!DOCTYPE html PUBLIC "-//W3C//DTD XHTML 1.0 Strict//EN" "http://www.w3.org/TR/xhtml1/DTD/xhtml1-strict.dtd">\\n<!--\\n\\nDesign by Free CSS Templates\\nhttp://www.freecsstemplates.org\\nReleased for free under a Creative Commons Attribution 2.5 License\\n\\nTitle      : Squarely\\nVersion    : 1.0\\nReleased   : 20080519\\nDescription: A two-column, fixed-width and lightweight template ideal for 1024x768 resolutions. Suitable for blogs and small websites.\\n\\n-->\\n<html xmlns="http://www.w3.org/1999/xhtml">\\n <head>\\n  <title>\\n   .:Control de Flota:.\\n  </title>\\n  \', escape=False)\nresponse.files.append(URL(request.application,\'static\',\'plugin_layouts/layouts/Squarely/default.css\'))\nresponse.write(\'\\n  \', escape=False)\nresponse.files.append(URL(\'static\',\'plugin_layouts/superfish.js\'))\nresponse.write(\'\\n  \', escape=False)\nresponse.files.insert(0,URL(\'static\',\'js/jquery.js\'))\nresponse.files.insert(1,URL(\'static\',\'css/calendar.css\'))\nresponse.files.insert(2,URL(\'static\',\'js/calendar.js\'))\nfor _item in response.meta or []:\n    response.write(\'\\n     <meta name="\', escape=False)\n    response.write(_item)\n    response.write(\'" content="\', escape=False)\n    response.write(response.meta[_item])\n    response.write(\'" />\', escape=False)\n    pass\nfor _k,_file in enumerate(response.files or []):\n    if _file in response.files[:_k]:\n        continue\n    _file0=_file.lower().split(\'?\')[0]\n    if _file0.endswith(\'.css\'):\n        response.write(\'\\n     <link href="\', escape=False)\n        response.write(_file)\n        response.write(\'" rel="stylesheet" type="text/css" />\', escape=False)\n    elif _file0.endswith(\'.js\'):\n        response.write(\'\\n     <script src="\', escape=False)\n        response.write(_file)\n        response.write(\'" type="text/javascript"></script>\', escape=False)\n        pass\n    pass\nresponse.write(\'\\n    <script type="text/javascript"><!--\\n    // These variables are used by the web2py_ajax_init function in web2py_ajax.js (which is loaded below).\\n    var w2p_ajax_confirm_message = "\', escape=False)\nresponse.write(T(\'Are you sure you want to delete this object?\'))\nresponse.write(\'";\\n    var w2p_ajax_date_format = "\', escape=False)\nresponse.write(T(\'%Y-%m-%d\'))\nresponse.write(\'";\\n    var w2p_ajax_datetime_format = "\', escape=False)\nresponse.write(T(\'%Y-%m-%d %H:%M:%S\'))\nresponse.write(\'";\\n    //--></script>\\n    <script src="\', escape=False)\nresponse.write(URL(\'static\',\'js/web2py_ajax.js\'))\nresponse.write(\'" type="text/javascript"></script>\\n\', escape=False)\nresponse.write(\'\\n  <style>\\nul.web2py-menu-vertical { width: 150px; position: relative; top:1em; left:1em;  z-index:30; border:0; margin:0; padding: 0; list-style: none; text-decoration: none;}\\nul.web2py-menu-vertical li { margin:0; padding:0; border:0; width: 150px; background: black; text-align:left;}\\nul.web2py-menu-vertical li a { margin:0; padding: 1px 3px 1px 3px; border:0; width: 144px; color: white; font-size:12px;}\\ndiv.flash { position: fixed; float: right; padding: 10px; top: 10px; right: 30px; opacity: 0.75; margin: 10px 10px 10px 10px; text-align: center; clear: both; color: #fff; font-size: 11pt; text-align: center; vertical-align: middle; cursor: pointer; background: black; border: 2px solid #fff; -moz-border-radius: 5px; -webkit-border-radius: 5px; z-index: 2; }\\ndiv.error { background-color: red; color: white; padding: 3px; }\\n.auth_navbar { text-align:right; z-index:20; position: absolute; top: 2px; right:30px; border:0; padding:0 }\\n  </style>\\n </head>\\n <body>\\n  <!-- start header -->\\n  \', escape=False)\ntry:\n    response.write(auth.navbar(action=URL(\'default\',\'user\')))\nexcept:pass\nresponse.write(\'\\n\\n  <div id="wrapper">\\n   <!-- start header -->\\n   <div id="logo">\\n    <h1>\\n     <!--\', escape=False)\nresponse.write(response.title or request.application)\nresponse.write(\'-->\\n\\t FLOTACONTROL\\n    </h1>\\n    <h2>\\n     Sistema de control de flota \\n    </h2>\\n   </div>\\n   <div id="header">\\n    <div id="menu">\\n     \', escape=False)\nresponse.write(MENU(response.menu,_class=\'web2py-menu\'))\nresponse.write(\'\\n    <script>\\n      jQuery(document).ready(function(){jQuery(\\\'ul.web2py-menu\\\').superfish({delay:400});});\\n    </script>\\n    </div>\\n   </div>\\n   <!-- end header -->\\n  </div>\\n  <!-- start page -->\\n  <div id="page">\\n   <!-- start content -->\\n   <div id="content">\\n    <div class="flash">\', escape=False)\nresponse.write(response.flash or \'\')\nresponse.write(\'</div>\\n     \\n\\t \', escape=False)\nresponse.write(\'\\n\\n<h2>Cobros</h2>\\n<hr/>\\n</br>\\n\', escape=False)\nresponse.write(plugin_jqgrid(db.cobro))\nresponse.write(\'\\n\\n\', escape=False)\nif \'grid\' in globals():\n    response.write(\'\\n\', escape=False)\n    response.write(grid)\n    response.write(\'\\n\\n\', escape=False)\nelse:\n    response.write(\'\\n\\n\', escape=False)\n    pass\nresponse.write(\'\\n\', escape=False)\nresponse.write(\'\\n\\t \\n\\t\\n   </div>\\n   <!-- end content -->\\n   <!-- start sidebar -\\n   <div id="sidebar">\\n    <ul>\\n     <li id="search">\\n      <h2>\\n       Search\\n      </h2>\\n      <form method="get" action="">\\n       <fieldset>\\n        <input type="text" id="s" name="s" value="" />\\n        <input type="submit" id="x" value="Search" />\\n       </fieldset>\\n      </form>\\n     </li>\\n     <li>\\n      <h2>\\n       Lorem Ipsum\\n      </h2>\\n      <ul>\\n       <li>\\n        <a href="#">\\n         Fusce dui neque fringilla\\n        </a>\\n       </li>\\n       <li>\\n        <a href="#">\\n         Eget tempor eget nonummy\\n        </a>\\n       </li>\\n       <li>\\n        <a href="#">\\n         Magna lacus bibendum mauris\\n        </a>\\n       </li>\\n       <li>\\n        <a href="#">\\n         Nec metus sed donec\\n        </a>\\n       </li>\\n       <li>\\n        <a href="#">\\n         Magna lacus bibendum mauris\\n        </a>\\n       </li>\\n       <li>\\n        <a href="#">\\n         Velit semper nisi molestie\\n        </a>\\n       </li>\\n       <li>\\n        <a href="#">\\n         Eget tempor eget nonummy\\n        </a>\\n       </li>\\n      </ul>\\n     </li>\\n     <li>\\n      <h2>\\n       Volutpat Dolore\\n      </h2>\\n      <ul>\\n       <li>\\n        <a href="#">\\n         Nec metus sed donec\\n        </a>\\n       </li>\\n       <li>\\n        <a href="#">\\n         Magna lacus bibendum mauris\\n        </a>\\n       </li>\\n       <li>\\n        <a href="#">\\n         Velit semper nisi molestie\\n        </a>\\n       </li>\\n       <li>\\n        <a href="#">\\n         Eget tempor eget nonummy\\n        </a>\\n       </li>\\n       <li>\\n        <a href="#">\\n         Nec metus sed donec\\n        </a>\\n       </li>\\n       <li>\\n        <a href="#">\\n         Magna lacus bibendum mauris\\n        </a>\\n       </li>\\n       <li>\\n        <a href="#">\\n         Velit semper nisi molestie\\n        </a>\\n       </li>\\n      </ul>\\n     </li>\\n    </ul>\\n   </div>\\n    end sidebar -->\\n   <div style="clear: both;">\\n    &nbsp;\\n   </div>\\n  </div>\\n  <!-- end page -->\\n  <!-- start footer -->\\n  <div id="footer">\\n   <p id="legal">\\n    ( c ) 2008. All Rights Reserved.\\n    <a href="http://www.freecsstemplates.org/">\\n     Bestfriends\\n    </a>\\n    designed by\\n    <a href="http://www.freecsstemplates.org/">\\n     Free CSS Templates\\n    </a>\\n    .\\n   </p>\\n  </div>\\n  <!-- end footer -->\\n </body>\\n</html>\\n\', escape=False)'
p7
sS'snapshot'
p8
(dp9
S'exception'
p10
(dp11
S'__hash__'
p12
S"<method-wrapper '__hash__' of exceptions.AttributeError object>"
p13
sS'__setattr__'
p14
S"<method-wrapper '__setattr__' of exceptions.AttributeError object>"
p15
sS'__reduce_ex__'
p16
S'<built-in method __reduce_ex__ of exceptions.AttributeError object>'
p17
sS'__getslice__'
p18
S"<method-wrapper '__getslice__' of exceptions.AttributeError object>"
p19
sS'__getitem__'
p20
S"<method-wrapper '__getitem__' of exceptions.AttributeError object>"
p21
sS'__setstate__'
p22
S'<built-in method __setstate__ of exceptions.AttributeError object>'
p23
sS'__reduce__'
p24
S'<built-in method __reduce__ of exceptions.AttributeError object>'
p25
sS'__str__'
p26
S"<method-wrapper '__str__' of exceptions.AttributeError object>"
p27
sS'__format__'
p28
S'<built-in method __format__ of exceptions.AttributeError object>'
p29
sS'__getattribute__'
p30
S"<method-wrapper '__getattribute__' of exceptions.AttributeError object>"
p31
sS'__class__'
p32
S"<type 'exceptions.AttributeError'>"
p33
sS'__unicode__'
p34
S'<built-in method __unicode__ of exceptions.AttributeError object>'
p35
sS'__delattr__'
p36
S"<method-wrapper '__delattr__' of exceptions.AttributeError object>"
p37
sS'__subclasshook__'
p38
S'<built-in method __subclasshook__ of type object>'
p39
sS'__repr__'
p40
S"<method-wrapper '__repr__' of exceptions.AttributeError object>"
p41
sS'args'
p42
S'("\'DAL\' object has no attribute \'cobro\'",)'
p43
sS'__dict__'
p44
S'{}'
p45
sS'__sizeof__'
p46
S'<built-in method __sizeof__ of exceptions.AttributeError object>'
p47
sS'__doc__'
p48
S"'Attribute not found.'"
p49
sS'__init__'
p50
S"<method-wrapper '__init__' of exceptions.AttributeError object>"
p51
sS'__new__'
p52
S'<built-in method __new__ of type object>'
p53
ssS'evalue'
p54
S"'DAL' object has no attribute 'cobro'"
p55
sS'request'
p56
ccopy_reg
_reconstructor
p57
(cgluon.html
BEAUTIFY
p58
c__builtin__
object
p59
NtRp60
(dp61
S'attributes'
p62
(dp63
sS'components'
p64
(lp65
g57
(cgluon.html
TABLE
p66
g59
NtRp67
(dp68
g62
(dp69
S'level'
p70
I5
ssS'parent'
p71
Nsg64
(lp72
g57
(cgluon.html
TR
p73
g59
NtRp74
(dp75
g62
(dp76
sg71
g67
sg64
(lp77
g57
(cgluon.html
TD
p78
g59
NtRp79
(dp80
g62
(dp81
S'_style'
p82
S'font-weight:bold;vertical-align:top'
p83
ssg71
g74
sg64
(lp84
S'ajax'
p85
asbag57
(g78
g59
NtRp86
(dp87
g62
(dp88
S'_valign'
p89
S'top'
p90
ssg71
g74
sg64
(lp91
S':'
asbag57
(g78
g59
NtRp92
(dp93
g62
(dp94
sg71
g74
sg64
(lp95
g57
(g58
g59
NtRp96
(dp97
g62
(dp98
g70
I5
ssg71
g92
sg64
(lp99
S'False'
p100
asbasbasbag57
(g73
g59
NtRp101
(dp102
g62
(dp103
sg71
g67
sg64
(lp104
g57
(g78
g59
NtRp105
(dp106
g62
(dp107
g82
g83
ssg71
g101
sg64
(lp108
S'application'
p109
asbag57
(g78
g59
NtRp110
(dp111
g62
(dp112
g89
g90
ssg71
g101
sg64
(lp113
S':'
asbag57
(g78
g59
NtRp114
(dp115
g62
(dp116
sg71
g101
sg64
(lp117
g57
(g58
g59
NtRp118
(dp119
g62
(dp120
g70
I5
ssg71
g114
sg64
(lp121
S'flota'
p122
asbasbasbag57
(g73
g59
NtRp123
(dp124
g62
(dp125
sg71
g67
sg64
(lp126
g57
(g78
g59
NtRp127
(dp128
g62
(dp129
g82
g83
ssg71
g123
sg64
(lp130
g42
asbag57
(g78
g59
NtRp131
(dp132
g62
(dp133
g89
g90
ssg71
g123
sg64
(lp134
S':'
asbag57
(g78
g59
NtRp135
(dp136
g62
(dp137
sg71
g123
sg64
(lp138
g57
(g58
g59
NtRp139
(dp140
g62
(dp141
g70
I5
ssg71
g135
sg64
(lp142
g57
(g66
g59
NtRp143
(dp144
g62
(dp145
g70
I4
ssg71
Nsg64
(lp146
sbasbasbasbag57
(g73
g59
NtRp147
(dp148
g62
(dp149
sg71
g67
sg64
(lp150
g57
(g78
g59
NtRp151
(dp152
g62
(dp153
g82
g83
ssg71
g147
sg64
(lp154
S'body'
p155
asbag57
(g78
g59
NtRp156
(dp157
g62
(dp158
g89
g90
ssg71
g147
sg64
(lp159
S':'
asbag57
(g78
g59
NtRp160
(dp161
g62
(dp162
sg71
g147
sg64
(lp163
g57
(g58
g59
NtRp164
(dp165
g62
(dp166
g70
I5
ssg71
g160
sg64
(lp167
S'<cStringIO.StringO object at 0xad893080>'
p168
asbasbasbag57
(g73
g59
NtRp169
(dp170
g62
(dp171
sg71
g67
sg64
(lp172
g57
(g78
g59
NtRp173
(dp174
g62
(dp175
g82
g83
ssg71
g169
sg64
(lp176
S'cid'
p177
asbag57
(g78
g59
NtRp178
(dp179
g62
(dp180
g89
g90
ssg71
g169
sg64
(lp181
S':'
asbag57
(g78
g59
NtRp182
(dp183
g62
(dp184
sg71
g169
sg64
(lp185
g57
(g58
g59
NtRp186
(dp187
g62
(dp188
g70
I5
ssg71
g182
sg64
(lp189
S'None'
p190
asbasbasbag57
(g73
g59
NtRp191
(dp192
g62
(dp193
sg71
g67
sg64
(lp194
g57
(g78
g59
NtRp195
(dp196
g62
(dp197
g82
g83
ssg71
g191
sg64
(lp198
S'client'
p199
asbag57
(g78
g59
NtRp200
(dp201
g62
(dp202
g89
g90
ssg71
g191
sg64
(lp203
S':'
asbag57
(g78
g59
NtRp204
(dp205
g62
(dp206
sg71
g191
sg64
(lp207
g57
(g58
g59
NtRp208
(dp209
g62
(dp210
g70
I5
ssg71
g204
sg64
(lp211
S'127.0.0.1'
p212
asbasbasbag57
(g73
g59
NtRp213
(dp214
g62
(dp215
sg71
g67
sg64
(lp216
g57
(g78
g59
NtRp217
(dp218
g62
(dp219
g82
g83
ssg71
g213
sg64
(lp220
S'controller'
p221
asbag57
(g78
g59
NtRp222
(dp223
g62
(dp224
g89
g90
ssg71
g213
sg64
(lp225
S':'
asbag57
(g78
g59
NtRp226
(dp227
g62
(dp228
sg71
g213
sg64
(lp229
g57
(g58
g59
NtRp230
(dp231
g62
(dp232
g70
I5
ssg71
g226
sg64
(lp233
S'cobro2'
p234
asbasbasbag57
(g73
g59
NtRp235
(dp236
g62
(dp237
sg71
g67
sg64
(lp238
g57
(g78
g59
NtRp239
(dp240
g62
(dp241
g82
g83
ssg71
g235
sg64
(lp242
S'cookies'
p243
asbag57
(g78
g59
NtRp244
(dp245
g62
(dp246
g89
g90
ssg71
g235
sg64
(lp247
S':'
asbag57
(g78
g59
NtRp248
(dp249
g62
(dp250
sg71
g235
sg64
(lp251
g57
(g58
g59
NtRp252
(dp253
g62
(dp254
g70
I5
ssg71
g248
sg64
(lp255
g57
(g66
g59
NtRp256
(dp257
g62
(dp258
g70
I4
ssg71
Nsg64
(lp259
g57
(g73
g59
NtRp260
(dp261
g62
(dp262
sg71
g256
sg64
(lp263
g57
(g78
g59
NtRp264
(dp265
g62
(dp266
g82
g83
ssg71
g260
sg64
(lp267
S'session_id_admin'
p268
asbag57
(g78
g59
NtRp269
(dp270
g62
(dp271
g89
g90
ssg71
g260
sg64
(lp272
S':'
asbag57
(g78
g59
NtRp273
(dp274
g62
(dp275
sg71
g260
sg64
(lp276
g57
(g58
g59
NtRp277
(dp278
g62
(dp279
g70
I4
ssg71
g273
sg64
(lp280
S'127.0.0.1-5c1b3d16-6e97-4af3-8fde-d320400f80f4'
p281
ag57
(g66
g59
NtRp282
(dp283
g62
(dp284
g70
I3
ssg71
Nsg64
(lp285
g57
(g73
g59
NtRp286
(dp287
g62
(dp288
sg71
g282
sg64
(lp289
g57
(g78
g59
NtRp290
(dp291
g62
(dp292
g82
g83
ssg71
g286
sg64
(lp293
S'comment'
p294
asbag57
(g78
g59
NtRp295
(dp296
g62
(dp297
g89
g90
ssg71
g286
sg64
(lp298
S':'
asbag57
(g78
g59
NtRp299
(dp300
g62
(dp301
sg71
g286
sg64
(lp302
g57
(g58
g59
NtRp303
(dp304
g62
(dp305
g70
I3
ssg71
g299
sg64
(lp306
S''
asbasbasbag57
(g73
g59
NtRp307
(dp308
g62
(dp309
sg71
g282
sg64
(lp310
g57
(g78
g59
NtRp311
(dp312
g62
(dp313
g82
g83
ssg71
g307
sg64
(lp314
S'domain'
p315
asbag57
(g78
g59
NtRp316
(dp317
g62
(dp318
g89
g90
ssg71
g307
sg64
(lp319
S':'
asbag57
(g78
g59
NtRp320
(dp321
g62
(dp322
sg71
g307
sg64
(lp323
g57
(g58
g59
NtRp324
(dp325
g62
(dp326
g70
I3
ssg71
g320
sg64
(lp327
S''
asbasbasbag57
(g73
g59
NtRp328
(dp329
g62
(dp330
sg71
g282
sg64
(lp331
g57
(g78
g59
NtRp332
(dp333
g62
(dp334
g82
g83
ssg71
g328
sg64
(lp335
S'expires'
p336
asbag57
(g78
g59
NtRp337
(dp338
g62
(dp339
g89
g90
ssg71
g328
sg64
(lp340
S':'
asbag57
(g78
g59
NtRp341
(dp342
g62
(dp343
sg71
g328
sg64
(lp344
g57
(g58
g59
NtRp345
(dp346
g62
(dp347
g70
I3
ssg71
g341
sg64
(lp348
S''
asbasbasbag57
(g73
g59
NtRp349
(dp350
g62
(dp351
sg71
g282
sg64
(lp352
g57
(g78
g59
NtRp353
(dp354
g62
(dp355
g82
g83
ssg71
g349
sg64
(lp356
S'httponly'
p357
asbag57
(g78
g59
NtRp358
(dp359
g62
(dp360
g89
g90
ssg71
g349
sg64
(lp361
S':'
asbag57
(g78
g59
NtRp362
(dp363
g62
(dp364
sg71
g349
sg64
(lp365
g57
(g58
g59
NtRp366
(dp367
g62
(dp368
g70
I3
ssg71
g362
sg64
(lp369
S''
asbasbasbag57
(g73
g59
NtRp370
(dp371
g62
(dp372
sg71
g282
sg64
(lp373
g57
(g78
g59
NtRp374
(dp375
g62
(dp376
g82
g83
ssg71
g370
sg64
(lp377
S'max-age'
p378
asbag57
(g78
g59
NtRp379
(dp380
g62
(dp381
g89
g90
ssg71
g370
sg64
(lp382
S':'
asbag57
(g78
g59
NtRp383
(dp384
g62
(dp385
sg71
g370
sg64
(lp386
g57
(g58
g59
NtRp387
(dp388
g62
(dp389
g70
I3
ssg71
g383
sg64
(lp390
S''
asbasbasbag57
(g73
g59
NtRp391
(dp392
g62
(dp393
sg71
g282
sg64
(lp394
g57
(g78
g59
NtRp395
(dp396
g62
(dp397
g82
g83
ssg71
g391
sg64
(lp398
S'path'
p399
asbag57
(g78
g59
NtRp400
(dp401
g62
(dp402
g89
g90
ssg71
g391
sg64
(lp403
S':'
asbag57
(g78
g59
NtRp404
(dp405
g62
(dp406
sg71
g391
sg64
(lp407
g57
(g58
g59
NtRp408
(dp409
g62
(dp410
g70
I3
ssg71
g404
sg64
(lp411
S''
asbasbasbag57
(g73
g59
NtRp412
(dp413
g62
(dp414
sg71
g282
sg64
(lp415
g57
(g78
g59
NtRp416
(dp417
g62
(dp418
g82
g83
ssg71
g412
sg64
(lp419
S'secure'
p420
asbag57
(g78
g59
NtRp421
(dp422
g62
(dp423
g89
g90
ssg71
g412
sg64
(lp424
S':'
asbag57
(g78
g59
NtRp425
(dp426
g62
(dp427
sg71
g412
sg64
(lp428
g57
(g58
g59
NtRp429
(dp430
g62
(dp431
g70
I3
ssg71
g425
sg64
(lp432
S''
asbasbasbag57
(g73
g59
NtRp433
(dp434
g62
(dp435
sg71
g282
sg64
(lp436
g57
(g78
g59
NtRp437
(dp438
g62
(dp439
g82
g83
ssg71
g433
sg64
(lp440
S'version'
p441
asbag57
(g78
g59
NtRp442
(dp443
g62
(dp444
g89
g90
ssg71
g433
sg64
(lp445
S':'
asbag57
(g78
g59
NtRp446
(dp447
g62
(dp448
sg71
g433
sg64
(lp449
g57
(g58
g59
NtRp450
(dp451
g62
(dp452
g70
I3
ssg71
g446
sg64
(lp453
S''
asbasbasbasbasbasbasbag57
(g73
g59
NtRp454
(dp455
g62
(dp456
sg71
g256
sg64
(lp457
g57
(g78
g59
NtRp458
(dp459
g62
(dp460
g82
g83
ssg71
g454
sg64
(lp461
S'session_id_flota'
p462
asbag57
(g78
g59
NtRp463
(dp464
g62
(dp465
g89
g90
ssg71
g454
sg64
(lp466
S':'
asbag57
(g78
g59
NtRp467
(dp468
g62
(dp469
sg71
g454
sg64
(lp470
g57
(g58
g59
NtRp471
(dp472
g62
(dp473
g70
I4
ssg71
g467
sg64
(lp474
S'127.0.0.1-2318b8f8-1fb4-4280-8d04-88c459a3d745'
p475
ag57
(g66
g59
NtRp476
(dp477
g62
(dp478
g70
I3
ssg71
Nsg64
(lp479
g57
(g73
g59
NtRp480
(dp481
g62
(dp482
sg71
g476
sg64
(lp483
g57
(g78
g59
NtRp484
(dp485
g62
(dp486
g82
g83
ssg71
g480
sg64
(lp487
g294
asbag57
(g78
g59
NtRp488
(dp489
g62
(dp490
g89
g90
ssg71
g480
sg64
(lp491
S':'
asbag57
(g78
g59
NtRp492
(dp493
g62
(dp494
sg71
g480
sg64
(lp495
g57
(g58
g59
NtRp496
(dp497
g62
(dp498
g70
I3
ssg71
g492
sg64
(lp499
S''
asbasbasbag57
(g73
g59
NtRp500
(dp501
g62
(dp502
sg71
g476
sg64
(lp503
g57
(g78
g59
NtRp504
(dp505
g62
(dp506
g82
g83
ssg71
g500
sg64
(lp507
g315
asbag57
(g78
g59
NtRp508
(dp509
g62
(dp510
g89
g90
ssg71
g500
sg64
(lp511
S':'
asbag57
(g78
g59
NtRp512
(dp513
g62
(dp514
sg71
g500
sg64
(lp515
g57
(g58
g59
NtRp516
(dp517
g62
(dp518
g70
I3
ssg71
g512
sg64
(lp519
S''
asbasbasbag57
(g73
g59
NtRp520
(dp521
g62
(dp522
sg71
g476
sg64
(lp523
g57
(g78
g59
NtRp524
(dp525
g62
(dp526
g82
g83
ssg71
g520
sg64
(lp527
g336
asbag57
(g78
g59
NtRp528
(dp529
g62
(dp530
g89
g90
ssg71
g520
sg64
(lp531
S':'
asbag57
(g78
g59
NtRp532
(dp533
g62
(dp534
sg71
g520
sg64
(lp535
g57
(g58
g59
NtRp536
(dp537
g62
(dp538
g70
I3
ssg71
g532
sg64
(lp539
S''
asbasbasbag57
(g73
g59
NtRp540
(dp541
g62
(dp542
sg71
g476
sg64
(lp543
g57
(g78
g59
NtRp544
(dp545
g62
(dp546
g82
g83
ssg71
g540
sg64
(lp547
g357
asbag57
(g78
g59
NtRp548
(dp549
g62
(dp550
g89
g90
ssg71
g540
sg64
(lp551
S':'
asbag57
(g78
g59
NtRp552
(dp553
g62
(dp554
sg71
g540
sg64
(lp555
g57
(g58
g59
NtRp556
(dp557
g62
(dp558
g70
I3
ssg71
g552
sg64
(lp559
S''
asbasbasbag57
(g73
g59
NtRp560
(dp561
g62
(dp562
sg71
g476
sg64
(lp563
g57
(g78
g59
NtRp564
(dp565
g62
(dp566
g82
g83
ssg71
g560
sg64
(lp567
g378
asbag57
(g78
g59
NtRp568
(dp569
g62
(dp570
g89
g90
ssg71
g560
sg64
(lp571
S':'
asbag57
(g78
g59
NtRp572
(dp573
g62
(dp574
sg71
g560
sg64
(lp575
g57
(g58
g59
NtRp576
(dp577
g62
(dp578
g70
I3
ssg71
g572
sg64
(lp579
S''
asbasbasbag57
(g73
g59
NtRp580
(dp581
g62
(dp582
sg71
g476
sg64
(lp583
g57
(g78
g59
NtRp584
(dp585
g62
(dp586
g82
g83
ssg71
g580
sg64
(lp587
g399
asbag57
(g78
g59
NtRp588
(dp589
g62
(dp590
g89
g90
ssg71
g580
sg64
(lp591
S':'
asbag57
(g78
g59
NtRp592
(dp593
g62
(dp594
sg71
g580
sg64
(lp595
g57
(g58
g59
NtRp596
(dp597
g62
(dp598
g70
I3
ssg71
g592
sg64
(lp599
S''
asbasbasbag57
(g73
g59
NtRp600
(dp601
g62
(dp602
sg71
g476
sg64
(lp603
g57
(g78
g59
NtRp604
(dp605
g62
(dp606
g82
g83
ssg71
g600
sg64
(lp607
g420
asbag57
(g78
g59
NtRp608
(dp609
g62
(dp610
g89
g90
ssg71
g600
sg64
(lp611
S':'
asbag57
(g78
g59
NtRp612
(dp613
g62
(dp614
sg71
g600
sg64
(lp615
g57
(g58
g59
NtRp616
(dp617
g62
(dp618
g70
I3
ssg71
g612
sg64
(lp619
S''
asbasbasbag57
(g73
g59
NtRp620
(dp621
g62
(dp622
sg71
g476
sg64
(lp623
g57
(g78
g59
NtRp624
(dp625
g62
(dp626
g82
g83
ssg71
g620
sg64
(lp627
g441
asbag57
(g78
g59
NtRp628
(dp629
g62
(dp630
g89
g90
ssg71
g620
sg64
(lp631
S':'
asbag57
(g78
g59
NtRp632
(dp633
g62
(dp634
sg71
g620
sg64
(lp635
g57
(g58
g59
NtRp636
(dp637
g62
(dp638
g70
I3
ssg71
g632
sg64
(lp639
S''
asbasbasbasbasbasbasbag57
(g73
g59
NtRp640
(dp641
g62
(dp642
sg71
g256
sg64
(lp643
g57
(g78
g59
NtRp644
(dp645
g62
(dp646
g82
g83
ssg71
g640
sg64
(lp647
S'session_id_pyrest'
p648
asbag57
(g78
g59
NtRp649
(dp650
g62
(dp651
g89
g90
ssg71
g640
sg64
(lp652
S':'
asbag57
(g78
g59
NtRp653
(dp654
g62
(dp655
sg71
g640
sg64
(lp656
g57
(g58
g59
NtRp657
(dp658
g62
(dp659
g70
I4
ssg71
g653
sg64
(lp660
S'127.0.0.1-adadd0db-c240-4ea8-9681-bd188b14643c'
p661
ag57
(g66
g59
NtRp662
(dp663
g62
(dp664
g70
I3
ssg71
Nsg64
(lp665
g57
(g73
g59
NtRp666
(dp667
g62
(dp668
sg71
g662
sg64
(lp669
g57
(g78
g59
NtRp670
(dp671
g62
(dp672
g82
g83
ssg71
g666
sg64
(lp673
g294
asbag57
(g78
g59
NtRp674
(dp675
g62
(dp676
g89
g90
ssg71
g666
sg64
(lp677
S':'
asbag57
(g78
g59
NtRp678
(dp679
g62
(dp680
sg71
g666
sg64
(lp681
g57
(g58
g59
NtRp682
(dp683
g62
(dp684
g70
I3
ssg71
g678
sg64
(lp685
S''
asbasbasbag57
(g73
g59
NtRp686
(dp687
g62
(dp688
sg71
g662
sg64
(lp689
g57
(g78
g59
NtRp690
(dp691
g62
(dp692
g82
g83
ssg71
g686
sg64
(lp693
g315
asbag57
(g78
g59
NtRp694
(dp695
g62
(dp696
g89
g90
ssg71
g686
sg64
(lp697
S':'
asbag57
(g78
g59
NtRp698
(dp699
g62
(dp700
sg71
g686
sg64
(lp701
g57
(g58
g59
NtRp702
(dp703
g62
(dp704
g70
I3
ssg71
g698
sg64
(lp705
S''
asbasbasbag57
(g73
g59
NtRp706
(dp707
g62
(dp708
sg71
g662
sg64
(lp709
g57
(g78
g59
NtRp710
(dp711
g62
(dp712
g82
g83
ssg71
g706
sg64
(lp713
g336
asbag57
(g78
g59
NtRp714
(dp715
g62
(dp716
g89
g90
ssg71
g706
sg64
(lp717
S':'
asbag57
(g78
g59
NtRp718
(dp719
g62
(dp720
sg71
g706
sg64
(lp721
g57
(g58
g59
NtRp722
(dp723
g62
(dp724
g70
I3
ssg71
g718
sg64
(lp725
S''
asbasbasbag57
(g73
g59
NtRp726
(dp727
g62
(dp728
sg71
g662
sg64
(lp729
g57
(g78
g59
NtRp730
(dp731
g62
(dp732
g82
g83
ssg71
g726
sg64
(lp733
g357
asbag57
(g78
g59
NtRp734
(dp735
g62
(dp736
g89
g90
ssg71
g726
sg64
(lp737
S':'
asbag57
(g78
g59
NtRp738
(dp739
g62
(dp740
sg71
g726
sg64
(lp741
g57
(g58
g59
NtRp742
(dp743
g62
(dp744
g70
I3
ssg71
g738
sg64
(lp745
S''
asbasbasbag57
(g73
g59
NtRp746
(dp747
g62
(dp748
sg71
g662
sg64
(lp749
g57
(g78
g59
NtRp750
(dp751
g62
(dp752
g82
g83
ssg71
g746
sg64
(lp753
g378
asbag57
(g78
g59
NtRp754
(dp755
g62
(dp756
g89
g90
ssg71
g746
sg64
(lp757
S':'
asbag57
(g78
g59
NtRp758
(dp759
g62
(dp760
sg71
g746
sg64
(lp761
g57
(g58
g59
NtRp762
(dp763
g62
(dp764
g70
I3
ssg71
g758
sg64
(lp765
S''
asbasbasbag57
(g73
g59
NtRp766
(dp767
g62
(dp768
sg71
g662
sg64
(lp769
g57
(g78
g59
NtRp770
(dp771
g62
(dp772
g82
g83
ssg71
g766
sg64
(lp773
g399
asbag57
(g78
g59
NtRp774
(dp775
g62
(dp776
g89
g90
ssg71
g766
sg64
(lp777
S':'
asbag57
(g78
g59
NtRp778
(dp779
g62
(dp780
sg71
g766
sg64
(lp781
g57
(g58
g59
NtRp782
(dp783
g62
(dp784
g70
I3
ssg71
g778
sg64
(lp785
S''
asbasbasbag57
(g73
g59
NtRp786
(dp787
g62
(dp788
sg71
g662
sg64
(lp789
g57
(g78
g59
NtRp790
(dp791
g62
(dp792
g82
g83
ssg71
g786
sg64
(lp793
g420
asbag57
(g78
g59
NtRp794
(dp795
g62
(dp796
g89
g90
ssg71
g786
sg64
(lp797
S':'
asbag57
(g78
g59
NtRp798
(dp799
g62
(dp800
sg71
g786
sg64
(lp801
g57
(g58
g59
NtRp802
(dp803
g62
(dp804
g70
I3
ssg71
g798
sg64
(lp805
S''
asbasbasbag57
(g73
g59
NtRp806
(dp807
g62
(dp808
sg71
g662
sg64
(lp809
g57
(g78
g59
NtRp810
(dp811
g62
(dp812
g82
g83
ssg71
g806
sg64
(lp813
g441
asbag57
(g78
g59
NtRp814
(dp815
g62
(dp816
g89
g90
ssg71
g806
sg64
(lp817
S':'
asbag57
(g78
g59
NtRp818
(dp819
g62
(dp820
sg71
g806
sg64
(lp821
g57
(g58
g59
NtRp822
(dp823
g62
(dp824
g70
I3
ssg71
g818
sg64
(lp825
S''
asbasbasbasbasbasbasbag57
(g73
g59
NtRp826
(dp827
g62
(dp828
sg71
g256
sg64
(lp829
g57
(g78
g59
NtRp830
(dp831
g62
(dp832
g82
g83
ssg71
g826
sg64
(lp833
S'session_id_welcome'
p834
asbag57
(g78
g59
NtRp835
(dp836
g62
(dp837
g89
g90
ssg71
g826
sg64
(lp838
S':'
asbag57
(g78
g59
NtRp839
(dp840
g62
(dp841
sg71
g826
sg64
(lp842
g57
(g58
g59
NtRp843
(dp844
g62
(dp845
g70
I4
ssg71
g839
sg64
(lp846
S'127.0.0.1-bc34c639-e39b-411b-94b9-1487093ce970'
p847
ag57
(g66
g59
NtRp848
(dp849
g62
(dp850
g70
I3
ssg71
Nsg64
(lp851
g57
(g73
g59
NtRp852
(dp853
g62
(dp854
sg71
g848
sg64
(lp855
g57
(g78
g59
NtRp856
(dp857
g62
(dp858
g82
g83
ssg71
g852
sg64
(lp859
g294
asbag57
(g78
g59
NtRp860
(dp861
g62
(dp862
g89
g90
ssg71
g852
sg64
(lp863
S':'
asbag57
(g78
g59
NtRp864
(dp865
g62
(dp866
sg71
g852
sg64
(lp867
g57
(g58
g59
NtRp868
(dp869
g62
(dp870
g70
I3
ssg71
g864
sg64
(lp871
S''
asbasbasbag57
(g73
g59
NtRp872
(dp873
g62
(dp874
sg71
g848
sg64
(lp875
g57
(g78
g59
NtRp876
(dp877
g62
(dp878
g82
g83
ssg71
g872
sg64
(lp879
g315
asbag57
(g78
g59
NtRp880
(dp881
g62
(dp882
g89
g90
ssg71
g872
sg64
(lp883
S':'
asbag57
(g78
g59
NtRp884
(dp885
g62
(dp886
sg71
g872
sg64
(lp887
g57
(g58
g59
NtRp888
(dp889
g62
(dp890
g70
I3
ssg71
g884
sg64
(lp891
S''
asbasbasbag57
(g73
g59
NtRp892
(dp893
g62
(dp894
sg71
g848
sg64
(lp895
g57
(g78
g59
NtRp896
(dp897
g62
(dp898
g82
g83
ssg71
g892
sg64
(lp899
g336
asbag57
(g78
g59
NtRp900
(dp901
g62
(dp902
g89
g90
ssg71
g892
sg64
(lp903
S':'
asbag57
(g78
g59
NtRp904
(dp905
g62
(dp906
sg71
g892
sg64
(lp907
g57
(g58
g59
NtRp908
(dp909
g62
(dp910
g70
I3
ssg71
g904
sg64
(lp911
S''
asbasbasbag57
(g73
g59
NtRp912
(dp913
g62
(dp914
sg71
g848
sg64
(lp915
g57
(g78
g59
NtRp916
(dp917
g62
(dp918
g82
g83
ssg71
g912
sg64
(lp919
g357
asbag57
(g78
g59
NtRp920
(dp921
g62
(dp922
g89
g90
ssg71
g912
sg64
(lp923
S':'
asbag57
(g78
g59
NtRp924
(dp925
g62
(dp926
sg71
g912
sg64
(lp927
g57
(g58
g59
NtRp928
(dp929
g62
(dp930
g70
I3
ssg71
g924
sg64
(lp931
S''
asbasbasbag57
(g73
g59
NtRp932
(dp933
g62
(dp934
sg71
g848
sg64
(lp935
g57
(g78
g59
NtRp936
(dp937
g62
(dp938
g82
g83
ssg71
g932
sg64
(lp939
g378
asbag57
(g78
g59
NtRp940
(dp941
g62
(dp942
g89
g90
ssg71
g932
sg64
(lp943
S':'
asbag57
(g78
g59
NtRp944
(dp945
g62
(dp946
sg71
g932
sg64
(lp947
g57
(g58
g59
NtRp948
(dp949
g62
(dp950
g70
I3
ssg71
g944
sg64
(lp951
S''
asbasbasbag57
(g73
g59
NtRp952
(dp953
g62
(dp954
sg71
g848
sg64
(lp955
g57
(g78
g59
NtRp956
(dp957
g62
(dp958
g82
g83
ssg71
g952
sg64
(lp959
g399
asbag57
(g78
g59
NtRp960
(dp961
g62
(dp962
g89
g90
ssg71
g952
sg64
(lp963
S':'
asbag57
(g78
g59
NtRp964
(dp965
g62
(dp966
sg71
g952
sg64
(lp967
g57
(g58
g59
NtRp968
(dp969
g62
(dp970
g70
I3
ssg71
g964
sg64
(lp971
S''
asbasbasbag57
(g73
g59
NtRp972
(dp973
g62
(dp974
sg71
g848
sg64
(lp975
g57
(g78
g59
NtRp976
(dp977
g62
(dp978
g82
g83
ssg71
g972
sg64
(lp979
g420
asbag57
(g78
g59
NtRp980
(dp981
g62
(dp982
g89
g90
ssg71
g972
sg64
(lp983
S':'
asbag57
(g78
g59
NtRp984
(dp985
g62
(dp986
sg71
g972
sg64
(lp987
g57
(g58
g59
NtRp988
(dp989
g62
(dp990
g70
I3
ssg71
g984
sg64
(lp991
S''
asbasbasbag57
(g73
g59
NtRp992
(dp993
g62
(dp994
sg71
g848
sg64
(lp995
g57
(g78
g59
NtRp996
(dp997
g62
(dp998
g82
g83
ssg71
g992
sg64
(lp999
g441
asbag57
(g78
g59
NtRp1000
(dp1001
g62
(dp1002
g89
g90
ssg71
g992
sg64
(lp1003
S':'
asbag57
(g78
g59
NtRp1004
(dp1005
g62
(dp1006
sg71
g992
sg64
(lp1007
g57
(g58
g59
NtRp1008
(dp1009
g62
(dp1010
g70
I3
ssg71
g1004
sg64
(lp1011
S''
asbasbasbasbasbasbasbasbasbasbasbag57
(g73
g59
NtRp1012
(dp1013
g62
(dp1014
sg71
g67
sg64
(lp1015
g57
(g78
g59
NtRp1016
(dp1017
g62
(dp1018
g82
g83
ssg71
g1012
sg64
(lp1019
S'env'
p1020
asbag57
(g78
g59
NtRp1021
(dp1022
g62
(dp1023
g89
g90
ssg71
g1012
sg64
(lp1024
S':'
asbag57
(g78
g59
NtRp1025
(dp1026
g62
(dp1027
sg71
g1012
sg64
(lp1028
g57
(g58
g59
NtRp1029
(dp1030
g62
(dp1031
g70
I5
ssg71
g1025
sg64
(lp1032
g57
(g66
g59
NtRp1033
(dp1034
g62
(dp1035
g70
I4
ssg71
Nsg64
(lp1036
g57
(g73
g59
NtRp1037
(dp1038
g62
(dp1039
sg71
g1033
sg64
(lp1040
g57
(g78
g59
NtRp1041
(dp1042
g62
(dp1043
g82
g83
ssg71
g1037
sg64
(lp1044
S'app_folders'
p1045
asbag57
(g78
g59
NtRp1046
(dp1047
g62
(dp1048
g89
g90
ssg71
g1037
sg64
(lp1049
S':'
asbag57
(g78
g59
NtRp1050
(dp1051
g62
(dp1052
sg71
g1037
sg64
(lp1053
g57
(g58
g59
NtRp1054
(dp1055
g62
(dp1056
g70
I4
ssg71
g1050
sg64
(lp1057
S"set(['/home/wasuaje/Documentos/desarrollo/web2py5/applications/welcome/', '/home/wasuaje/Documentos/desarrollo/web2py5/applications/flota/', '/home/wasuaje/Documentos/desarrollo/web2py5/applications/admin/'])"
p1058
asbasbasbag57
(g73
g59
NtRp1059
(dp1060
g62
(dp1061
sg71
g1033
sg64
(lp1062
g57
(g78
g59
NtRp1063
(dp1064
g62
(dp1065
g82
g83
ssg71
g1059
sg64
(lp1066
S'applications_parent'
p1067
asbag57
(g78
g59
NtRp1068
(dp1069
g62
(dp1070
g89
g90
ssg71
g1059
sg64
(lp1071
S':'
asbag57
(g78
g59
NtRp1072
(dp1073
g62
(dp1074
sg71
g1059
sg64
(lp1075
g57
(g58
g59
NtRp1076
(dp1077
g62
(dp1078
g70
I4
ssg71
g1072
sg64
(lp1079
S'/home/wasuaje/Documentos/desarrollo/web2py5'
p1080
asbasbasbag57
(g73
g59
NtRp1081
(dp1082
g62
(dp1083
sg71
g1033
sg64
(lp1084
g57
(g78
g59
NtRp1085
(dp1086
g62
(dp1087
g82
g83
ssg71
g1081
sg64
(lp1088
S'cmd_args'
p1089
asbag57
(g78
g59
NtRp1090
(dp1091
g62
(dp1092
g89
g90
ssg71
g1081
sg64
(lp1093
S':'
asbag57
(g78
g59
NtRp1094
(dp1095
g62
(dp1096
sg71
g1081
sg64
(lp1097
g57
(g58
g59
NtRp1098
(dp1099
g62
(dp1100
g70
I4
ssg71
g1094
sg64
(lp1101
g57
(g66
g59
NtRp1102
(dp1103
g62
(dp1104
g70
I3
ssg71
Nsg64
(lp1105
sbasbasbasbag57
(g73
g59
NtRp1106
(dp1107
g62
(dp1108
sg71
g1033
sg64
(lp1109
g57
(g78
g59
NtRp1110
(dp1111
g62
(dp1112
g82
g83
ssg71
g1106
sg64
(lp1113
S'cmd_options'
p1114
asbag57
(g78
g59
NtRp1115
(dp1116
g62
(dp1117
g89
g90
ssg71
g1106
sg64
(lp1118
S':'
asbag57
(g78
g59
NtRp1119
(dp1120
g62
(dp1121
sg71
g1106
sg64
(lp1122
g57
(g58
g59
NtRp1123
(dp1124
g62
(dp1125
g70
I4
ssg71
g1119
sg64
(lp1126
S"<Values at 0xa40c0ec: {'verbose': False, 'ip': '127.0.0.1', 'with_scheduler': False, 'ips': [], 'shutdown_timeout': 5, 'taskbar': False, 'port': 8000, 'maxthreads': None, 'softcron': False, 'server_name': 'wasuaje-desktop', 'bpython': False, 'nogui': False, 'pid_filename': 'httpserver.pid', 'extcron': False, 'runcron': False, 'run_system_tests': False, 'test': None, 'folder': '/home/wasuaje/Documentos/desarrollo/web2py5', 'config': '', 'import_models': False, 'winservice': '', 'shell': None, 'run': '', 'log_filename': 'httpserver.log', 'debuglevel': 30, 'args': [''], 'socket_timeout': 5, 'ssl_ca_certificate': None, 'scheduler': None, 'profiler_filename': None, 'ssl_private_key': '', 'scheduler_groups': None, 'password': '<ask>', 'request_queue_size': 5, 'ssl_certificate': '', 'cronjob': False, 'numthreads': None, 'quiet': False, 'interfaces': None, 'minthreads': None, 'timeout': 10, 'plain': False, 'nobanner': False}>"
p1127
asbasbasbag57
(g73
g59
NtRp1128
(dp1129
g62
(dp1130
sg71
g1033
sg64
(lp1131
g57
(g78
g59
NtRp1132
(dp1133
g62
(dp1134
g82
g83
ssg71
g1128
sg64
(lp1135
S'db_sessions'
p1136
asbag57
(g78
g59
NtRp1137
(dp1138
g62
(dp1139
g89
g90
ssg71
g1128
sg64
(lp1140
S':'
asbag57
(g78
g59
NtRp1141
(dp1142
g62
(dp1143
sg71
g1128
sg64
(lp1144
g57
(g58
g59
NtRp1145
(dp1146
g62
(dp1147
g70
I4
ssg71
g1141
sg64
(lp1148
S'set([])'
p1149
asbasbasbag57
(g73
g59
NtRp1150
(dp1151
g62
(dp1152
sg71
g1033
sg64
(lp1153
g57
(g78
g59
NtRp1154
(dp1155
g62
(dp1156
g82
g83
ssg71
g1150
sg64
(lp1157
S'debugging'
p1158
asbag57
(g78
g59
NtRp1159
(dp1160
g62
(dp1161
g89
g90
ssg71
g1150
sg64
(lp1162
S':'
asbag57
(g78
g59
NtRp1163
(dp1164
g62
(dp1165
sg71
g1150
sg64
(lp1166
g57
(g58
g59
NtRp1167
(dp1168
g62
(dp1169
g70
I4
ssg71
g1163
sg64
(lp1170
g100
asbasbasbag57
(g73
g59
NtRp1171
(dp1172
g62
(dp1173
sg71
g1033
sg64
(lp1174
g57
(g78
g59
NtRp1175
(dp1176
g62
(dp1177
g82
g83
ssg71
g1171
sg64
(lp1178
S'gluon_parent'
p1179
asbag57
(g78
g59
NtRp1180
(dp1181
g62
(dp1182
g89
g90
ssg71
g1171
sg64
(lp1183
S':'
asbag57
(g78
g59
NtRp1184
(dp1185
g62
(dp1186
sg71
g1171
sg64
(lp1187
g57
(g58
g59
NtRp1188
(dp1189
g62
(dp1190
g70
I4
ssg71
g1184
sg64
(lp1191
S'/home/wasuaje/Documentos/desarrollo/web2py5'
p1192
asbasbasbag57
(g73
g59
NtRp1193
(dp1194
g62
(dp1195
sg71
g1033
sg64
(lp1196
g57
(g78
g59
NtRp1197
(dp1198
g62
(dp1199
g82
g83
ssg71
g1193
sg64
(lp1200
S'http_accept'
p1201
asbag57
(g78
g59
NtRp1202
(dp1203
g62
(dp1204
g89
g90
ssg71
g1193
sg64
(lp1205
S':'
asbag57
(g78
g59
NtRp1206
(dp1207
g62
(dp1208
sg71
g1193
sg64
(lp1209
g57
(g58
g59
NtRp1210
(dp1211
g62
(dp1212
g70
I4
ssg71
g1206
sg64
(lp1213
S'text/html,application/xhtml+xml,application/xml;q=0.9,*/*;q=0.8'
p1214
asbasbasbag57
(g73
g59
NtRp1215
(dp1216
g62
(dp1217
sg71
g1033
sg64
(lp1218
g57
(g78
g59
NtRp1219
(dp1220
g62
(dp1221
g82
g83
ssg71
g1215
sg64
(lp1222
S'http_accept_encoding'
p1223
asbag57
(g78
g59
NtRp1224
(dp1225
g62
(dp1226
g89
g90
ssg71
g1215
sg64
(lp1227
S':'
asbag57
(g78
g59
NtRp1228
(dp1229
g62
(dp1230
sg71
g1215
sg64
(lp1231
g57
(g58
g59
NtRp1232
(dp1233
g62
(dp1234
g70
I4
ssg71
g1228
sg64
(lp1235
S'gzip, deflate'
p1236
asbasbasbag57
(g73
g59
NtRp1237
(dp1238
g62
(dp1239
sg71
g1033
sg64
(lp1240
g57
(g78
g59
NtRp1241
(dp1242
g62
(dp1243
g82
g83
ssg71
g1237
sg64
(lp1244
S'http_accept_language'
p1245
asbag57
(g78
g59
NtRp1246
(dp1247
g62
(dp1248
g89
g90
ssg71
g1237
sg64
(lp1249
S':'
asbag57
(g78
g59
NtRp1250
(dp1251
g62
(dp1252
sg71
g1237
sg64
(lp1253
g57
(g58
g59
NtRp1254
(dp1255
g62
(dp1256
g70
I4
ssg71
g1250
sg64
(lp1257
S'es-MX,es-ES;q=0.8,es-AR;q=0.7,es;q=0.5,en-US;q=0.3,en;q=0.2'
p1258
asbasbasbag57
(g73
g59
NtRp1259
(dp1260
g62
(dp1261
sg71
g1033
sg64
(lp1262
g57
(g78
g59
NtRp1263
(dp1264
g62
(dp1265
g82
g83
ssg71
g1259
sg64
(lp1266
S'http_cache_control'
p1267
asbag57
(g78
g59
NtRp1268
(dp1269
g62
(dp1270
g89
g90
ssg71
g1259
sg64
(lp1271
S':'
asbag57
(g78
g59
NtRp1272
(dp1273
g62
(dp1274
sg71
g1259
sg64
(lp1275
g57
(g58
g59
NtRp1276
(dp1277
g62
(dp1278
g70
I4
ssg71
g1272
sg64
(lp1279
S'max-age=0'
p1280
asbasbasbag57
(g73
g59
NtRp1281
(dp1282
g62
(dp1283
sg71
g1033
sg64
(lp1284
g57
(g78
g59
NtRp1285
(dp1286
g62
(dp1287
g82
g83
ssg71
g1281
sg64
(lp1288
S'http_connection'
p1289
asbag57
(g78
g59
NtRp1290
(dp1291
g62
(dp1292
g89
g90
ssg71
g1281
sg64
(lp1293
S':'
asbag57
(g78
g59
NtRp1294
(dp1295
g62
(dp1296
sg71
g1281
sg64
(lp1297
g57
(g58
g59
NtRp1298
(dp1299
g62
(dp1300
g70
I4
ssg71
g1294
sg64
(lp1301
S'keep-alive'
p1302
asbasbasbag57
(g73
g59
NtRp1303
(dp1304
g62
(dp1305
sg71
g1033
sg64
(lp1306
g57
(g78
g59
NtRp1307
(dp1308
g62
(dp1309
g82
g83
ssg71
g1303
sg64
(lp1310
S'http_cookie'
p1311
asbag57
(g78
g59
NtRp1312
(dp1313
g62
(dp1314
g89
g90
ssg71
g1303
sg64
(lp1315
S':'
asbag57
(g78
g59
NtRp1316
(dp1317
g62
(dp1318
sg71
g1303
sg64
(lp1319
g57
(g58
g59
NtRp1320
(dp1321
g62
(dp1322
g70
I4
ssg71
g1316
sg64
(lp1323
S'session_id_welcome=127.0.0.1-bc34c639-e39b-411b-94b9-1487093ce970; session_id_admin=127.0.0.1-5c1b3d16-6e97-4af3-8fde-d320400f80f4; session_id_pyrest=127.0.0.1-adadd0db-c240-4ea8-9681-bd188b14643c; session_id_flota=127.0.0.1-2318b8f8-1fb4-4280-8d04-88c459a3d745'
p1324
asbasbasbag57
(g73
g59
NtRp1325
(dp1326
g62
(dp1327
sg71
g1033
sg64
(lp1328
g57
(g78
g59
NtRp1329
(dp1330
g62
(dp1331
g82
g83
ssg71
g1325
sg64
(lp1332
S'http_host'
p1333
asbag57
(g78
g59
NtRp1334
(dp1335
g62
(dp1336
g89
g90
ssg71
g1325
sg64
(lp1337
S':'
asbag57
(g78
g59
NtRp1338
(dp1339
g62
(dp1340
sg71
g1325
sg64
(lp1341
g57
(g58
g59
NtRp1342
(dp1343
g62
(dp1344
g70
I4
ssg71
g1338
sg64
(lp1345
S'127.0.0.1:8000'
p1346
asbasbasbag57
(g73
g59
NtRp1347
(dp1348
g62
(dp1349
sg71
g1033
sg64
(lp1350
g57
(g78
g59
NtRp1351
(dp1352
g62
(dp1353
g82
g83
ssg71
g1347
sg64
(lp1354
S'http_user_agent'
p1355
asbag57
(g78
g59
NtRp1356
(dp1357
g62
(dp1358
g89
g90
ssg71
g1347
sg64
(lp1359
S':'
asbag57
(g78
g59
NtRp1360
(dp1361
g62
(dp1362
sg71
g1347
sg64
(lp1363
g57
(g58
g59
NtRp1364
(dp1365
g62
(dp1366
g70
I4
ssg71
g1360
sg64
(lp1367
S'Mozilla/5.0 (X11; Ubuntu; Linux i686; rv:18.0) Gecko/20100101 Firefox/18.0'
p1368
asbasbasbag57
(g73
g59
NtRp1369
(dp1370
g62
(dp1371
sg71
g1033
sg64
(lp1372
g57
(g78
g59
NtRp1373
(dp1374
g62
(dp1375
g82
g83
ssg71
g1369
sg64
(lp1376
S'is_jython'
p1377
asbag57
(g78
g59
NtRp1378
(dp1379
g62
(dp1380
g89
g90
ssg71
g1369
sg64
(lp1381
S':'
asbag57
(g78
g59
NtRp1382
(dp1383
g62
(dp1384
sg71
g1369
sg64
(lp1385
g57
(g58
g59
NtRp1386
(dp1387
g62
(dp1388
g70
I4
ssg71
g1382
sg64
(lp1389
g100
asbasbasbag57
(g73
g59
NtRp1390
(dp1391
g62
(dp1392
sg71
g1033
sg64
(lp1393
g57
(g78
g59
NtRp1394
(dp1395
g62
(dp1396
g82
g83
ssg71
g1390
sg64
(lp1397
S'is_pypy'
p1398
asbag57
(g78
g59
NtRp1399
(dp1400
g62
(dp1401
g89
g90
ssg71
g1390
sg64
(lp1402
S':'
asbag57
(g78
g59
NtRp1403
(dp1404
g62
(dp1405
sg71
g1390
sg64
(lp1406
g57
(g58
g59
NtRp1407
(dp1408
g62
(dp1409
g70
I4
ssg71
g1403
sg64
(lp1410
g100
asbasbasbag57
(g73
g59
NtRp1411
(dp1412
g62
(dp1413
sg71
g1033
sg64
(lp1414
g57
(g78
g59
NtRp1415
(dp1416
g62
(dp1417
g82
g83
ssg71
g1411
sg64
(lp1418
S'local_hosts'
p1419
asbag57
(g78
g59
NtRp1420
(dp1421
g62
(dp1422
g89
g90
ssg71
g1411
sg64
(lp1423
S':'
asbag57
(g78
g59
NtRp1424
(dp1425
g62
(dp1426
sg71
g1411
sg64
(lp1427
g57
(g58
g59
NtRp1428
(dp1429
g62
(dp1430
g70
I4
ssg71
g1424
sg64
(lp1431
g57
(g66
g59
NtRp1432
(dp1433
g62
(dp1434
g70
I3
ssg71
Nsg64
(lp1435
g57
(g73
g59
NtRp1436
(dp1437
g62
(dp1438
sg71
g1432
sg64
(lp1439
g57
(g78
g59
NtRp1440
(dp1441
g62
(dp1442
sg71
g1436
sg64
(lp1443
g57
(g58
g59
NtRp1444
(dp1445
g62
(dp1446
g70
I3
ssg71
g1440
sg64
(lp1447
S'127.0.1.1'
p1448
asbasbasbag57
(g73
g59
NtRp1449
(dp1450
g62
(dp1451
sg71
g1432
sg64
(lp1452
g57
(g78
g59
NtRp1453
(dp1454
g62
(dp1455
sg71
g1449
sg64
(lp1456
g57
(g58
g59
NtRp1457
(dp1458
g62
(dp1459
g70
I3
ssg71
g1453
sg64
(lp1460
S'::1'
p1461
asbasbasbag57
(g73
g59
NtRp1462
(dp1463
g62
(dp1464
sg71
g1432
sg64
(lp1465
g57
(g78
g59
NtRp1466
(dp1467
g62
(dp1468
sg71
g1462
sg64
(lp1469
g57
(g58
g59
NtRp1470
(dp1471
g62
(dp1472
g70
I3
ssg71
g1466
sg64
(lp1473
S'wasuaje-desktop'
p1474
asbasbasbag57
(g73
g59
NtRp1475
(dp1476
g62
(dp1477
sg71
g1432
sg64
(lp1478
g57
(g78
g59
NtRp1479
(dp1480
g62
(dp1481
sg71
g1475
sg64
(lp1482
g57
(g58
g59
NtRp1483
(dp1484
g62
(dp1485
g70
I3
ssg71
g1479
sg64
(lp1486
S'::ffff:127.0.0.1'
p1487
asbasbasbag57
(g73
g59
NtRp1488
(dp1489
g62
(dp1490
sg71
g1432
sg64
(lp1491
g57
(g78
g59
NtRp1492
(dp1493
g62
(dp1494
sg71
g1488
sg64
(lp1495
g57
(g58
g59
NtRp1496
(dp1497
g62
(dp1498
g70
I3
ssg71
g1492
sg64
(lp1499
S'127.0.0.1'
p1500
asbasbasbasbasbasbasbag57
(g73
g59
NtRp1501
(dp1502
g62
(dp1503
sg71
g1033
sg64
(lp1504
g57
(g78
g59
NtRp1505
(dp1506
g62
(dp1507
g82
g83
ssg71
g1501
sg64
(lp1508
S'path_info'
p1509
asbag57
(g78
g59
NtRp1510
(dp1511
g62
(dp1512
g89
g90
ssg71
g1501
sg64
(lp1513
S':'
asbag57
(g78
g59
NtRp1514
(dp1515
g62
(dp1516
sg71
g1501
sg64
(lp1517
g57
(g58
g59
NtRp1518
(dp1519
g62
(dp1520
g70
I4
ssg71
g1514
sg64
(lp1521
S'/flota/cobro2/'
p1522
asbasbasbag57
(g73
g59
NtRp1523
(dp1524
g62
(dp1525
sg71
g1033
sg64
(lp1526
g57
(g78
g59
NtRp1527
(dp1528
g62
(dp1529
g82
g83
ssg71
g1523
sg64
(lp1530
S'query_string'
p1531
asbag57
(g78
g59
NtRp1532
(dp1533
g62
(dp1534
g89
g90
ssg71
g1523
sg64
(lp1535
S':'
asbag57
(g78
g59
NtRp1536
(dp1537
g62
(dp1538
sg71
g1523
sg64
(lp1539
g57
(g58
g59
NtRp1540
(dp1541
g62
(dp1542
g70
I4
ssg71
g1536
sg64
(lp1543
S''
asbasbasbag57
(g73
g59
NtRp1544
(dp1545
g62
(dp1546
sg71
g1033
sg64
(lp1547
g57
(g78
g59
NtRp1548
(dp1549
g62
(dp1550
g82
g83
ssg71
g1544
sg64
(lp1551
S'remote_addr'
p1552
asbag57
(g78
g59
NtRp1553
(dp1554
g62
(dp1555
g89
g90
ssg71
g1544
sg64
(lp1556
S':'
asbag57
(g78
g59
NtRp1557
(dp1558
g62
(dp1559
sg71
g1544
sg64
(lp1560
g57
(g58
g59
NtRp1561
(dp1562
g62
(dp1563
g70
I4
ssg71
g1557
sg64
(lp1564
g212
asbasbasbag57
(g73
g59
NtRp1565
(dp1566
g62
(dp1567
sg71
g1033
sg64
(lp1568
g57
(g78
g59
NtRp1569
(dp1570
g62
(dp1571
g82
g83
ssg71
g1565
sg64
(lp1572
S'remote_port'
p1573
asbag57
(g78
g59
NtRp1574
(dp1575
g62
(dp1576
g89
g90
ssg71
g1565
sg64
(lp1577
S':'
asbag57
(g78
g59
NtRp1578
(dp1579
g62
(dp1580
sg71
g1565
sg64
(lp1581
g57
(g58
g59
NtRp1582
(dp1583
g62
(dp1584
g70
I4
ssg71
g1578
sg64
(lp1585
S'34716'
p1586
asbasbasbag57
(g73
g59
NtRp1587
(dp1588
g62
(dp1589
sg71
g1033
sg64
(lp1590
g57
(g78
g59
NtRp1591
(dp1592
g62
(dp1593
g82
g83
ssg71
g1587
sg64
(lp1594
S'request_method'
p1595
asbag57
(g78
g59
NtRp1596
(dp1597
g62
(dp1598
g89
g90
ssg71
g1587
sg64
(lp1599
S':'
asbag57
(g78
g59
NtRp1600
(dp1601
g62
(dp1602
sg71
g1587
sg64
(lp1603
g57
(g58
g59
NtRp1604
(dp1605
g62
(dp1606
g70
I4
ssg71
g1600
sg64
(lp1607
S'GET'
p1608
asbasbasbag57
(g73
g59
NtRp1609
(dp1610
g62
(dp1611
sg71
g1033
sg64
(lp1612
g57
(g78
g59
NtRp1613
(dp1614
g62
(dp1615
g82
g83
ssg71
g1609
sg64
(lp1616
S'request_uri'
p1617
asbag57
(g78
g59
NtRp1618
(dp1619
g62
(dp1620
g89
g90
ssg71
g1609
sg64
(lp1621
S':'
asbag57
(g78
g59
NtRp1622
(dp1623
g62
(dp1624
sg71
g1609
sg64
(lp1625
g57
(g58
g59
NtRp1626
(dp1627
g62
(dp1628
g70
I4
ssg71
g1622
sg64
(lp1629
g1522
asbasbasbag57
(g73
g59
NtRp1630
(dp1631
g62
(dp1632
sg71
g1033
sg64
(lp1633
g57
(g78
g59
NtRp1634
(dp1635
g62
(dp1636
g82
g83
ssg71
g1630
sg64
(lp1637
S'script_name'
p1638
asbag57
(g78
g59
NtRp1639
(dp1640
g62
(dp1641
g89
g90
ssg71
g1630
sg64
(lp1642
S':'
asbag57
(g78
g59
NtRp1643
(dp1644
g62
(dp1645
sg71
g1630
sg64
(lp1646
g57
(g58
g59
NtRp1647
(dp1648
g62
(dp1649
g70
I4
ssg71
g1643
sg64
(lp1650
S''
asbasbasbag57
(g73
g59
NtRp1651
(dp1652
g62
(dp1653
sg71
g1033
sg64
(lp1654
g57
(g78
g59
NtRp1655
(dp1656
g62
(dp1657
g82
g83
ssg71
g1651
sg64
(lp1658
S'server_name'
p1659
asbag57
(g78
g59
NtRp1660
(dp1661
g62
(dp1662
g89
g90
ssg71
g1651
sg64
(lp1663
S':'
asbag57
(g78
g59
NtRp1664
(dp1665
g62
(dp1666
sg71
g1651
sg64
(lp1667
g57
(g58
g59
NtRp1668
(dp1669
g62
(dp1670
g70
I4
ssg71
g1664
sg64
(lp1671
S'wasuaje-desktop'
p1672
asbasbasbag57
(g73
g59
NtRp1673
(dp1674
g62
(dp1675
sg71
g1033
sg64
(lp1676
g57
(g78
g59
NtRp1677
(dp1678
g62
(dp1679
g82
g83
ssg71
g1673
sg64
(lp1680
S'server_port'
p1681
asbag57
(g78
g59
NtRp1682
(dp1683
g62
(dp1684
g89
g90
ssg71
g1673
sg64
(lp1685
S':'
asbag57
(g78
g59
NtRp1686
(dp1687
g62
(dp1688
sg71
g1673
sg64
(lp1689
g57
(g58
g59
NtRp1690
(dp1691
g62
(dp1692
g70
I4
ssg71
g1686
sg64
(lp1693
S'8000'
p1694
asbasbasbag57
(g73
g59
NtRp1695
(dp1696
g62
(dp1697
sg71
g1033
sg64
(lp1698
g57
(g78
g59
NtRp1699
(dp1700
g62
(dp1701
g82
g83
ssg71
g1695
sg64
(lp1702
S'server_protocol'
p1703
asbag57
(g78
g59
NtRp1704
(dp1705
g62
(dp1706
g89
g90
ssg71
g1695
sg64
(lp1707
S':'
asbag57
(g78
g59
NtRp1708
(dp1709
g62
(dp1710
sg71
g1695
sg64
(lp1711
g57
(g58
g59
NtRp1712
(dp1713
g62
(dp1714
g70
I4
ssg71
g1708
sg64
(lp1715
S'HTTP/1.1'
p1716
asbasbasbag57
(g73
g59
NtRp1717
(dp1718
g62
(dp1719
sg71
g1033
sg64
(lp1720
g57
(g78
g59
NtRp1721
(dp1722
g62
(dp1723
g82
g83
ssg71
g1717
sg64
(lp1724
S'server_software'
p1725
asbag57
(g78
g59
NtRp1726
(dp1727
g62
(dp1728
g89
g90
ssg71
g1717
sg64
(lp1729
S':'
asbag57
(g78
g59
NtRp1730
(dp1731
g62
(dp1732
sg71
g1717
sg64
(lp1733
g57
(g58
g59
NtRp1734
(dp1735
g62
(dp1736
g70
I4
ssg71
g1730
sg64
(lp1737
S'Rocket 1.2.6'
p1738
asbasbasbag57
(g73
g59
NtRp1739
(dp1740
g62
(dp1741
sg71
g1033
sg64
(lp1742
g57
(g78
g59
NtRp1743
(dp1744
g62
(dp1745
g82
g83
ssg71
g1739
sg64
(lp1746
S'web2py_path'
p1747
asbag57
(g78
g59
NtRp1748
(dp1749
g62
(dp1750
g89
g90
ssg71
g1739
sg64
(lp1751
S':'
asbag57
(g78
g59
NtRp1752
(dp1753
g62
(dp1754
sg71
g1739
sg64
(lp1755
g57
(g58
g59
NtRp1756
(dp1757
g62
(dp1758
g70
I4
ssg71
g1752
sg64
(lp1759
g1080
asbasbasbag57
(g73
g59
NtRp1760
(dp1761
g62
(dp1762
sg71
g1033
sg64
(lp1763
g57
(g78
g59
NtRp1764
(dp1765
g62
(dp1766
g82
g83
ssg71
g1760
sg64
(lp1767
S'web2py_version'
p1768
asbag57
(g78
g59
NtRp1769
(dp1770
g62
(dp1771
g89
g90
ssg71
g1760
sg64
(lp1772
S':'
asbag57
(g78
g59
NtRp1773
(dp1774
g62
(dp1775
sg71
g1760
sg64
(lp1776
g57
(g58
g59
NtRp1777
(dp1778
g62
(dp1779
g70
I4
ssg71
g1773
sg64
(lp1780
g57
(g66
g59
NtRp1781
(dp1782
g62
(dp1783
g70
I3
ssg71
Nsg64
(lp1784
g57
(g73
g59
NtRp1785
(dp1786
g62
(dp1787
sg71
g1781
sg64
(lp1788
g57
(g78
g59
NtRp1789
(dp1790
g62
(dp1791
sg71
g1785
sg64
(lp1792
g57
(g58
g59
NtRp1793
(dp1794
g62
(dp1795
g70
I3
ssg71
g1789
sg64
(lp1796
S'2'
asbasbasbag57
(g73
g59
NtRp1797
(dp1798
g62
(dp1799
sg71
g1781
sg64
(lp1800
g57
(g78
g59
NtRp1801
(dp1802
g62
(dp1803
sg71
g1797
sg64
(lp1804
g57
(g58
g59
NtRp1805
(dp1806
g62
(dp1807
g70
I3
ssg71
g1801
sg64
(lp1808
S'3'
asbasbasbag57
(g73
g59
NtRp1809
(dp1810
g62
(dp1811
sg71
g1781
sg64
(lp1812
g57
(g78
g59
NtRp1813
(dp1814
g62
(dp1815
sg71
g1809
sg64
(lp1816
g57
(g58
g59
NtRp1817
(dp1818
g62
(dp1819
g70
I3
ssg71
g1813
sg64
(lp1820
S'2'
asbasbasbag57
(g73
g59
NtRp1821
(dp1822
g62
(dp1823
sg71
g1781
sg64
(lp1824
g57
(g78
g59
NtRp1825
(dp1826
g62
(dp1827
sg71
g1821
sg64
(lp1828
g57
(g58
g59
NtRp1829
(dp1830
g62
(dp1831
g70
I3
ssg71
g1825
sg64
(lp1832
S'datetime.datetime(2012, 12, 17, 15, 3, 30)'
p1833
asbasbasbag57
(g73
g59
NtRp1834
(dp1835
g62
(dp1836
sg71
g1781
sg64
(lp1837
g57
(g78
g59
NtRp1838
(dp1839
g62
(dp1840
sg71
g1834
sg64
(lp1841
g57
(g58
g59
NtRp1842
(dp1843
g62
(dp1844
g70
I3
ssg71
g1838
sg64
(lp1845
S'stable'
p1846
asbasbasbasbasbasbasbag57
(g73
g59
NtRp1847
(dp1848
g62
(dp1849
sg71
g1033
sg64
(lp1850
g57
(g78
g59
NtRp1851
(dp1852
g62
(dp1853
g82
g83
ssg71
g1847
sg64
(lp1854
S'wsgi_errors'
p1855
asbag57
(g78
g59
NtRp1856
(dp1857
g62
(dp1858
g89
g90
ssg71
g1847
sg64
(lp1859
S':'
asbag57
(g78
g59
NtRp1860
(dp1861
g62
(dp1862
sg71
g1847
sg64
(lp1863
g57
(g58
g59
NtRp1864
(dp1865
g62
(dp1866
g70
I4
ssg71
g1860
sg64
(lp1867
S"<open file '<stderr>', mode 'w' at 0xb754b0d0>"
p1868
asbasbasbag57
(g73
g59
NtRp1869
(dp1870
g62
(dp1871
sg71
g1033
sg64
(lp1872
g57
(g78
g59
NtRp1873
(dp1874
g62
(dp1875
g82
g83
ssg71
g1869
sg64
(lp1876
S'wsgi_file_wrapper'
p1877
asbag57
(g78
g59
NtRp1878
(dp1879
g62
(dp1880
g89
g90
ssg71
g1869
sg64
(lp1881
S':'
asbag57
(g78
g59
NtRp1882
(dp1883
g62
(dp1884
sg71
g1869
sg64
(lp1885
g57
(g58
g59
NtRp1886
(dp1887
g62
(dp1888
g70
I4
ssg71
g1882
sg64
(lp1889
S'<class wsgiref.util.FileWrapper at 0xa3c42fc>'
p1890
asbasbasbag57
(g73
g59
NtRp1891
(dp1892
g62
(dp1893
sg71
g1033
sg64
(lp1894
g57
(g78
g59
NtRp1895
(dp1896
g62
(dp1897
g82
g83
ssg71
g1891
sg64
(lp1898
S'wsgi_input'
p1899
asbag57
(g78
g59
NtRp1900
(dp1901
g62
(dp1902
g89
g90
ssg71
g1891
sg64
(lp1903
S':'
asbag57
(g78
g59
NtRp1904
(dp1905
g62
(dp1906
sg71
g1891
sg64
(lp1907
g57
(g58
g59
NtRp1908
(dp1909
g62
(dp1910
g70
I4
ssg71
g1904
sg64
(lp1911
S'<socket._fileobject object at 0xaccadd6c>'
p1912
asbasbasbag57
(g73
g59
NtRp1913
(dp1914
g62
(dp1915
sg71
g1033
sg64
(lp1916
g57
(g78
g59
NtRp1917
(dp1918
g62
(dp1919
g82
g83
ssg71
g1913
sg64
(lp1920
S'wsgi_multiprocess'
p1921
asbag57
(g78
g59
NtRp1922
(dp1923
g62
(dp1924
g89
g90
ssg71
g1913
sg64
(lp1925
S':'
asbag57
(g78
g59
NtRp1926
(dp1927
g62
(dp1928
sg71
g1913
sg64
(lp1929
g57
(g58
g59
NtRp1930
(dp1931
g62
(dp1932
g70
I4
ssg71
g1926
sg64
(lp1933
g100
asbasbasbag57
(g73
g59
NtRp1934
(dp1935
g62
(dp1936
sg71
g1033
sg64
(lp1937
g57
(g78
g59
NtRp1938
(dp1939
g62
(dp1940
g82
g83
ssg71
g1934
sg64
(lp1941
S'wsgi_multithread'
p1942
asbag57
(g78
g59
NtRp1943
(dp1944
g62
(dp1945
g89
g90
ssg71
g1934
sg64
(lp1946
S':'
asbag57
(g78
g59
NtRp1947
(dp1948
g62
(dp1949
sg71
g1934
sg64
(lp1950
g57
(g58
g59
NtRp1951
(dp1952
g62
(dp1953
g70
I4
ssg71
g1947
sg64
(lp1954
S'True'
p1955
asbasbasbag57
(g73
g59
NtRp1956
(dp1957
g62
(dp1958
sg71
g1033
sg64
(lp1959
g57
(g78
g59
NtRp1960
(dp1961
g62
(dp1962
g82
g83
ssg71
g1956
sg64
(lp1963
S'wsgi_run_once'
p1964
asbag57
(g78
g59
NtRp1965
(dp1966
g62
(dp1967
g89
g90
ssg71
g1956
sg64
(lp1968
S':'
asbag57
(g78
g59
NtRp1969
(dp1970
g62
(dp1971
sg71
g1956
sg64
(lp1972
g57
(g58
g59
NtRp1973
(dp1974
g62
(dp1975
g70
I4
ssg71
g1969
sg64
(lp1976
g100
asbasbasbag57
(g73
g59
NtRp1977
(dp1978
g62
(dp1979
sg71
g1033
sg64
(lp1980
g57
(g78
g59
NtRp1981
(dp1982
g62
(dp1983
g82
g83
ssg71
g1977
sg64
(lp1984
S'wsgi_url_scheme'
p1985
asbag57
(g78
g59
NtRp1986
(dp1987
g62
(dp1988
g89
g90
ssg71
g1977
sg64
(lp1989
S':'
asbag57
(g78
g59
NtRp1990
(dp1991
g62
(dp1992
sg71
g1977
sg64
(lp1993
g57
(g58
g59
NtRp1994
(dp1995
g62
(dp1996
g70
I4
ssg71
g1990
sg64
(lp1997
S'http'
p1998
asbasbasbag57
(g73
g59
NtRp1999
(dp2000
g62
(dp2001
sg71
g1033
sg64
(lp2002
g57
(g78
g59
NtRp2003
(dp2004
g62
(dp2005
g82
g83
ssg71
g1999
sg64
(lp2006
S'wsgi_version'
p2007
asbag57
(g78
g59
NtRp2008
(dp2009
g62
(dp2010
g89
g90
ssg71
g1999
sg64
(lp2011
S':'
asbag57
(g78
g59
NtRp2012
(dp2013
g62
(dp2014
sg71
g1999
sg64
(lp2015
g57
(g58
g59
NtRp2016
(dp2017
g62
(dp2018
g70
I4
ssg71
g2012
sg64
(lp2019
g57
(g66
g59
NtRp2020
(dp2021
g62
(dp2022
g70
I3
ssg71
Nsg64
(lp2023
g57
(g73
g59
NtRp2024
(dp2025
g62
(dp2026
sg71
g2020
sg64
(lp2027
g57
(g78
g59
NtRp2028
(dp2029
g62
(dp2030
sg71
g2024
sg64
(lp2031
g57
(g58
g59
NtRp2032
(dp2033
g62
(dp2034
g70
I3
ssg71
g2028
sg64
(lp2035
S'1'
asbasbasbag57
(g73
g59
NtRp2036
(dp2037
g62
(dp2038
sg71
g2020
sg64
(lp2039
g57
(g78
g59
NtRp2040
(dp2041
g62
(dp2042
sg71
g2036
sg64
(lp2043
g57
(g58
g59
NtRp2044
(dp2045
g62
(dp2046
g70
I3
ssg71
g2040
sg64
(lp2047
S'0'
asbasbasbasbasbasbasbasbasbasbasbag57
(g73
g59
NtRp2048
(dp2049
g62
(dp2050
sg71
g67
sg64
(lp2051
g57
(g78
g59
NtRp2052
(dp2053
g62
(dp2054
g82
g83
ssg71
g2048
sg64
(lp2055
S'extension'
p2056
asbag57
(g78
g59
NtRp2057
(dp2058
g62
(dp2059
g89
g90
ssg71
g2048
sg64
(lp2060
S':'
asbag57
(g78
g59
NtRp2061
(dp2062
g62
(dp2063
sg71
g2048
sg64
(lp2064
g57
(g58
g59
NtRp2065
(dp2066
g62
(dp2067
g70
I5
ssg71
g2061
sg64
(lp2068
S'html'
p2069
asbasbasbag57
(g73
g59
NtRp2070
(dp2071
g62
(dp2072
sg71
g67
sg64
(lp2073
g57
(g78
g59
NtRp2074
(dp2075
g62
(dp2076
g82
g83
ssg71
g2070
sg64
(lp2077
S'folder'
p2078
asbag57
(g78
g59
NtRp2079
(dp2080
g62
(dp2081
g89
g90
ssg71
g2070
sg64
(lp2082
S':'
asbag57
(g78
g59
NtRp2083
(dp2084
g62
(dp2085
sg71
g2070
sg64
(lp2086
g57
(g58
g59
NtRp2087
(dp2088
g62
(dp2089
g70
I5
ssg71
g2083
sg64
(lp2090
S'/home/wasuaje/Documentos/desarrollo/web2py5/applications/flota/'
p2091
asbasbasbag57
(g73
g59
NtRp2092
(dp2093
g62
(dp2094
sg71
g67
sg64
(lp2095
g57
(g78
g59
NtRp2096
(dp2097
g62
(dp2098
g82
g83
ssg71
g2092
sg64
(lp2099
S'function'
p2100
asbag57
(g78
g59
NtRp2101
(dp2102
g62
(dp2103
g89
g90
ssg71
g2092
sg64
(lp2104
S':'
asbag57
(g78
g59
NtRp2105
(dp2106
g62
(dp2107
sg71
g2092
sg64
(lp2108
g57
(g58
g59
NtRp2109
(dp2110
g62
(dp2111
g70
I5
ssg71
g2105
sg64
(lp2112
S'index'
p2113
asbasbasbag57
(g73
g59
NtRp2114
(dp2115
g62
(dp2116
sg71
g67
sg64
(lp2117
g57
(g78
g59
NtRp2118
(dp2119
g62
(dp2120
g82
g83
ssg71
g2114
sg64
(lp2121
S'get_vars'
p2122
asbag57
(g78
g59
NtRp2123
(dp2124
g62
(dp2125
g89
g90
ssg71
g2114
sg64
(lp2126
S':'
asbag57
(g78
g59
NtRp2127
(dp2128
g62
(dp2129
sg71
g2114
sg64
(lp2130
g57
(g58
g59
NtRp2131
(dp2132
g62
(dp2133
g70
I5
ssg71
g2127
sg64
(lp2134
g57
(g66
g59
NtRp2135
(dp2136
g62
(dp2137
g70
I4
ssg71
Nsg64
(lp2138
sbasbasbasbag57
(g73
g59
NtRp2139
(dp2140
g62
(dp2141
sg71
g67
sg64
(lp2142
g57
(g78
g59
NtRp2143
(dp2144
g62
(dp2145
g82
g83
ssg71
g2139
sg64
(lp2146
S'global_settings'
p2147
asbag57
(g78
g59
NtRp2148
(dp2149
g62
(dp2150
g89
g90
ssg71
g2139
sg64
(lp2151
S':'
asbag57
(g78
g59
NtRp2152
(dp2153
g62
(dp2154
sg71
g2139
sg64
(lp2155
g57
(g58
g59
NtRp2156
(dp2157
g62
(dp2158
g70
I5
ssg71
g2152
sg64
(lp2159
g57
(g66
g59
NtRp2160
(dp2161
g62
(dp2162
g70
I4
ssg71
Nsg64
(lp2163
g57
(g73
g59
NtRp2164
(dp2165
g62
(dp2166
sg71
g2160
sg64
(lp2167
g57
(g78
g59
NtRp2168
(dp2169
g62
(dp2170
g82
g83
ssg71
g2164
sg64
(lp2171
g1045
asbag57
(g78
g59
NtRp2172
(dp2173
g62
(dp2174
g89
g90
ssg71
g2164
sg64
(lp2175
S':'
asbag57
(g78
g59
NtRp2176
(dp2177
g62
(dp2178
sg71
g2164
sg64
(lp2179
g57
(g58
g59
NtRp2180
(dp2181
g62
(dp2182
g70
I4
ssg71
g2176
sg64
(lp2183
S"set(['/home/wasuaje/Documentos/desarrollo/web2py5/applications/welcome/', '/home/wasuaje/Documentos/desarrollo/web2py5/applications/flota/', '/home/wasuaje/Documentos/desarrollo/web2py5/applications/admin/'])"
p2184
asbasbasbag57
(g73
g59
NtRp2185
(dp2186
g62
(dp2187
sg71
g2160
sg64
(lp2188
g57
(g78
g59
NtRp2189
(dp2190
g62
(dp2191
g82
g83
ssg71
g2185
sg64
(lp2192
g1067
asbag57
(g78
g59
NtRp2193
(dp2194
g62
(dp2195
g89
g90
ssg71
g2185
sg64
(lp2196
S':'
asbag57
(g78
g59
NtRp2197
(dp2198
g62
(dp2199
sg71
g2185
sg64
(lp2200
g57
(g58
g59
NtRp2201
(dp2202
g62
(dp2203
g70
I4
ssg71
g2197
sg64
(lp2204
g1080
asbasbasbag57
(g73
g59
NtRp2205
(dp2206
g62
(dp2207
sg71
g2160
sg64
(lp2208
g57
(g78
g59
NtRp2209
(dp2210
g62
(dp2211
g82
g83
ssg71
g2205
sg64
(lp2212
g1089
asbag57
(g78
g59
NtRp2213
(dp2214
g62
(dp2215
g89
g90
ssg71
g2205
sg64
(lp2216
S':'
asbag57
(g78
g59
NtRp2217
(dp2218
g62
(dp2219
sg71
g2205
sg64
(lp2220
g57
(g58
g59
NtRp2221
(dp2222
g62
(dp2223
g70
I4
ssg71
g2217
sg64
(lp2224
g57
(g66
g59
NtRp2225
(dp2226
g62
(dp2227
g70
I3
ssg71
Nsg64
(lp2228
sbasbasbasbag57
(g73
g59
NtRp2229
(dp2230
g62
(dp2231
sg71
g2160
sg64
(lp2232
g57
(g78
g59
NtRp2233
(dp2234
g62
(dp2235
g82
g83
ssg71
g2229
sg64
(lp2236
g1114
asbag57
(g78
g59
NtRp2237
(dp2238
g62
(dp2239
g89
g90
ssg71
g2229
sg64
(lp2240
S':'
asbag57
(g78
g59
NtRp2241
(dp2242
g62
(dp2243
sg71
g2229
sg64
(lp2244
g57
(g58
g59
NtRp2245
(dp2246
g62
(dp2247
g70
I4
ssg71
g2241
sg64
(lp2248
S"<Values at 0xa40c0ec: {'verbose': False, 'ip': '127.0.0.1', 'with_scheduler': False, 'ips': [], 'shutdown_timeout': 5, 'taskbar': False, 'port': 8000, 'maxthreads': None, 'softcron': False, 'server_name': 'wasuaje-desktop', 'bpython': False, 'nogui': False, 'pid_filename': 'httpserver.pid', 'extcron': False, 'runcron': False, 'run_system_tests': False, 'test': None, 'folder': '/home/wasuaje/Documentos/desarrollo/web2py5', 'config': '', 'import_models': False, 'winservice': '', 'shell': None, 'run': '', 'log_filename': 'httpserver.log', 'debuglevel': 30, 'args': [''], 'socket_timeout': 5, 'ssl_ca_certificate': None, 'scheduler': None, 'profiler_filename': None, 'ssl_private_key': '', 'scheduler_groups': None, 'password': '<ask>', 'request_queue_size': 5, 'ssl_certificate': '', 'cronjob': False, 'numthreads': None, 'quiet': False, 'interfaces': None, 'minthreads': None, 'timeout': 10, 'plain': False, 'nobanner': False}>"
p2249
asbasbasbag57
(g73
g59
NtRp2250
(dp2251
g62
(dp2252
sg71
g2160
sg64
(lp2253
g57
(g78
g59
NtRp2254
(dp2255
g62
(dp2256
g82
g83
ssg71
g2250
sg64
(lp2257
g1136
asbag57
(g78
g59
NtRp2258
(dp2259
g62
(dp2260
g89
g90
ssg71
g2250
sg64
(lp2261
S':'
asbag57
(g78
g59
NtRp2262
(dp2263
g62
(dp2264
sg71
g2250
sg64
(lp2265
g57
(g58
g59
NtRp2266
(dp2267
g62
(dp2268
g70
I4
ssg71
g2262
sg64
(lp2269
S'set([])'
p2270
asbasbasbag57
(g73
g59
NtRp2271
(dp2272
g62
(dp2273
sg71
g2160
sg64
(lp2274
g57
(g78
g59
NtRp2275
(dp2276
g62
(dp2277
g82
g83
ssg71
g2271
sg64
(lp2278
g1158
asbag57
(g78
g59
NtRp2279
(dp2280
g62
(dp2281
g89
g90
ssg71
g2271
sg64
(lp2282
S':'
asbag57
(g78
g59
NtRp2283
(dp2284
g62
(dp2285
sg71
g2271
sg64
(lp2286
g57
(g58
g59
NtRp2287
(dp2288
g62
(dp2289
g70
I4
ssg71
g2283
sg64
(lp2290
g100
asbasbasbag57
(g73
g59
NtRp2291
(dp2292
g62
(dp2293
sg71
g2160
sg64
(lp2294
g57
(g78
g59
NtRp2295
(dp2296
g62
(dp2297
g82
g83
ssg71
g2291
sg64
(lp2298
g1179
asbag57
(g78
g59
NtRp2299
(dp2300
g62
(dp2301
g89
g90
ssg71
g2291
sg64
(lp2302
S':'
asbag57
(g78
g59
NtRp2303
(dp2304
g62
(dp2305
sg71
g2291
sg64
(lp2306
g57
(g58
g59
NtRp2307
(dp2308
g62
(dp2309
g70
I4
ssg71
g2303
sg64
(lp2310
g1192
asbasbasbag57
(g73
g59
NtRp2311
(dp2312
g62
(dp2313
sg71
g2160
sg64
(lp2314
g57
(g78
g59
NtRp2315
(dp2316
g62
(dp2317
g82
g83
ssg71
g2311
sg64
(lp2318
g1377
asbag57
(g78
g59
NtRp2319
(dp2320
g62
(dp2321
g89
g90
ssg71
g2311
sg64
(lp2322
S':'
asbag57
(g78
g59
NtRp2323
(dp2324
g62
(dp2325
sg71
g2311
sg64
(lp2326
g57
(g58
g59
NtRp2327
(dp2328
g62
(dp2329
g70
I4
ssg71
g2323
sg64
(lp2330
g100
asbasbasbag57
(g73
g59
NtRp2331
(dp2332
g62
(dp2333
sg71
g2160
sg64
(lp2334
g57
(g78
g59
NtRp2335
(dp2336
g62
(dp2337
g82
g83
ssg71
g2331
sg64
(lp2338
g1398
asbag57
(g78
g59
NtRp2339
(dp2340
g62
(dp2341
g89
g90
ssg71
g2331
sg64
(lp2342
S':'
asbag57
(g78
g59
NtRp2343
(dp2344
g62
(dp2345
sg71
g2331
sg64
(lp2346
g57
(g58
g59
NtRp2347
(dp2348
g62
(dp2349
g70
I4
ssg71
g2343
sg64
(lp2350
g100
asbasbasbag57
(g73
g59
NtRp2351
(dp2352
g62
(dp2353
sg71
g2160
sg64
(lp2354
g57
(g78
g59
NtRp2355
(dp2356
g62
(dp2357
g82
g83
ssg71
g2351
sg64
(lp2358
g1419
asbag57
(g78
g59
NtRp2359
(dp2360
g62
(dp2361
g89
g90
ssg71
g2351
sg64
(lp2362
S':'
asbag57
(g78
g59
NtRp2363
(dp2364
g62
(dp2365
sg71
g2351
sg64
(lp2366
g57
(g58
g59
NtRp2367
(dp2368
g62
(dp2369
g70
I4
ssg71
g2363
sg64
(lp2370
g57
(g66
g59
NtRp2371
(dp2372
g62
(dp2373
g70
I3
ssg71
Nsg64
(lp2374
g57
(g73
g59
NtRp2375
(dp2376
g62
(dp2377
sg71
g2371
sg64
(lp2378
g57
(g78
g59
NtRp2379
(dp2380
g62
(dp2381
sg71
g2375
sg64
(lp2382
g57
(g58
g59
NtRp2383
(dp2384
g62
(dp2385
g70
I3
ssg71
g2379
sg64
(lp2386
g1448
asbasbasbag57
(g73
g59
NtRp2387
(dp2388
g62
(dp2389
sg71
g2371
sg64
(lp2390
g57
(g78
g59
NtRp2391
(dp2392
g62
(dp2393
sg71
g2387
sg64
(lp2394
g57
(g58
g59
NtRp2395
(dp2396
g62
(dp2397
g70
I3
ssg71
g2391
sg64
(lp2398
g1461
asbasbasbag57
(g73
g59
NtRp2399
(dp2400
g62
(dp2401
sg71
g2371
sg64
(lp2402
g57
(g78
g59
NtRp2403
(dp2404
g62
(dp2405
sg71
g2399
sg64
(lp2406
g57
(g58
g59
NtRp2407
(dp2408
g62
(dp2409
g70
I3
ssg71
g2403
sg64
(lp2410
g1474
asbasbasbag57
(g73
g59
NtRp2411
(dp2412
g62
(dp2413
sg71
g2371
sg64
(lp2414
g57
(g78
g59
NtRp2415
(dp2416
g62
(dp2417
sg71
g2411
sg64
(lp2418
g57
(g58
g59
NtRp2419
(dp2420
g62
(dp2421
g70
I3
ssg71
g2415
sg64
(lp2422
g1487
asbasbasbag57
(g73
g59
NtRp2423
(dp2424
g62
(dp2425
sg71
g2371
sg64
(lp2426
g57
(g78
g59
NtRp2427
(dp2428
g62
(dp2429
sg71
g2423
sg64
(lp2430
g57
(g58
g59
NtRp2431
(dp2432
g62
(dp2433
g70
I3
ssg71
g2427
sg64
(lp2434
g1500
asbasbasbasbasbasbasbag57
(g73
g59
NtRp2435
(dp2436
g62
(dp2437
sg71
g2160
sg64
(lp2438
g57
(g78
g59
NtRp2439
(dp2440
g62
(dp2441
g82
g83
ssg71
g2435
sg64
(lp2442
g1768
asbag57
(g78
g59
NtRp2443
(dp2444
g62
(dp2445
g89
g90
ssg71
g2435
sg64
(lp2446
S':'
asbag57
(g78
g59
NtRp2447
(dp2448
g62
(dp2449
sg71
g2435
sg64
(lp2450
g57
(g58
g59
NtRp2451
(dp2452
g62
(dp2453
g70
I4
ssg71
g2447
sg64
(lp2454
g57
(g66
g59
NtRp2455
(dp2456
g62
(dp2457
g70
I3
ssg71
Nsg64
(lp2458
g57
(g73
g59
NtRp2459
(dp2460
g62
(dp2461
sg71
g2455
sg64
(lp2462
g57
(g78
g59
NtRp2463
(dp2464
g62
(dp2465
sg71
g2459
sg64
(lp2466
g57
(g58
g59
NtRp2467
(dp2468
g62
(dp2469
g70
I3
ssg71
g2463
sg64
(lp2470
S'2'
asbasbasbag57
(g73
g59
NtRp2471
(dp2472
g62
(dp2473
sg71
g2455
sg64
(lp2474
g57
(g78
g59
NtRp2475
(dp2476
g62
(dp2477
sg71
g2471
sg64
(lp2478
g57
(g58
g59
NtRp2479
(dp2480
g62
(dp2481
g70
I3
ssg71
g2475
sg64
(lp2482
S'3'
asbasbasbag57
(g73
g59
NtRp2483
(dp2484
g62
(dp2485
sg71
g2455
sg64
(lp2486
g57
(g78
g59
NtRp2487
(dp2488
g62
(dp2489
sg71
g2483
sg64
(lp2490
g57
(g58
g59
NtRp2491
(dp2492
g62
(dp2493
g70
I3
ssg71
g2487
sg64
(lp2494
S'2'
asbasbasbag57
(g73
g59
NtRp2495
(dp2496
g62
(dp2497
sg71
g2455
sg64
(lp2498
g57
(g78
g59
NtRp2499
(dp2500
g62
(dp2501
sg71
g2495
sg64
(lp2502
g57
(g58
g59
NtRp2503
(dp2504
g62
(dp2505
g70
I3
ssg71
g2499
sg64
(lp2506
S'datetime.datetime(2012, 12, 17, 15, 3, 30)'
p2507
asbasbasbag57
(g73
g59
NtRp2508
(dp2509
g62
(dp2510
sg71
g2455
sg64
(lp2511
g57
(g78
g59
NtRp2512
(dp2513
g62
(dp2514
sg71
g2508
sg64
(lp2515
g57
(g58
g59
NtRp2516
(dp2517
g62
(dp2518
g70
I3
ssg71
g2512
sg64
(lp2519
g1846
asbasbasbasbasbasbasbasbasbasbasbag57
(g73
g59
NtRp2520
(dp2521
g62
(dp2522
sg71
g67
sg64
(lp2523
g57
(g78
g59
NtRp2524
(dp2525
g62
(dp2526
g82
g83
ssg71
g2520
sg64
(lp2527
S'is_https'
p2528
asbag57
(g78
g59
NtRp2529
(dp2530
g62
(dp2531
g89
g90
ssg71
g2520
sg64
(lp2532
S':'
asbag57
(g78
g59
NtRp2533
(dp2534
g62
(dp2535
sg71
g2520
sg64
(lp2536
g57
(g58
g59
NtRp2537
(dp2538
g62
(dp2539
g70
I5
ssg71
g2533
sg64
(lp2540
g100
asbasbasbag57
(g73
g59
NtRp2541
(dp2542
g62
(dp2543
sg71
g67
sg64
(lp2544
g57
(g78
g59
NtRp2545
(dp2546
g62
(dp2547
g82
g83
ssg71
g2541
sg64
(lp2548
S'is_local'
p2549
asbag57
(g78
g59
NtRp2550
(dp2551
g62
(dp2552
g89
g90
ssg71
g2541
sg64
(lp2553
S':'
asbag57
(g78
g59
NtRp2554
(dp2555
g62
(dp2556
sg71
g2541
sg64
(lp2557
g57
(g58
g59
NtRp2558
(dp2559
g62
(dp2560
g70
I5
ssg71
g2554
sg64
(lp2561
g1955
asbasbasbag57
(g73
g59
NtRp2562
(dp2563
g62
(dp2564
sg71
g67
sg64
(lp2565
g57
(g78
g59
NtRp2566
(dp2567
g62
(dp2568
g82
g83
ssg71
g2562
sg64
(lp2569
S'is_restful'
p2570
asbag57
(g78
g59
NtRp2571
(dp2572
g62
(dp2573
g89
g90
ssg71
g2562
sg64
(lp2574
S':'
asbag57
(g78
g59
NtRp2575
(dp2576
g62
(dp2577
sg71
g2562
sg64
(lp2578
g57
(g58
g59
NtRp2579
(dp2580
g62
(dp2581
g70
I5
ssg71
g2575
sg64
(lp2582
g100
asbasbasbag57
(g73
g59
NtRp2583
(dp2584
g62
(dp2585
sg71
g67
sg64
(lp2586
g57
(g78
g59
NtRp2587
(dp2588
g62
(dp2589
g82
g83
ssg71
g2583
sg64
(lp2590
S'now'
p2591
asbag57
(g78
g59
NtRp2592
(dp2593
g62
(dp2594
g89
g90
ssg71
g2583
sg64
(lp2595
S':'
asbag57
(g78
g59
NtRp2596
(dp2597
g62
(dp2598
sg71
g2583
sg64
(lp2599
g57
(g58
g59
NtRp2600
(dp2601
g62
(dp2602
g70
I5
ssg71
g2596
sg64
(lp2603
S'datetime.datetime(2013, 2, 7, 12, 0, 6, 747459)'
p2604
asbasbasbag57
(g73
g59
NtRp2605
(dp2606
g62
(dp2607
sg71
g67
sg64
(lp2608
g57
(g78
g59
NtRp2609
(dp2610
g62
(dp2611
g82
g83
ssg71
g2605
sg64
(lp2612
S'post_vars'
p2613
asbag57
(g78
g59
NtRp2614
(dp2615
g62
(dp2616
g89
g90
ssg71
g2605
sg64
(lp2617
S':'
asbag57
(g78
g59
NtRp2618
(dp2619
g62
(dp2620
sg71
g2605
sg64
(lp2621
g57
(g58
g59
NtRp2622
(dp2623
g62
(dp2624
g70
I5
ssg71
g2618
sg64
(lp2625
g57
(g66
g59
NtRp2626
(dp2627
g62
(dp2628
g70
I4
ssg71
Nsg64
(lp2629
sbasbasbasbag57
(g73
g59
NtRp2630
(dp2631
g62
(dp2632
sg71
g67
sg64
(lp2633
g57
(g78
g59
NtRp2634
(dp2635
g62
(dp2636
g82
g83
ssg71
g2630
sg64
(lp2637
S'raw_args'
p2638
asbag57
(g78
g59
NtRp2639
(dp2640
g62
(dp2641
g89
g90
ssg71
g2630
sg64
(lp2642
S':'
asbag57
(g78
g59
NtRp2643
(dp2644
g62
(dp2645
sg71
g2630
sg64
(lp2646
g57
(g58
g59
NtRp2647
(dp2648
g62
(dp2649
g70
I5
ssg71
g2643
sg64
(lp2650
S''
asbasbasbag57
(g73
g59
NtRp2651
(dp2652
g62
(dp2653
sg71
g67
sg64
(lp2654
g57
(g78
g59
NtRp2655
(dp2656
g62
(dp2657
g82
g83
ssg71
g2651
sg64
(lp2658
S'raw_extension'
p2659
asbag57
(g78
g59
NtRp2660
(dp2661
g62
(dp2662
g89
g90
ssg71
g2651
sg64
(lp2663
S':'
asbag57
(g78
g59
NtRp2664
(dp2665
g62
(dp2666
sg71
g2651
sg64
(lp2667
g57
(g58
g59
NtRp2668
(dp2669
g62
(dp2670
g70
I5
ssg71
g2664
sg64
(lp2671
S'None'
p2672
asbasbasbag57
(g73
g59
NtRp2673
(dp2674
g62
(dp2675
sg71
g67
sg64
(lp2676
g57
(g78
g59
NtRp2677
(dp2678
g62
(dp2679
g82
g83
ssg71
g2673
sg64
(lp2680
S'url'
p2681
asbag57
(g78
g59
NtRp2682
(dp2683
g62
(dp2684
g89
g90
ssg71
g2673
sg64
(lp2685
S':'
asbag57
(g78
g59
NtRp2686
(dp2687
g62
(dp2688
sg71
g2673
sg64
(lp2689
g57
(g58
g59
NtRp2690
(dp2691
g62
(dp2692
g70
I5
ssg71
g2686
sg64
(lp2693
g1522
asbasbasbag57
(g73
g59
NtRp2694
(dp2695
g62
(dp2696
sg71
g67
sg64
(lp2697
g57
(g78
g59
NtRp2698
(dp2699
g62
(dp2700
g82
g83
ssg71
g2694
sg64
(lp2701
S'utcnow'
p2702
asbag57
(g78
g59
NtRp2703
(dp2704
g62
(dp2705
g89
g90
ssg71
g2694
sg64
(lp2706
S':'
asbag57
(g78
g59
NtRp2707
(dp2708
g62
(dp2709
sg71
g2694
sg64
(lp2710
g57
(g58
g59
NtRp2711
(dp2712
g62
(dp2713
g70
I5
ssg71
g2707
sg64
(lp2714
S'datetime.datetime(2013, 2, 7, 16, 30, 6, 747487)'
p2715
asbasbasbag57
(g73
g59
NtRp2716
(dp2717
g62
(dp2718
sg71
g67
sg64
(lp2719
g57
(g78
g59
NtRp2720
(dp2721
g62
(dp2722
g82
g83
ssg71
g2716
sg64
(lp2723
S'uuid'
p2724
asbag57
(g78
g59
NtRp2725
(dp2726
g62
(dp2727
g89
g90
ssg71
g2716
sg64
(lp2728
S':'
asbag57
(g78
g59
NtRp2729
(dp2730
g62
(dp2731
sg71
g2716
sg64
(lp2732
g57
(g58
g59
NtRp2733
(dp2734
g62
(dp2735
g70
I5
ssg71
g2729
sg64
(lp2736
S'flota/127.0.0.1.2013-02-07.12-00-06.2f09804b-d7c2-46d6-ada7-6b67c5c90aa6'
p2737
asbasbasbag57
(g73
g59
NtRp2738
(dp2739
g62
(dp2740
sg71
g67
sg64
(lp2741
g57
(g78
g59
NtRp2742
(dp2743
g62
(dp2744
g82
g83
ssg71
g2738
sg64
(lp2745
S'vars'
p2746
asbag57
(g78
g59
NtRp2747
(dp2748
g62
(dp2749
g89
g90
ssg71
g2738
sg64
(lp2750
S':'
asbag57
(g78
g59
NtRp2751
(dp2752
g62
(dp2753
sg71
g2738
sg64
(lp2754
g57
(g58
g59
NtRp2755
(dp2756
g62
(dp2757
g70
I5
ssg71
g2751
sg64
(lp2758
g57
(g66
g59
NtRp2759
(dp2760
g62
(dp2761
g70
I4
ssg71
Nsg64
(lp2762
sbasbasbasbag57
(g73
g59
NtRp2763
(dp2764
g62
(dp2765
sg71
g67
sg64
(lp2766
g57
(g78
g59
NtRp2767
(dp2768
g62
(dp2769
g82
g83
ssg71
g2763
sg64
(lp2770
S'wsgi'
p2771
asbag57
(g78
g59
NtRp2772
(dp2773
g62
(dp2774
g89
g90
ssg71
g2763
sg64
(lp2775
S':'
asbag57
(g78
g59
NtRp2776
(dp2777
g62
(dp2778
sg71
g2763
sg64
(lp2779
g57
(g58
g59
NtRp2780
(dp2781
g62
(dp2782
g70
I5
ssg71
g2776
sg64
(lp2783
g57
(g66
g59
NtRp2784
(dp2785
g62
(dp2786
g70
I4
ssg71
Nsg64
(lp2787
g57
(g73
g59
NtRp2788
(dp2789
g62
(dp2790
sg71
g2784
sg64
(lp2791
g57
(g78
g59
NtRp2792
(dp2793
g62
(dp2794
g82
g83
ssg71
g2788
sg64
(lp2795
S'environ'
p2796
asbag57
(g78
g59
NtRp2797
(dp2798
g62
(dp2799
g89
g90
ssg71
g2788
sg64
(lp2800
S':'
asbag57
(g78
g59
NtRp2801
(dp2802
g62
(dp2803
sg71
g2788
sg64
(lp2804
g57
(g58
g59
NtRp2805
(dp2806
g62
(dp2807
g70
I4
ssg71
g2801
sg64
(lp2808
g57
(g66
g59
NtRp2809
(dp2810
g62
(dp2811
g70
I3
ssg71
Nsg64
(lp2812
g57
(g73
g59
NtRp2813
(dp2814
g62
(dp2815
sg71
g2809
sg64
(lp2816
g57
(g78
g59
NtRp2817
(dp2818
g62
(dp2819
g82
g83
ssg71
g2813
sg64
(lp2820
S'HTTP_ACCEPT'
p2821
asbag57
(g78
g59
NtRp2822
(dp2823
g62
(dp2824
g89
g90
ssg71
g2813
sg64
(lp2825
S':'
asbag57
(g78
g59
NtRp2826
(dp2827
g62
(dp2828
sg71
g2813
sg64
(lp2829
g57
(g58
g59
NtRp2830
(dp2831
g62
(dp2832
g70
I3
ssg71
g2826
sg64
(lp2833
g1214
asbasbasbag57
(g73
g59
NtRp2834
(dp2835
g62
(dp2836
sg71
g2809
sg64
(lp2837
g57
(g78
g59
NtRp2838
(dp2839
g62
(dp2840
g82
g83
ssg71
g2834
sg64
(lp2841
S'HTTP_ACCEPT_ENCODING'
p2842
asbag57
(g78
g59
NtRp2843
(dp2844
g62
(dp2845
g89
g90
ssg71
g2834
sg64
(lp2846
S':'
asbag57
(g78
g59
NtRp2847
(dp2848
g62
(dp2849
sg71
g2834
sg64
(lp2850
g57
(g58
g59
NtRp2851
(dp2852
g62
(dp2853
g70
I3
ssg71
g2847
sg64
(lp2854
g1236
asbasbasbag57
(g73
g59
NtRp2855
(dp2856
g62
(dp2857
sg71
g2809
sg64
(lp2858
g57
(g78
g59
NtRp2859
(dp2860
g62
(dp2861
g82
g83
ssg71
g2855
sg64
(lp2862
S'HTTP_ACCEPT_LANGUAGE'
p2863
asbag57
(g78
g59
NtRp2864
(dp2865
g62
(dp2866
g89
g90
ssg71
g2855
sg64
(lp2867
S':'
asbag57
(g78
g59
NtRp2868
(dp2869
g62
(dp2870
sg71
g2855
sg64
(lp2871
g57
(g58
g59
NtRp2872
(dp2873
g62
(dp2874
g70
I3
ssg71
g2868
sg64
(lp2875
g1258
asbasbasbag57
(g73
g59
NtRp2876
(dp2877
g62
(dp2878
sg71
g2809
sg64
(lp2879
g57
(g78
g59
NtRp2880
(dp2881
g62
(dp2882
g82
g83
ssg71
g2876
sg64
(lp2883
S'HTTP_CACHE_CONTROL'
p2884
asbag57
(g78
g59
NtRp2885
(dp2886
g62
(dp2887
g89
g90
ssg71
g2876
sg64
(lp2888
S':'
asbag57
(g78
g59
NtRp2889
(dp2890
g62
(dp2891
sg71
g2876
sg64
(lp2892
g57
(g58
g59
NtRp2893
(dp2894
g62
(dp2895
g70
I3
ssg71
g2889
sg64
(lp2896
g1280
asbasbasbag57
(g73
g59
NtRp2897
(dp2898
g62
(dp2899
sg71
g2809
sg64
(lp2900
g57
(g78
g59
NtRp2901
(dp2902
g62
(dp2903
g82
g83
ssg71
g2897
sg64
(lp2904
S'HTTP_CONNECTION'
p2905
asbag57
(g78
g59
NtRp2906
(dp2907
g62
(dp2908
g89
g90
ssg71
g2897
sg64
(lp2909
S':'
asbag57
(g78
g59
NtRp2910
(dp2911
g62
(dp2912
sg71
g2897
sg64
(lp2913
g57
(g58
g59
NtRp2914
(dp2915
g62
(dp2916
g70
I3
ssg71
g2910
sg64
(lp2917
g1302
asbasbasbag57
(g73
g59
NtRp2918
(dp2919
g62
(dp2920
sg71
g2809
sg64
(lp2921
g57
(g78
g59
NtRp2922
(dp2923
g62
(dp2924
g82
g83
ssg71
g2918
sg64
(lp2925
S'HTTP_COOKIE'
p2926
asbag57
(g78
g59
NtRp2927
(dp2928
g62
(dp2929
g89
g90
ssg71
g2918
sg64
(lp2930
S':'
asbag57
(g78
g59
NtRp2931
(dp2932
g62
(dp2933
sg71
g2918
sg64
(lp2934
g57
(g58
g59
NtRp2935
(dp2936
g62
(dp2937
g70
I3
ssg71
g2931
sg64
(lp2938
g1324
asbasbasbag57
(g73
g59
NtRp2939
(dp2940
g62
(dp2941
sg71
g2809
sg64
(lp2942
g57
(g78
g59
NtRp2943
(dp2944
g62
(dp2945
g82
g83
ssg71
g2939
sg64
(lp2946
S'HTTP_HOST'
p2947
asbag57
(g78
g59
NtRp2948
(dp2949
g62
(dp2950
g89
g90
ssg71
g2939
sg64
(lp2951
S':'
asbag57
(g78
g59
NtRp2952
(dp2953
g62
(dp2954
sg71
g2939
sg64
(lp2955
g57
(g58
g59
NtRp2956
(dp2957
g62
(dp2958
g70
I3
ssg71
g2952
sg64
(lp2959
g1346
asbasbasbag57
(g73
g59
NtRp2960
(dp2961
g62
(dp2962
sg71
g2809
sg64
(lp2963
g57
(g78
g59
NtRp2964
(dp2965
g62
(dp2966
g82
g83
ssg71
g2960
sg64
(lp2967
S'HTTP_USER_AGENT'
p2968
asbag57
(g78
g59
NtRp2969
(dp2970
g62
(dp2971
g89
g90
ssg71
g2960
sg64
(lp2972
S':'
asbag57
(g78
g59
NtRp2973
(dp2974
g62
(dp2975
sg71
g2960
sg64
(lp2976
g57
(g58
g59
NtRp2977
(dp2978
g62
(dp2979
g70
I3
ssg71
g2973
sg64
(lp2980
g1368
asbasbasbag57
(g73
g59
NtRp2981
(dp2982
g62
(dp2983
sg71
g2809
sg64
(lp2984
g57
(g78
g59
NtRp2985
(dp2986
g62
(dp2987
g82
g83
ssg71
g2981
sg64
(lp2988
S'PATH_INFO'
p2989
asbag57
(g78
g59
NtRp2990
(dp2991
g62
(dp2992
g89
g90
ssg71
g2981
sg64
(lp2993
S':'
asbag57
(g78
g59
NtRp2994
(dp2995
g62
(dp2996
sg71
g2981
sg64
(lp2997
g57
(g58
g59
NtRp2998
(dp2999
g62
(dp3000
g70
I3
ssg71
g2994
sg64
(lp3001
g1522
asbasbasbag57
(g73
g59
NtRp3002
(dp3003
g62
(dp3004
sg71
g2809
sg64
(lp3005
g57
(g78
g59
NtRp3006
(dp3007
g62
(dp3008
g82
g83
ssg71
g3002
sg64
(lp3009
S'QUERY_STRING'
p3010
asbag57
(g78
g59
NtRp3011
(dp3012
g62
(dp3013
g89
g90
ssg71
g3002
sg64
(lp3014
S':'
asbag57
(g78
g59
NtRp3015
(dp3016
g62
(dp3017
sg71
g3002
sg64
(lp3018
g57
(g58
g59
NtRp3019
(dp3020
g62
(dp3021
g70
I3
ssg71
g3015
sg64
(lp3022
S''
asbasbasbag57
(g73
g59
NtRp3023
(dp3024
g62
(dp3025
sg71
g2809
sg64
(lp3026
g57
(g78
g59
NtRp3027
(dp3028
g62
(dp3029
g82
g83
ssg71
g3023
sg64
(lp3030
S'REMOTE_ADDR'
p3031
asbag57
(g78
g59
NtRp3032
(dp3033
g62
(dp3034
g89
g90
ssg71
g3023
sg64
(lp3035
S':'
asbag57
(g78
g59
NtRp3036
(dp3037
g62
(dp3038
sg71
g3023
sg64
(lp3039
g57
(g58
g59
NtRp3040
(dp3041
g62
(dp3042
g70
I3
ssg71
g3036
sg64
(lp3043
g212
asbasbasbag57
(g73
g59
NtRp3044
(dp3045
g62
(dp3046
sg71
g2809
sg64
(lp3047
g57
(g78
g59
NtRp3048
(dp3049
g62
(dp3050
g82
g83
ssg71
g3044
sg64
(lp3051
S'REMOTE_PORT'
p3052
asbag57
(g78
g59
NtRp3053
(dp3054
g62
(dp3055
g89
g90
ssg71
g3044
sg64
(lp3056
S':'
asbag57
(g78
g59
NtRp3057
(dp3058
g62
(dp3059
sg71
g3044
sg64
(lp3060
g57
(g58
g59
NtRp3061
(dp3062
g62
(dp3063
g70
I3
ssg71
g3057
sg64
(lp3064
g1586
asbasbasbag57
(g73
g59
NtRp3065
(dp3066
g62
(dp3067
sg71
g2809
sg64
(lp3068
g57
(g78
g59
NtRp3069
(dp3070
g62
(dp3071
g82
g83
ssg71
g3065
sg64
(lp3072
S'REQUEST_METHOD'
p3073
asbag57
(g78
g59
NtRp3074
(dp3075
g62
(dp3076
g89
g90
ssg71
g3065
sg64
(lp3077
S':'
asbag57
(g78
g59
NtRp3078
(dp3079
g62
(dp3080
sg71
g3065
sg64
(lp3081
g57
(g58
g59
NtRp3082
(dp3083
g62
(dp3084
g70
I3
ssg71
g3078
sg64
(lp3085
g1608
asbasbasbag57
(g73
g59
NtRp3086
(dp3087
g62
(dp3088
sg71
g2809
sg64
(lp3089
g57
(g78
g59
NtRp3090
(dp3091
g62
(dp3092
g82
g83
ssg71
g3086
sg64
(lp3093
S'REQUEST_URI'
p3094
asbag57
(g78
g59
NtRp3095
(dp3096
g62
(dp3097
g89
g90
ssg71
g3086
sg64
(lp3098
S':'
asbag57
(g78
g59
NtRp3099
(dp3100
g62
(dp3101
sg71
g3086
sg64
(lp3102
g57
(g58
g59
NtRp3103
(dp3104
g62
(dp3105
g70
I3
ssg71
g3099
sg64
(lp3106
g1522
asbasbasbag57
(g73
g59
NtRp3107
(dp3108
g62
(dp3109
sg71
g2809
sg64
(lp3110
g57
(g78
g59
NtRp3111
(dp3112
g62
(dp3113
g82
g83
ssg71
g3107
sg64
(lp3114
S'SCRIPT_NAME'
p3115
asbag57
(g78
g59
NtRp3116
(dp3117
g62
(dp3118
g89
g90
ssg71
g3107
sg64
(lp3119
S':'
asbag57
(g78
g59
NtRp3120
(dp3121
g62
(dp3122
sg71
g3107
sg64
(lp3123
g57
(g58
g59
NtRp3124
(dp3125
g62
(dp3126
g70
I3
ssg71
g3120
sg64
(lp3127
S''
asbasbasbag57
(g73
g59
NtRp3128
(dp3129
g62
(dp3130
sg71
g2809
sg64
(lp3131
g57
(g78
g59
NtRp3132
(dp3133
g62
(dp3134
g82
g83
ssg71
g3128
sg64
(lp3135
S'SERVER_NAME'
p3136
asbag57
(g78
g59
NtRp3137
(dp3138
g62
(dp3139
g89
g90
ssg71
g3128
sg64
(lp3140
S':'
asbag57
(g78
g59
NtRp3141
(dp3142
g62
(dp3143
sg71
g3128
sg64
(lp3144
g57
(g58
g59
NtRp3145
(dp3146
g62
(dp3147
g70
I3
ssg71
g3141
sg64
(lp3148
g1672
asbasbasbag57
(g73
g59
NtRp3149
(dp3150
g62
(dp3151
sg71
g2809
sg64
(lp3152
g57
(g78
g59
NtRp3153
(dp3154
g62
(dp3155
g82
g83
ssg71
g3149
sg64
(lp3156
S'SERVER_PORT'
p3157
asbag57
(g78
g59
NtRp3158
(dp3159
g62
(dp3160
g89
g90
ssg71
g3149
sg64
(lp3161
S':'
asbag57
(g78
g59
NtRp3162
(dp3163
g62
(dp3164
sg71
g3149
sg64
(lp3165
g57
(g58
g59
NtRp3166
(dp3167
g62
(dp3168
g70
I3
ssg71
g3162
sg64
(lp3169
g1694
asbasbasbag57
(g73
g59
NtRp3170
(dp3171
g62
(dp3172
sg71
g2809
sg64
(lp3173
g57
(g78
g59
NtRp3174
(dp3175
g62
(dp3176
g82
g83
ssg71
g3170
sg64
(lp3177
S'SERVER_PROTOCOL'
p3178
asbag57
(g78
g59
NtRp3179
(dp3180
g62
(dp3181
g89
g90
ssg71
g3170
sg64
(lp3182
S':'
asbag57
(g78
g59
NtRp3183
(dp3184
g62
(dp3185
sg71
g3170
sg64
(lp3186
g57
(g58
g59
NtRp3187
(dp3188
g62
(dp3189
g70
I3
ssg71
g3183
sg64
(lp3190
g1716
asbasbasbag57
(g73
g59
NtRp3191
(dp3192
g62
(dp3193
sg71
g2809
sg64
(lp3194
g57
(g78
g59
NtRp3195
(dp3196
g62
(dp3197
g82
g83
ssg71
g3191
sg64
(lp3198
S'SERVER_SOFTWARE'
p3199
asbag57
(g78
g59
NtRp3200
(dp3201
g62
(dp3202
g89
g90
ssg71
g3191
sg64
(lp3203
S':'
asbag57
(g78
g59
NtRp3204
(dp3205
g62
(dp3206
sg71
g3191
sg64
(lp3207
g57
(g58
g59
NtRp3208
(dp3209
g62
(dp3210
g70
I3
ssg71
g3204
sg64
(lp3211
g1738
asbasbasbag57
(g73
g59
NtRp3212
(dp3213
g62
(dp3214
sg71
g2809
sg64
(lp3215
g57
(g78
g59
NtRp3216
(dp3217
g62
(dp3218
g82
g83
ssg71
g3212
sg64
(lp3219
S'wsgi.errors'
p3220
asbag57
(g78
g59
NtRp3221
(dp3222
g62
(dp3223
g89
g90
ssg71
g3212
sg64
(lp3224
S':'
asbag57
(g78
g59
NtRp3225
(dp3226
g62
(dp3227
sg71
g3212
sg64
(lp3228
g57
(g58
g59
NtRp3229
(dp3230
g62
(dp3231
g70
I3
ssg71
g3225
sg64
(lp3232
S"<open file '<stderr>', mode 'w' at 0xb754b0d0>"
p3233
asbasbasbag57
(g73
g59
NtRp3234
(dp3235
g62
(dp3236
sg71
g2809
sg64
(lp3237
g57
(g78
g59
NtRp3238
(dp3239
g62
(dp3240
g82
g83
ssg71
g3234
sg64
(lp3241
S'wsgi.file_wrapper'
p3242
asbag57
(g78
g59
NtRp3243
(dp3244
g62
(dp3245
g89
g90
ssg71
g3234
sg64
(lp3246
S':'
asbag57
(g78
g59
NtRp3247
(dp3248
g62
(dp3249
sg71
g3234
sg64
(lp3250
g57
(g58
g59
NtRp3251
(dp3252
g62
(dp3253
g70
I3
ssg71
g3247
sg64
(lp3254
S'<class wsgiref.util.FileWrapper at 0xa3c42fc>'
p3255
asbasbasbag57
(g73
g59
NtRp3256
(dp3257
g62
(dp3258
sg71
g2809
sg64
(lp3259
g57
(g78
g59
NtRp3260
(dp3261
g62
(dp3262
g82
g83
ssg71
g3256
sg64
(lp3263
S'wsgi.input'
p3264
asbag57
(g78
g59
NtRp3265
(dp3266
g62
(dp3267
g89
g90
ssg71
g3256
sg64
(lp3268
S':'
asbag57
(g78
g59
NtRp3269
(dp3270
g62
(dp3271
sg71
g3256
sg64
(lp3272
g57
(g58
g59
NtRp3273
(dp3274
g62
(dp3275
g70
I3
ssg71
g3269
sg64
(lp3276
S'<cStringIO.StringO object at 0xad893080>'
p3277
asbasbasbag57
(g73
g59
NtRp3278
(dp3279
g62
(dp3280
sg71
g2809
sg64
(lp3281
g57
(g78
g59
NtRp3282
(dp3283
g62
(dp3284
g82
g83
ssg71
g3278
sg64
(lp3285
S'wsgi.multiprocess'
p3286
asbag57
(g78
g59
NtRp3287
(dp3288
g62
(dp3289
g89
g90
ssg71
g3278
sg64
(lp3290
S':'
asbag57
(g78
g59
NtRp3291
(dp3292
g62
(dp3293
sg71
g3278
sg64
(lp3294
g57
(g58
g59
NtRp3295
(dp3296
g62
(dp3297
g70
I3
ssg71
g3291
sg64
(lp3298
g100
asbasbasbag57
(g73
g59
NtRp3299
(dp3300
g62
(dp3301
sg71
g2809
sg64
(lp3302
g57
(g78
g59
NtRp3303
(dp3304
g62
(dp3305
g82
g83
ssg71
g3299
sg64
(lp3306
S'wsgi.multithread'
p3307
asbag57
(g78
g59
NtRp3308
(dp3309
g62
(dp3310
g89
g90
ssg71
g3299
sg64
(lp3311
S':'
asbag57
(g78
g59
NtRp3312
(dp3313
g62
(dp3314
sg71
g3299
sg64
(lp3315
g57
(g58
g59
NtRp3316
(dp3317
g62
(dp3318
g70
I3
ssg71
g3312
sg64
(lp3319
g1955
asbasbasbag57
(g73
g59
NtRp3320
(dp3321
g62
(dp3322
sg71
g2809
sg64
(lp3323
g57
(g78
g59
NtRp3324
(dp3325
g62
(dp3326
g82
g83
ssg71
g3320
sg64
(lp3327
S'wsgi.run_once'
p3328
asbag57
(g78
g59
NtRp3329
(dp3330
g62
(dp3331
g89
g90
ssg71
g3320
sg64
(lp3332
S':'
asbag57
(g78
g59
NtRp3333
(dp3334
g62
(dp3335
sg71
g3320
sg64
(lp3336
g57
(g58
g59
NtRp3337
(dp3338
g62
(dp3339
g70
I3
ssg71
g3333
sg64
(lp3340
g100
asbasbasbag57
(g73
g59
NtRp3341
(dp3342
g62
(dp3343
sg71
g2809
sg64
(lp3344
g57
(g78
g59
NtRp3345
(dp3346
g62
(dp3347
g82
g83
ssg71
g3341
sg64
(lp3348
S'wsgi.url_scheme'
p3349
asbag57
(g78
g59
NtRp3350
(dp3351
g62
(dp3352
g89
g90
ssg71
g3341
sg64
(lp3353
S':'
asbag57
(g78
g59
NtRp3354
(dp3355
g62
(dp3356
sg71
g3341
sg64
(lp3357
g57
(g58
g59
NtRp3358
(dp3359
g62
(dp3360
g70
I3
ssg71
g3354
sg64
(lp3361
g1998
asbasbasbag57
(g73
g59
NtRp3362
(dp3363
g62
(dp3364
sg71
g2809
sg64
(lp3365
g57
(g78
g59
NtRp3366
(dp3367
g62
(dp3368
g82
g83
ssg71
g3362
sg64
(lp3369
S'wsgi.version'
p3370
asbag57
(g78
g59
NtRp3371
(dp3372
g62
(dp3373
g89
g90
ssg71
g3362
sg64
(lp3374
S':'
asbag57
(g78
g59
NtRp3375
(dp3376
g62
(dp3377
sg71
g3362
sg64
(lp3378
g57
(g58
g59
NtRp3379
(dp3380
g62
(dp3381
g70
I3
ssg71
g3375
sg64
(lp3382
S'1'
asbasbasbasbasbasbasbasbasbasbasbasbasbsS'frames'
p3383
(lp3384
(dp3385
S'file'
p3386
S'/home/wasuaje/Documentos/desarrollo/web2py5/gluon/restricted.py'
p3387
sS'dump'
p3388
(dp3389
S'environment'
p3390
S"{'A': <class 'gluon.html.A'>, 'Auth': <class 'gluon.tools.Auth'>, 'B': <class 'gluon.html.B'>, 'BEAUTIFY': <class 'gluon.html.BEAUTIFY'>, 'BODY': <class 'gluon.html.BODY'>, 'BR': <class 'gluon.html.BR'>, 'BUTTON': <class 'gluon.html.BUTTON'>, 'CAT': <class 'gluon.html.CAT'>, 'CENTER': <class 'gluon.html.CENTER'>, 'CLEANUP': <class 'gluon.validators.CLEANUP'>, ...}"
p3391
sS'ccode'
p3392
S'<code object <module> at 0xa93cb18, file "/home/...lications/flota/views/cobro2/index.html", line 1>'
p3393
ssS'lnum'
p3394
I212
sS'lines'
p3395
(dp3396
I207
S'    try:'
p3397
sI208
S'        if isinstance(code, types.CodeType):'
p3398
sI209
S'            ccode = code'
p3399
sI210
S'        else:'
p3400
sI211
S'            ccode = compile2(code, layer)'
p3401
sI212
S'        exec ccode in environment'
p3402
sI213
S'    except HTTP:'
p3403
sI214
S'        raise'
p3404
sI215
S'    except RestrictedError:'
p3405
sI216
S'        # do not encapsulate (obfuscate) the original RestrictedError'
p3406
ssS'call'
p3407
S'(code=\'response.write(\\\'<!DOCTYPE html PUBLIC "-//W3C//D...d footer -->\\\\n </body>\\\\n</html>\\\\n\\\', escape=False)\', environment={\'A\': <class \'gluon.html.A\'>, \'Auth\': <class \'gluon.tools.Auth\'>, \'B\': <class \'gluon.html.B\'>, \'BEAUTIFY\': <class \'gluon.html.BEAUTIFY\'>, \'BODY\': <class \'gluon.html.BODY\'>, \'BR\': <class \'gluon.html.BR\'>, \'BUTTON\': <class \'gluon.html.BUTTON\'>, \'CAT\': <class \'gluon.html.CAT\'>, \'CENTER\': <class \'gluon.html.CENTER\'>, \'CLEANUP\': <class \'gluon.validators.CLEANUP\'>, ...}, layer=\'/home/wasuaje/Documentos/desarrollo/web2py5/applications/flota/views/cobro2/index.html\')'
p3408
sS'func'
p3409
S'restricted'
p3410
sa(dp3411
g3386
S'/home/wasuaje/Documentos/desarrollo/web2py5/applications/flota/views/cobro2/index.html'
p3412
sg3388
(dp3413
sg3394
I51
sg3395
(dp3414
I42
S'except:pass'
p3415
sI43
S'response.write(\'\\n\\n  <div id="wrapper">\\n   <!-- start header -->\\n   <div id="logo">\\n    <h1>\\n     <!--\', escape=False)'
p3416
sI44
S'response.write(response.title or request.application)'
p3417
sI45
S'response.write(\'-->\\n\\t FLOTACONTROL\\n    </h1>\\n    <h2>\\n     Sistema de control de flota \\n    </h2>\\n   </div>\\n   <div id="header">\\n    <div id="menu">\\n     \', escape=False)'
p3418
sI46
S"response.write(MENU(response.menu,_class='web2py-menu'))"
p3419
sI47
S'response.write(\'\\n    <script>\\n      jQuery(document).ready(function(){jQuery(\\\'ul.web2py-menu\\\').superfish({delay:400});});\\n    </script>\\n    </div>\\n   </div>\\n   <!-- end header -->\\n  </div>\\n  <!-- start page -->\\n  <div id="page">\\n   <!-- start content -->\\n   <div id="content">\\n    <div class="flash">\', escape=False)'
p3420
sI48
S"response.write(response.flash or '')"
p3421
sI49
S"response.write('</div>\\n     \\n\\t ', escape=False)"
p3422
sI50
S"response.write('\\n\\n<h2>Cobros</h2>\\n<hr/>\\n</br>\\n', escape=False)"
p3423
sI51
S'response.write(plugin_jqgrid(db.cobro))'
p3424
sI52
S"response.write('\\n\\n', escape=False)"
p3425
sI53
S"if 'grid' in globals():"
p3426
sI54
S"    response.write('\\n', escape=False)"
p3427
sI55
S'    response.write(grid)'
p3428
sI56
S"    response.write('\\n\\n', escape=False)"
p3429
sI57
S'else:'
p3430
sI58
S"    response.write('\\n\\n', escape=False)"
p3431
sI59
S'    pass'
p3432
sI60
S"response.write('\\n', escape=False)"
p3433
sI61
S'response.write(\'\\n\\t \\n\\t\\n   </div>\\n   <!-- end content -->\\n   <!-- start sidebar -\\n   <div id="sidebar">\\n    <ul>\\n     <li id="search">\\n      <h2>\\n       Search\\n      </h2>\\n      <form method="get" action="">\\n       <fieldset>\\n        <input type="text" id="s" name="s" value="" />\\n        <input type="submit" id="x" value="Search" />\\n       </fieldset>\\n      </form>\\n     </li>\\n     <li>\\n      <h2>\\n       Lorem Ipsum\\n      </h2>\\n      <ul>\\n       <li>\\n        <a href="#">\\n         Fusce dui neque fringilla\\n        </a>\\n       </li>\\n       <li>\\n        <a href="#">\\n         Eget tempor eget nonummy\\n        </a>\\n       </li>\\n       <li>\\n        <a href="#">\\n         Magna lacus bibendum mauris\\n        </a>\\n       </li>\\n       <li>\\n        <a href="#">\\n         Nec metus sed donec\\n        </a>\\n       </li>\\n       <li>\\n        <a href="#">\\n         Magna lacus bibendum mauris\\n        </a>\\n       </li>\\n       <li>\\n        <a href="#">\\n         Velit semper nisi molestie\\n        </a>\\n       </li>\\n       <li>\\n        <a href="#">\\n         Eget tempor eget nonummy\\n        </a>\\n       </li>\\n      </ul>\\n     </li>\\n     <li>\\n      <h2>\\n       Volutpat Dolore\\n      </h2>\\n      <ul>\\n       <li>\\n        <a href="#">\\n         Nec metus sed donec\\n        </a>\\n       </li>\\n       <li>\\n        <a href="#">\\n         Magna lacus bibendum mauris\\n        </a>\\n       </li>\\n       <li>\\n        <a href="#">\\n         Velit semper nisi molestie\\n        </a>\\n       </li>\\n       <li>\\n        <a href="#">\\n         Eget tempor eget nonummy\\n        </a>\\n       </li>\\n       <li>\\n        <a href="#">\\n         Nec metus sed donec\\n        </a>\\n       </li>\\n       <li>\\n        <a href="#">\\n         Magna lacus bibendum mauris\\n        </a>\\n       </li>\\n       <li>\\n        <a href="#">\\n         Velit semper nisi molestie\\n        </a>\\n       </li>\\n      </ul>\\n     </li>\\n    </ul>\\n   </div>\\n    end sidebar -->\\n   <div style="clear: both;">\\n    &nbsp;\\n   </div>\\n  </div>\\n  <!-- end page -->\\n  <!-- start footer -->\\n  <div id="footer">\\n   <p id="legal">\\n    ( c ) 2008. All Rights Reserved.\\n    <a href="http://www.freecsstemplates.org/">\\n     Bestfriends\\n    </a>\\n    designed by\\n    <a href="http://www.freecsstemplates.org/">\\n     Free CSS Templates\\n    </a>\\n    .\\n   </p>\\n  </div>\\n  <!-- end footer -->\\n </body>\\n</html>\\n\', escape=False)'
p3434
ssg3407
S'()'
p3435
sg3409
S'<module>'
p3436
sa(dp3437
g3386
S'/home/wasuaje/Documentos/desarrollo/web2py5/gluon/dal.py'
p3438
sg3388
(dp3439
S'self'
p3440
S'<DAL uri="mysql://******:www4214@localhost/dbflota">'
p3441
sS'global ogetattr'
p3442
S"<slot wrapper '__getattribute__' of 'object' objects>"
p3443
sS'key'
p3444
S"'cobro'"
p3445
ssg3394
I7255
sg3395
(dp3446
I7250
S'    def __getattr__(self, key):'
p3447
sI7251
S"        if ogetattr(self,'_lazy_tables') and \\"
p3448
sI7252
S"                key in ogetattr(self,'_LAZY_TABLES'):"
p3449
sI7253
S'            tablename, fields, args = self._LAZY_TABLES.pop(key)'
p3450
sI7254
S'            return self.lazy_define_table(tablename,*fields,**args)'
p3451
sI7255
S'        return ogetattr(self, key)'
p3452
sI7256
S''
sI7257
S'    def __setitem__(self, key, value):'
p3453
sI7258
S'        osetattr(self, str(key), value)'
p3454
sI7259
S''
ssg3407
S'(self=<DAL uri="mysql://******:www4214@localhost/dbflota">, key=\'cobro\')'
p3455
sg3409
S'__getattr__'
p3456
sasS'pyver'
p3457
S'Python 2.7.3: /usr/bin/python'
p3458
sS'session'
p3459
g57
(g58
g59
NtRp3460
(dp3461
g62
(dp3462
sg64
(lp3463
g57
(g66
g59
NtRp3464
(dp3465
g62
(dp3466
g70
I5
ssg71
Nsg64
(lp3467
g57
(g73
g59
NtRp3468
(dp3469
g62
(dp3470
sg71
g3464
sg64
(lp3471
g57
(g78
g59
NtRp3472
(dp3473
g62
(dp3474
g82
g83
ssg71
g3468
sg64
(lp3475
S'auth'
p3476
asbag57
(g78
g59
NtRp3477
(dp3478
g62
(dp3479
g89
g90
ssg71
g3468
sg64
(lp3480
S':'
asbag57
(g78
g59
NtRp3481
(dp3482
g62
(dp3483
sg71
g3468
sg64
(lp3484
g57
(g58
g59
NtRp3485
(dp3486
g62
(dp3487
g70
I5
ssg71
g3481
sg64
(lp3488
g57
(g66
g59
NtRp3489
(dp3490
g62
(dp3491
g70
I4
ssg71
Nsg64
(lp3492
g57
(g73
g59
NtRp3493
(dp3494
g62
(dp3495
sg71
g3489
sg64
(lp3496
g57
(g78
g59
NtRp3497
(dp3498
g62
(dp3499
g82
g83
ssg71
g3493
sg64
(lp3500
S'expiration'
p3501
asbag57
(g78
g59
NtRp3502
(dp3503
g62
(dp3504
g89
g90
ssg71
g3493
sg64
(lp3505
S':'
asbag57
(g78
g59
NtRp3506
(dp3507
g62
(dp3508
sg71
g3493
sg64
(lp3509
g57
(g58
g59
NtRp3510
(dp3511
g62
(dp3512
g70
I4
ssg71
g3506
sg64
(lp3513
S'3600'
p3514
asbasbasbag57
(g73
g59
NtRp3515
(dp3516
g62
(dp3517
sg71
g3489
sg64
(lp3518
g57
(g78
g59
NtRp3519
(dp3520
g62
(dp3521
g82
g83
ssg71
g3515
sg64
(lp3522
S'hmac_key'
p3523
asbag57
(g78
g59
NtRp3524
(dp3525
g62
(dp3526
g89
g90
ssg71
g3515
sg64
(lp3527
S':'
asbag57
(g78
g59
NtRp3528
(dp3529
g62
(dp3530
sg71
g3515
sg64
(lp3531
g57
(g58
g59
NtRp3532
(dp3533
g62
(dp3534
g70
I4
ssg71
g3528
sg64
(lp3535
S'059204bb-eb58-4383-b415-61021c7d1468'
p3536
asbasbasbag57
(g73
g59
NtRp3537
(dp3538
g62
(dp3539
sg71
g3489
sg64
(lp3540
g57
(g78
g59
NtRp3541
(dp3542
g62
(dp3543
g82
g83
ssg71
g3537
sg64
(lp3544
S'last_visit'
p3545
asbag57
(g78
g59
NtRp3546
(dp3547
g62
(dp3548
g89
g90
ssg71
g3537
sg64
(lp3549
S':'
asbag57
(g78
g59
NtRp3550
(dp3551
g62
(dp3552
sg71
g3537
sg64
(lp3553
g57
(g58
g59
NtRp3554
(dp3555
g62
(dp3556
g70
I4
ssg71
g3550
sg64
(lp3557
S'datetime.datetime(2013, 2, 7, 11, 59, 30, 349759)'
p3558
asbasbasbag57
(g73
g59
NtRp3559
(dp3560
g62
(dp3561
sg71
g3489
sg64
(lp3562
g57
(g78
g59
NtRp3563
(dp3564
g62
(dp3565
g82
g83
ssg71
g3559
sg64
(lp3566
S'remember'
p3567
asbag57
(g78
g59
NtRp3568
(dp3569
g62
(dp3570
g89
g90
ssg71
g3559
sg64
(lp3571
S':'
asbag57
(g78
g59
NtRp3572
(dp3573
g62
(dp3574
sg71
g3559
sg64
(lp3575
g57
(g58
g59
NtRp3576
(dp3577
g62
(dp3578
g70
I4
ssg71
g3572
sg64
(lp3579
g100
asbasbasbag57
(g73
g59
NtRp3580
(dp3581
g62
(dp3582
sg71
g3489
sg64
(lp3583
g57
(g78
g59
NtRp3584
(dp3585
g62
(dp3586
g82
g83
ssg71
g3580
sg64
(lp3587
S'user'
p3588
asbag57
(g78
g59
NtRp3589
(dp3590
g62
(dp3591
g89
g90
ssg71
g3580
sg64
(lp3592
S':'
asbag57
(g78
g59
NtRp3593
(dp3594
g62
(dp3595
sg71
g3580
sg64
(lp3596
g57
(g58
g59
NtRp3597
(dp3598
g62
(dp3599
g70
I4
ssg71
g3593
sg64
(lp3600
g57
(g66
g59
NtRp3601
(dp3602
g62
(dp3603
g70
I3
ssg71
Nsg64
(lp3604
g57
(g73
g59
NtRp3605
(dp3606
g62
(dp3607
sg71
g3601
sg64
(lp3608
g57
(g78
g59
NtRp3609
(dp3610
g62
(dp3611
g82
g83
ssg71
g3605
sg64
(lp3612
S'created_on'
p3613
asbag57
(g78
g59
NtRp3614
(dp3615
g62
(dp3616
g89
g90
ssg71
g3605
sg64
(lp3617
S':'
asbag57
(g78
g59
NtRp3618
(dp3619
g62
(dp3620
sg71
g3605
sg64
(lp3621
g57
(g58
g59
NtRp3622
(dp3623
g62
(dp3624
g70
I3
ssg71
g3618
sg64
(lp3625
S'datetime.datetime(2011, 12, 7, 8, 57, 36)'
p3626
asbasbasbag57
(g73
g59
NtRp3627
(dp3628
g62
(dp3629
sg71
g3601
sg64
(lp3630
g57
(g78
g59
NtRp3631
(dp3632
g62
(dp3633
g82
g83
ssg71
g3627
sg64
(lp3634
S'email'
p3635
asbag57
(g78
g59
NtRp3636
(dp3637
g62
(dp3638
g89
g90
ssg71
g3627
sg64
(lp3639
S':'
asbag57
(g78
g59
NtRp3640
(dp3641
g62
(dp3642
sg71
g3627
sg64
(lp3643
g57
(g58
g59
NtRp3644
(dp3645
g62
(dp3646
g70
I3
ssg71
g3640
sg64
(lp3647
S'wasuaje@yahoo.com'
p3648
asbasbasbag57
(g73
g59
NtRp3649
(dp3650
g62
(dp3651
sg71
g3601
sg64
(lp3652
g57
(g78
g59
NtRp3653
(dp3654
g62
(dp3655
g82
g83
ssg71
g3649
sg64
(lp3656
S'first_name'
p3657
asbag57
(g78
g59
NtRp3658
(dp3659
g62
(dp3660
g89
g90
ssg71
g3649
sg64
(lp3661
S':'
asbag57
(g78
g59
NtRp3662
(dp3663
g62
(dp3664
sg71
g3649
sg64
(lp3665
g57
(g58
g59
NtRp3666
(dp3667
g62
(dp3668
g70
I3
ssg71
g3662
sg64
(lp3669
S'Alexis'
p3670
asbasbasbag57
(g73
g59
NtRp3671
(dp3672
g62
(dp3673
sg71
g3601
sg64
(lp3674
g57
(g78
g59
NtRp3675
(dp3676
g62
(dp3677
g82
g83
ssg71
g3671
sg64
(lp3678
S'id'
p3679
asbag57
(g78
g59
NtRp3680
(dp3681
g62
(dp3682
g89
g90
ssg71
g3671
sg64
(lp3683
S':'
asbag57
(g78
g59
NtRp3684
(dp3685
g62
(dp3686
sg71
g3671
sg64
(lp3687
g57
(g58
g59
NtRp3688
(dp3689
g62
(dp3690
g70
I3
ssg71
g3684
sg64
(lp3691
S'2'
asbasbasbag57
(g73
g59
NtRp3692
(dp3693
g62
(dp3694
sg71
g3601
sg64
(lp3695
g57
(g78
g59
NtRp3696
(dp3697
g62
(dp3698
g82
g83
ssg71
g3692
sg64
(lp3699
S'last_name'
p3700
asbag57
(g78
g59
NtRp3701
(dp3702
g62
(dp3703
g89
g90
ssg71
g3692
sg64
(lp3704
S':'
asbag57
(g78
g59
NtRp3705
(dp3706
g62
(dp3707
sg71
g3692
sg64
(lp3708
g57
(g58
g59
NtRp3709
(dp3710
g62
(dp3711
g70
I3
ssg71
g3705
sg64
(lp3712
S'Asuaje'
p3713
asbasbasbag57
(g73
g59
NtRp3714
(dp3715
g62
(dp3716
sg71
g3601
sg64
(lp3717
g57
(g78
g59
NtRp3718
(dp3719
g62
(dp3720
g82
g83
ssg71
g3714
sg64
(lp3721
S'modified_on'
p3722
asbag57
(g78
g59
NtRp3723
(dp3724
g62
(dp3725
g89
g90
ssg71
g3714
sg64
(lp3726
S':'
asbag57
(g78
g59
NtRp3727
(dp3728
g62
(dp3729
sg71
g3714
sg64
(lp3730
g57
(g58
g59
NtRp3731
(dp3732
g62
(dp3733
g70
I3
ssg71
g3727
sg64
(lp3734
S'datetime.datetime(2011, 12, 7, 8, 57, 54)'
p3735
asbasbasbag57
(g73
g59
NtRp3736
(dp3737
g62
(dp3738
sg71
g3601
sg64
(lp3739
g57
(g78
g59
NtRp3740
(dp3741
g62
(dp3742
g82
g83
ssg71
g3736
sg64
(lp3743
S'registration_id'
p3744
asbag57
(g78
g59
NtRp3745
(dp3746
g62
(dp3747
g89
g90
ssg71
g3736
sg64
(lp3748
S':'
asbag57
(g78
g59
NtRp3749
(dp3750
g62
(dp3751
sg71
g3736
sg64
(lp3752
g57
(g58
g59
NtRp3753
(dp3754
g62
(dp3755
g70
I3
ssg71
g3749
sg64
(lp3756
S''
asbasbasbag57
(g73
g59
NtRp3757
(dp3758
g62
(dp3759
sg71
g3601
sg64
(lp3760
g57
(g78
g59
NtRp3761
(dp3762
g62
(dp3763
g82
g83
ssg71
g3757
sg64
(lp3764
S'registration_key'
p3765
asbag57
(g78
g59
NtRp3766
(dp3767
g62
(dp3768
g89
g90
ssg71
g3757
sg64
(lp3769
S':'
asbag57
(g78
g59
NtRp3770
(dp3771
g62
(dp3772
sg71
g3757
sg64
(lp3773
g57
(g58
g59
NtRp3774
(dp3775
g62
(dp3776
g70
I3
ssg71
g3770
sg64
(lp3777
S''
asbasbasbag57
(g73
g59
NtRp3778
(dp3779
g62
(dp3780
sg71
g3601
sg64
(lp3781
g57
(g78
g59
NtRp3782
(dp3783
g62
(dp3784
g82
g83
ssg71
g3778
sg64
(lp3785
S'reset_password_key'
p3786
asbag57
(g78
g59
NtRp3787
(dp3788
g62
(dp3789
g89
g90
ssg71
g3778
sg64
(lp3790
S':'
asbag57
(g78
g59
NtRp3791
(dp3792
g62
(dp3793
sg71
g3778
sg64
(lp3794
g57
(g58
g59
NtRp3795
(dp3796
g62
(dp3797
g70
I3
ssg71
g3791
sg64
(lp3798
S''
asbasbasbag57
(g73
g59
NtRp3799
(dp3800
g62
(dp3801
sg71
g3601
sg64
(lp3802
g57
(g78
g59
NtRp3803
(dp3804
g62
(dp3805
g82
g83
ssg71
g3799
sg64
(lp3806
S'username'
p3807
asbag57
(g78
g59
NtRp3808
(dp3809
g62
(dp3810
g89
g90
ssg71
g3799
sg64
(lp3811
S':'
asbag57
(g78
g59
NtRp3812
(dp3813
g62
(dp3814
sg71
g3799
sg64
(lp3815
g57
(g58
g59
NtRp3816
(dp3817
g62
(dp3818
g70
I3
ssg71
g3812
sg64
(lp3819
S'alexis'
p3820
asbasbasbasbasbasbasbag57
(g73
g59
NtRp3821
(dp3822
g62
(dp3823
sg71
g3489
sg64
(lp3824
g57
(g78
g59
NtRp3825
(dp3826
g62
(dp3827
g82
g83
ssg71
g3821
sg64
(lp3828
S'user_groups'
p3829
asbag57
(g78
g59
NtRp3830
(dp3831
g62
(dp3832
g89
g90
ssg71
g3821
sg64
(lp3833
S':'
asbag57
(g78
g59
NtRp3834
(dp3835
g62
(dp3836
sg71
g3821
sg64
(lp3837
g57
(g58
g59
NtRp3838
(dp3839
g62
(dp3840
g70
I4
ssg71
g3834
sg64
(lp3841
g57
(g66
g59
NtRp3842
(dp3843
g62
(dp3844
g70
I3
ssg71
Nsg64
(lp3845
g57
(g73
g59
NtRp3846
(dp3847
g62
(dp3848
sg71
g3842
sg64
(lp3849
g57
(g78
g59
NtRp3850
(dp3851
g62
(dp3852
g82
g83
ssg71
g3846
sg64
(lp3853
S'2'
asbag57
(g78
g59
NtRp3854
(dp3855
g62
(dp3856
g89
g90
ssg71
g3846
sg64
(lp3857
S':'
asbag57
(g78
g59
NtRp3858
(dp3859
g62
(dp3860
sg71
g3846
sg64
(lp3861
g57
(g58
g59
NtRp3862
(dp3863
g62
(dp3864
g70
I3
ssg71
g3858
sg64
(lp3865
S'Operator'
p3866
asbasbasbasbasbasbasbasbasbasbasbag57
(g73
g59
NtRp3867
(dp3868
g62
(dp3869
sg71
g3464
sg64
(lp3870
g57
(g78
g59
NtRp3871
(dp3872
g62
(dp3873
g82
g83
ssg71
g3867
sg64
(lp3874
S'flash'
p3875
asbag57
(g78
g59
NtRp3876
(dp3877
g62
(dp3878
g89
g90
ssg71
g3867
sg64
(lp3879
S':'
asbag57
(g78
g59
NtRp3880
(dp3881
g62
(dp3882
sg71
g3867
sg64
(lp3883
g57
(g58
g59
NtRp3884
(dp3885
g62
(dp3886
g70
I5
ssg71
g3880
sg64
(lp3887
S'None'
p3888
asbasbasbasbasbsS'etype'
p3889
S"<type 'exceptions.AttributeError'>"
p3890
sS'date'
p3891
S'Thu Feb  7 12:00:06 2013'
p3892
sS'response'
p3893
g57
(g58
g59
NtRp3894
(dp3895
g62
(dp3896
sg64
(lp3897
g57
(g66
g59
NtRp3898
(dp3899
g62
(dp3900
g70
I5
ssg71
Nsg64
(lp3901
g57
(g73
g59
NtRp3902
(dp3903
g62
(dp3904
sg71
g3898
sg64
(lp3905
g57
(g78
g59
NtRp3906
(dp3907
g62
(dp3908
g82
g83
ssg71
g3902
sg64
(lp3909
g155
asbag57
(g78
g59
NtRp3910
(dp3911
g62
(dp3912
g89
g90
ssg71
g3902
sg64
(lp3913
S':'
asbag57
(g78
g59
NtRp3914
(dp3915
g62
(dp3916
sg71
g3902
sg64
(lp3917
g57
(g58
g59
NtRp3918
(dp3919
g62
(dp3920
g70
I5
ssg71
g3914
sg64
(lp3921
S'<cStringIO.StringO object at 0xac29de40>'
p3922
asbasbasbag57
(g73
g59
NtRp3923
(dp3924
g62
(dp3925
sg71
g3898
sg64
(lp3926
g57
(g78
g59
NtRp3927
(dp3928
g62
(dp3929
g82
g83
ssg71
g3923
sg64
(lp3930
g243
asbag57
(g78
g59
NtRp3931
(dp3932
g62
(dp3933
g89
g90
ssg71
g3923
sg64
(lp3934
S':'
asbag57
(g78
g59
NtRp3935
(dp3936
g62
(dp3937
sg71
g3923
sg64
(lp3938
g57
(g58
g59
NtRp3939
(dp3940
g62
(dp3941
g70
I5
ssg71
g3935
sg64
(lp3942
g57
(g66
g59
NtRp3943
(dp3944
g62
(dp3945
g70
I4
ssg71
Nsg64
(lp3946
g57
(g73
g59
NtRp3947
(dp3948
g62
(dp3949
sg71
g3943
sg64
(lp3950
g57
(g78
g59
NtRp3951
(dp3952
g62
(dp3953
g82
g83
ssg71
g3947
sg64
(lp3954
S'session_id_flota'
p3955
asbag57
(g78
g59
NtRp3956
(dp3957
g62
(dp3958
g89
g90
ssg71
g3947
sg64
(lp3959
S':'
asbag57
(g78
g59
NtRp3960
(dp3961
g62
(dp3962
sg71
g3947
sg64
(lp3963
g57
(g58
g59
NtRp3964
(dp3965
g62
(dp3966
g70
I4
ssg71
g3960
sg64
(lp3967
g475
ag57
(g66
g59
NtRp3968
(dp3969
g62
(dp3970
g70
I3
ssg71
Nsg64
(lp3971
g57
(g73
g59
NtRp3972
(dp3973
g62
(dp3974
sg71
g3968
sg64
(lp3975
g57
(g78
g59
NtRp3976
(dp3977
g62
(dp3978
g82
g83
ssg71
g3972
sg64
(lp3979
g294
asbag57
(g78
g59
NtRp3980
(dp3981
g62
(dp3982
g89
g90
ssg71
g3972
sg64
(lp3983
S':'
asbag57
(g78
g59
NtRp3984
(dp3985
g62
(dp3986
sg71
g3972
sg64
(lp3987
g57
(g58
g59
NtRp3988
(dp3989
g62
(dp3990
g70
I3
ssg71
g3984
sg64
(lp3991
S''
asbasbasbag57
(g73
g59
NtRp3992
(dp3993
g62
(dp3994
sg71
g3968
sg64
(lp3995
g57
(g78
g59
NtRp3996
(dp3997
g62
(dp3998
g82
g83
ssg71
g3992
sg64
(lp3999
g315
asbag57
(g78
g59
NtRp4000
(dp4001
g62
(dp4002
g89
g90
ssg71
g3992
sg64
(lp4003
S':'
asbag57
(g78
g59
NtRp4004
(dp4005
g62
(dp4006
sg71
g3992
sg64
(lp4007
g57
(g58
g59
NtRp4008
(dp4009
g62
(dp4010
g70
I3
ssg71
g4004
sg64
(lp4011
S''
asbasbasbag57
(g73
g59
NtRp4012
(dp4013
g62
(dp4014
sg71
g3968
sg64
(lp4015
g57
(g78
g59
NtRp4016
(dp4017
g62
(dp4018
g82
g83
ssg71
g4012
sg64
(lp4019
g336
asbag57
(g78
g59
NtRp4020
(dp4021
g62
(dp4022
g89
g90
ssg71
g4012
sg64
(lp4023
S':'
asbag57
(g78
g59
NtRp4024
(dp4025
g62
(dp4026
sg71
g4012
sg64
(lp4027
g57
(g58
g59
NtRp4028
(dp4029
g62
(dp4030
g70
I3
ssg71
g4024
sg64
(lp4031
S''
asbasbasbag57
(g73
g59
NtRp4032
(dp4033
g62
(dp4034
sg71
g3968
sg64
(lp4035
g57
(g78
g59
NtRp4036
(dp4037
g62
(dp4038
g82
g83
ssg71
g4032
sg64
(lp4039
g357
asbag57
(g78
g59
NtRp4040
(dp4041
g62
(dp4042
g89
g90
ssg71
g4032
sg64
(lp4043
S':'
asbag57
(g78
g59
NtRp4044
(dp4045
g62
(dp4046
sg71
g4032
sg64
(lp4047
g57
(g58
g59
NtRp4048
(dp4049
g62
(dp4050
g70
I3
ssg71
g4044
sg64
(lp4051
S''
asbasbasbag57
(g73
g59
NtRp4052
(dp4053
g62
(dp4054
sg71
g3968
sg64
(lp4055
g57
(g78
g59
NtRp4056
(dp4057
g62
(dp4058
g82
g83
ssg71
g4052
sg64
(lp4059
g378
asbag57
(g78
g59
NtRp4060
(dp4061
g62
(dp4062
g89
g90
ssg71
g4052
sg64
(lp4063
S':'
asbag57
(g78
g59
NtRp4064
(dp4065
g62
(dp4066
sg71
g4052
sg64
(lp4067
g57
(g58
g59
NtRp4068
(dp4069
g62
(dp4070
g70
I3
ssg71
g4064
sg64
(lp4071
S''
asbasbasbag57
(g73
g59
NtRp4072
(dp4073
g62
(dp4074
sg71
g3968
sg64
(lp4075
g57
(g78
g59
NtRp4076
(dp4077
g62
(dp4078
g82
g83
ssg71
g4072
sg64
(lp4079
g399
asbag57
(g78
g59
NtRp4080
(dp4081
g62
(dp4082
g89
g90
ssg71
g4072
sg64
(lp4083
S':'
asbag57
(g78
g59
NtRp4084
(dp4085
g62
(dp4086
sg71
g4072
sg64
(lp4087
g57
(g58
g59
NtRp4088
(dp4089
g62
(dp4090
g70
I3
ssg71
g4084
sg64
(lp4091
S'/'
asbasbasbag57
(g73
g59
NtRp4092
(dp4093
g62
(dp4094
sg71
g3968
sg64
(lp4095
g57
(g78
g59
NtRp4096
(dp4097
g62
(dp4098
g82
g83
ssg71
g4092
sg64
(lp4099
g420
asbag57
(g78
g59
NtRp4100
(dp4101
g62
(dp4102
g89
g90
ssg71
g4092
sg64
(lp4103
S':'
asbag57
(g78
g59
NtRp4104
(dp4105
g62
(dp4106
sg71
g4092
sg64
(lp4107
g57
(g58
g59
NtRp4108
(dp4109
g62
(dp4110
g70
I3
ssg71
g4104
sg64
(lp4111
S''
asbasbasbag57
(g73
g59
NtRp4112
(dp4113
g62
(dp4114
sg71
g3968
sg64
(lp4115
g57
(g78
g59
NtRp4116
(dp4117
g62
(dp4118
g82
g83
ssg71
g4112
sg64
(lp4119
g441
asbag57
(g78
g59
NtRp4120
(dp4121
g62
(dp4122
g89
g90
ssg71
g4112
sg64
(lp4123
S':'
asbag57
(g78
g59
NtRp4124
(dp4125
g62
(dp4126
sg71
g4112
sg64
(lp4127
g57
(g58
g59
NtRp4128
(dp4129
g62
(dp4130
g70
I3
ssg71
g4124
sg64
(lp4131
S''
asbasbasbasbasbasbasbasbasbasbasbag57
(g73
g59
NtRp4132
(dp4133
g62
(dp4134
sg71
g3898
sg64
(lp4135
g57
(g78
g59
NtRp4136
(dp4137
g62
(dp4138
g82
g83
ssg71
g4132
sg64
(lp4139
S'delimiters'
p4140
asbag57
(g78
g59
NtRp4141
(dp4142
g62
(dp4143
g89
g90
ssg71
g4132
sg64
(lp4144
S':'
asbag57
(g78
g59
NtRp4145
(dp4146
g62
(dp4147
sg71
g4132
sg64
(lp4148
g57
(g58
g59
NtRp4149
(dp4150
g62
(dp4151
g70
I5
ssg71
g4145
sg64
(lp4152
g57
(g66
g59
NtRp4153
(dp4154
g62
(dp4155
g70
I4
ssg71
Nsg64
(lp4156
g57
(g73
g59
NtRp4157
(dp4158
g62
(dp4159
sg71
g4153
sg64
(lp4160
g57
(g78
g59
NtRp4161
(dp4162
g62
(dp4163
sg71
g4157
sg64
(lp4164
g57
(g58
g59
NtRp4165
(dp4166
g62
(dp4167
g70
I4
ssg71
g4161
sg64
(lp4168
S'{{'
p4169
asbasbasbag57
(g73
g59
NtRp4170
(dp4171
g62
(dp4172
sg71
g4153
sg64
(lp4173
g57
(g78
g59
NtRp4174
(dp4175
g62
(dp4176
sg71
g4170
sg64
(lp4177
g57
(g58
g59
NtRp4178
(dp4179
g62
(dp4180
g70
I4
ssg71
g4174
sg64
(lp4181
S'}}'
p4182
asbasbasbasbasbasbasbag57
(g73
g59
NtRp4183
(dp4184
g62
(dp4185
sg71
g3898
sg64
(lp4186
g57
(g78
g59
NtRp4187
(dp4188
g62
(dp4189
g82
g83
ssg71
g4183
sg64
(lp4190
S'files'
p4191
asbag57
(g78
g59
NtRp4192
(dp4193
g62
(dp4194
g89
g90
ssg71
g4183
sg64
(lp4195
S':'
asbag57
(g78
g59
NtRp4196
(dp4197
g62
(dp4198
sg71
g4183
sg64
(lp4199
g57
(g58
g59
NtRp4200
(dp4201
g62
(dp4202
g70
I5
ssg71
g4196
sg64
(lp4203
g57
(g66
g59
NtRp4204
(dp4205
g62
(dp4206
g70
I4
ssg71
Nsg64
(lp4207
g57
(g73
g59
NtRp4208
(dp4209
g62
(dp4210
sg71
g4204
sg64
(lp4211
g57
(g78
g59
NtRp4212
(dp4213
g62
(dp4214
sg71
g4208
sg64
(lp4215
g57
(g58
g59
NtRp4216
(dp4217
g62
(dp4218
g70
I4
ssg71
g4212
sg64
(lp4219
S'/flota/static/js/jquery.js'
p4220
asbasbasbag57
(g73
g59
NtRp4221
(dp4222
g62
(dp4223
sg71
g4204
sg64
(lp4224
g57
(g78
g59
NtRp4225
(dp4226
g62
(dp4227
sg71
g4221
sg64
(lp4228
g57
(g58
g59
NtRp4229
(dp4230
g62
(dp4231
g70
I4
ssg71
g4225
sg64
(lp4232
S'/flota/static/css/calendar.css'
p4233
asbasbasbag57
(g73
g59
NtRp4234
(dp4235
g62
(dp4236
sg71
g4204
sg64
(lp4237
g57
(g78
g59
NtRp4238
(dp4239
g62
(dp4240
sg71
g4234
sg64
(lp4241
g57
(g58
g59
NtRp4242
(dp4243
g62
(dp4244
g70
I4
ssg71
g4238
sg64
(lp4245
S'/flota/static/js/calendar.js'
p4246
asbasbasbag57
(g73
g59
NtRp4247
(dp4248
g62
(dp4249
sg71
g4204
sg64
(lp4250
g57
(g78
g59
NtRp4251
(dp4252
g62
(dp4253
sg71
g4247
sg64
(lp4254
g57
(g58
g59
NtRp4255
(dp4256
g62
(dp4257
g70
I4
ssg71
g4251
sg64
(lp4258
S'/flota/static/jquery-autocomplete/jquery.autocomplete.js'
p4259
asbasbasbag57
(g73
g59
NtRp4260
(dp4261
g62
(dp4262
sg71
g4204
sg64
(lp4263
g57
(g78
g59
NtRp4264
(dp4265
g62
(dp4266
sg71
g4260
sg64
(lp4267
g57
(g58
g59
NtRp4268
(dp4269
g62
(dp4270
g70
I4
ssg71
g4264
sg64
(lp4271
S'/flota/static/jquery-autocomplete/jquery.autocomplete.css'
p4272
asbasbasbag57
(g73
g59
NtRp4273
(dp4274
g62
(dp4275
sg71
g4204
sg64
(lp4276
g57
(g78
g59
NtRp4277
(dp4278
g62
(dp4279
sg71
g4273
sg64
(lp4280
g57
(g58
g59
NtRp4281
(dp4282
g62
(dp4283
g70
I4
ssg71
g4277
sg64
(lp4284
S'/flota/static/plugin_jqgrid/ui.jqgrid.css'
p4285
asbasbasbag57
(g73
g59
NtRp4286
(dp4287
g62
(dp4288
sg71
g4204
sg64
(lp4289
g57
(g78
g59
NtRp4290
(dp4291
g62
(dp4292
sg71
g4286
sg64
(lp4293
g57
(g58
g59
NtRp4294
(dp4295
g62
(dp4296
g70
I4
ssg71
g4290
sg64
(lp4297
S'/flota/static/plugin_jqgrid/ui-darkness/jquery-ui-1.8.1.custom.css'
p4298
asbasbasbag57
(g73
g59
NtRp4299
(dp4300
g62
(dp4301
sg71
g4204
sg64
(lp4302
g57
(g78
g59
NtRp4303
(dp4304
g62
(dp4305
sg71
g4299
sg64
(lp4306
g57
(g58
g59
NtRp4307
(dp4308
g62
(dp4309
g70
I4
ssg71
g4303
sg64
(lp4310
S'/flota/static/plugin_jqgrid/jquery-ui-1.7.2.custom.min.js'
p4311
asbasbasbag57
(g73
g59
NtRp4312
(dp4313
g62
(dp4314
sg71
g4204
sg64
(lp4315
g57
(g78
g59
NtRp4316
(dp4317
g62
(dp4318
sg71
g4312
sg64
(lp4319
g57
(g58
g59
NtRp4320
(dp4321
g62
(dp4322
g70
I4
ssg71
g4316
sg64
(lp4323
S'/flota/static/plugin_jqgrid/i18n/grid.locale-en.js'
p4324
asbasbasbag57
(g73
g59
NtRp4325
(dp4326
g62
(dp4327
sg71
g4204
sg64
(lp4328
g57
(g78
g59
NtRp4329
(dp4330
g62
(dp4331
sg71
g4325
sg64
(lp4332
g57
(g58
g59
NtRp4333
(dp4334
g62
(dp4335
g70
I4
ssg71
g4329
sg64
(lp4336
S'/flota/static/plugin_jqgrid/jquery.jqGrid.min.js'
p4337
asbasbasbag57
(g73
g59
NtRp4338
(dp4339
g62
(dp4340
sg71
g4204
sg64
(lp4341
g57
(g78
g59
NtRp4342
(dp4343
g62
(dp4344
sg71
g4338
sg64
(lp4345
g57
(g58
g59
NtRp4346
(dp4347
g62
(dp4348
g70
I4
ssg71
g4342
sg64
(lp4349
S'/flota/static/plugin_layouts/layouts/Squarely/default.css'
p4350
asbasbasbag57
(g73
g59
NtRp4351
(dp4352
g62
(dp4353
sg71
g4204
sg64
(lp4354
g57
(g78
g59
NtRp4355
(dp4356
g62
(dp4357
sg71
g4351
sg64
(lp4358
g57
(g58
g59
NtRp4359
(dp4360
g62
(dp4361
g70
I4
ssg71
g4355
sg64
(lp4362
S'/flota/static/plugin_layouts/superfish.js'
p4363
asbasbasbasbasbasbasbag57
(g73
g59
NtRp4364
(dp4365
g62
(dp4366
sg71
g3898
sg64
(lp4367
g57
(g78
g59
NtRp4368
(dp4369
g62
(dp4370
g82
g83
ssg71
g4364
sg64
(lp4371
S'flash'
p4372
asbag57
(g78
g59
NtRp4373
(dp4374
g62
(dp4375
g89
g90
ssg71
g4364
sg64
(lp4376
S':'
asbag57
(g78
g59
NtRp4377
(dp4378
g62
(dp4379
sg71
g4364
sg64
(lp4380
g57
(g58
g59
NtRp4381
(dp4382
g62
(dp4383
g70
I5
ssg71
g4377
sg64
(lp4384
S''
asbasbasbag57
(g73
g59
NtRp4385
(dp4386
g62
(dp4387
sg71
g3898
sg64
(lp4388
g57
(g78
g59
NtRp4389
(dp4390
g62
(dp4391
g82
g83
ssg71
g4385
sg64
(lp4392
S'generic_patterns'
p4393
asbag57
(g78
g59
NtRp4394
(dp4395
g62
(dp4396
g89
g90
ssg71
g4385
sg64
(lp4397
S':'
asbag57
(g78
g59
NtRp4398
(dp4399
g62
(dp4400
sg71
g4385
sg64
(lp4401
g57
(g58
g59
NtRp4402
(dp4403
g62
(dp4404
g70
I5
ssg71
g4398
sg64
(lp4405
g57
(g66
g59
NtRp4406
(dp4407
g62
(dp4408
g70
I4
ssg71
Nsg64
(lp4409
g57
(g73
g59
NtRp4410
(dp4411
g62
(dp4412
sg71
g4406
sg64
(lp4413
g57
(g78
g59
NtRp4414
(dp4415
g62
(dp4416
sg71
g4410
sg64
(lp4417
g57
(g58
g59
NtRp4418
(dp4419
g62
(dp4420
g70
I4
ssg71
g4414
sg64
(lp4421
S'*'
asbasbasbasbasbasbasbag57
(g73
g59
NtRp4422
(dp4423
g62
(dp4424
sg71
g3898
sg64
(lp4425
g57
(g78
g59
NtRp4426
(dp4427
g62
(dp4428
g82
g83
ssg71
g4422
sg64
(lp4429
S'headers'
p4430
asbag57
(g78
g59
NtRp4431
(dp4432
g62
(dp4433
g89
g90
ssg71
g4422
sg64
(lp4434
S':'
asbag57
(g78
g59
NtRp4435
(dp4436
g62
(dp4437
sg71
g4422
sg64
(lp4438
g57
(g58
g59
NtRp4439
(dp4440
g62
(dp4441
g70
I5
ssg71
g4435
sg64
(lp4442
g57
(g66
g59
NtRp4443
(dp4444
g62
(dp4445
g70
I4
ssg71
Nsg64
(lp4446
g57
(g73
g59
NtRp4447
(dp4448
g62
(dp4449
sg71
g4443
sg64
(lp4450
g57
(g78
g59
NtRp4451
(dp4452
g62
(dp4453
g82
g83
ssg71
g4447
sg64
(lp4454
S'X-Powered-By'
p4455
asbag57
(g78
g59
NtRp4456
(dp4457
g62
(dp4458
g89
g90
ssg71
g4447
sg64
(lp4459
S':'
asbag57
(g78
g59
NtRp4460
(dp4461
g62
(dp4462
sg71
g4447
sg64
(lp4463
g57
(g58
g59
NtRp4464
(dp4465
g62
(dp4466
g70
I4
ssg71
g4460
sg64
(lp4467
S'web2py'
p4468
asbasbasbasbasbasbasbag57
(g73
g59
NtRp4469
(dp4470
g62
(dp4471
sg71
g3898
sg64
(lp4472
g57
(g78
g59
NtRp4473
(dp4474
g62
(dp4475
g82
g83
ssg71
g4469
sg64
(lp4476
S'menu'
p4477
asbag57
(g78
g59
NtRp4478
(dp4479
g62
(dp4480
g89
g90
ssg71
g4469
sg64
(lp4481
S':'
asbag57
(g78
g59
NtRp4482
(dp4483
g62
(dp4484
sg71
g4469
sg64
(lp4485
g57
(g58
g59
NtRp4486
(dp4487
g62
(dp4488
g70
I5
ssg71
g4482
sg64
(lp4489
g57
(g66
g59
NtRp4490
(dp4491
g62
(dp4492
g70
I4
ssg71
Nsg64
(lp4493
g57
(g73
g59
NtRp4494
(dp4495
g62
(dp4496
sg71
g4490
sg64
(lp4497
g57
(g78
g59
NtRp4498
(dp4499
g62
(dp4500
sg71
g4494
sg64
(lp4501
g57
(g58
g59
NtRp4502
(dp4503
g62
(dp4504
g70
I4
ssg71
g4498
sg64
(lp4505
g57
(g66
g59
NtRp4506
(dp4507
g62
(dp4508
g70
I3
ssg71
Nsg64
(lp4509
g57
(g73
g59
NtRp4510
(dp4511
g62
(dp4512
sg71
g4506
sg64
(lp4513
g57
(g78
g59
NtRp4514
(dp4515
g62
(dp4516
sg71
g4510
sg64
(lp4517
g57
(g58
g59
NtRp4518
(dp4519
g62
(dp4520
g70
I3
ssg71
g4514
sg64
(lp4521
cgluon.languages
lazyT_unpickle
p4522
(S's\x06\x00\x00\x00Inicio'
tRp4523
asbasbasbag57
(g73
g59
NtRp4524
(dp4525
g62
(dp4526
sg71
g4506
sg64
(lp4527
g57
(g78
g59
NtRp4528
(dp4529
g62
(dp4530
sg71
g4524
sg64
(lp4531
g57
(g58
g59
NtRp4532
(dp4533
g62
(dp4534
g70
I3
ssg71
g4528
sg64
(lp4535
g100
asbasbasbag57
(g73
g59
NtRp4536
(dp4537
g62
(dp4538
sg71
g4506
sg64
(lp4539
g57
(g78
g59
NtRp4540
(dp4541
g62
(dp4542
sg71
g4536
sg64
(lp4543
g57
(g58
g59
NtRp4544
(dp4545
g62
(dp4546
g70
I3
ssg71
g4540
sg64
(lp4547
S'/flota/default/index'
p4548
asbasbasbag57
(g73
g59
NtRp4549
(dp4550
g62
(dp4551
sg71
g4506
sg64
(lp4552
g57
(g78
g59
NtRp4553
(dp4554
g62
(dp4555
sg71
g4549
sg64
(lp4556
g57
(g58
g59
NtRp4557
(dp4558
g62
(dp4559
g70
I3
ssg71
g4553
sg64
(lp4560
g57
(g66
g59
NtRp4561
(dp4562
g62
(dp4563
g70
I2
ssg71
Nsg64
(lp4564
sbasbasbasbasbasbasbasbag57
(g73
g59
NtRp4565
(dp4566
g62
(dp4567
sg71
g4490
sg64
(lp4568
g57
(g78
g59
NtRp4569
(dp4570
g62
(dp4571
sg71
g4565
sg64
(lp4572
g57
(g58
g59
NtRp4573
(dp4574
g62
(dp4575
g70
I4
ssg71
g4569
sg64
(lp4576
g57
(g66
g59
NtRp4577
(dp4578
g62
(dp4579
g70
I3
ssg71
Nsg64
(lp4580
g57
(g73
g59
NtRp4581
(dp4582
g62
(dp4583
sg71
g4577
sg64
(lp4584
g57
(g78
g59
NtRp4585
(dp4586
g62
(dp4587
sg71
g4581
sg64
(lp4588
g57
(g58
g59
NtRp4589
(dp4590
g62
(dp4591
g70
I3
ssg71
g4585
sg64
(lp4592
g4522
(S's\r\x00\x00\x00Configuracion'
tRp4593
asbasbasbag57
(g73
g59
NtRp4594
(dp4595
g62
(dp4596
sg71
g4577
sg64
(lp4597
g57
(g78
g59
NtRp4598
(dp4599
g62
(dp4600
sg71
g4594
sg64
(lp4601
g57
(g58
g59
NtRp4602
(dp4603
g62
(dp4604
g70
I3
ssg71
g4598
sg64
(lp4605
g100
asbasbasbag57
(g73
g59
NtRp4606
(dp4607
g62
(dp4608
sg71
g4577
sg64
(lp4609
g57
(g78
g59
NtRp4610
(dp4611
g62
(dp4612
sg71
g4606
sg64
(lp4613
g57
(g58
g59
NtRp4614
(dp4615
g62
(dp4616
g70
I3
ssg71
g4610
sg64
(lp4617
S'/flota/default/index'
p4618
asbasbasbag57
(g73
g59
NtRp4619
(dp4620
g62
(dp4621
sg71
g4577
sg64
(lp4622
g57
(g78
g59
NtRp4623
(dp4624
g62
(dp4625
sg71
g4619
sg64
(lp4626
g57
(g58
g59
NtRp4627
(dp4628
g62
(dp4629
g70
I3
ssg71
g4623
sg64
(lp4630
g57
(g66
g59
NtRp4631
(dp4632
g62
(dp4633
g70
I2
ssg71
Nsg64
(lp4634
g57
(g73
g59
NtRp4635
(dp4636
g62
(dp4637
sg71
g4631
sg64
(lp4638
g57
(g78
g59
NtRp4639
(dp4640
g62
(dp4641
sg71
g4635
sg64
(lp4642
g57
(g58
g59
NtRp4643
(dp4644
g62
(dp4645
g70
I2
ssg71
g4639
sg64
(lp4646
g57
(g66
g59
NtRp4647
(dp4648
g62
(dp4649
g70
I1
ssg71
Nsg64
(lp4650
g57
(g73
g59
NtRp4651
(dp4652
g62
(dp4653
sg71
g4647
sg64
(lp4654
g57
(g78
g59
NtRp4655
(dp4656
g62
(dp4657
sg71
g4651
sg64
(lp4658
g57
(g58
g59
NtRp4659
(dp4660
g62
(dp4661
g70
I1
ssg71
g4655
sg64
(lp4662
g4522
(S's\x06\x00\x00\x00Tablas'
tRp4663
asbasbasbag57
(g73
g59
NtRp4664
(dp4665
g62
(dp4666
sg71
g4647
sg64
(lp4667
g57
(g78
g59
NtRp4668
(dp4669
g62
(dp4670
sg71
g4664
sg64
(lp4671
g57
(g58
g59
NtRp4672
(dp4673
g62
(dp4674
g70
I1
ssg71
g4668
sg64
(lp4675
I00
asbasbasbag57
(g73
g59
NtRp4676
(dp4677
g62
(dp4678
sg71
g4647
sg64
(lp4679
g57
(g78
g59
NtRp4680
(dp4681
g62
(dp4682
sg71
g4676
sg64
(lp4683
g57
(g58
g59
NtRp4684
(dp4685
g62
(dp4686
g70
I1
ssg71
g4680
sg64
(lp4687
S'/flota/tablas/index'
p4688
asbasbasbasbasbasbasbag57
(g73
g59
NtRp4689
(dp4690
g62
(dp4691
sg71
g4631
sg64
(lp4692
g57
(g78
g59
NtRp4693
(dp4694
g62
(dp4695
sg71
g4689
sg64
(lp4696
g57
(g58
g59
NtRp4697
(dp4698
g62
(dp4699
g70
I2
ssg71
g4693
sg64
(lp4700
g57
(g66
g59
NtRp4701
(dp4702
g62
(dp4703
g70
I1
ssg71
Nsg64
(lp4704
g57
(g73
g59
NtRp4705
(dp4706
g62
(dp4707
sg71
g4701
sg64
(lp4708
g57
(g78
g59
NtRp4709
(dp4710
g62
(dp4711
sg71
g4705
sg64
(lp4712
g57
(g58
g59
NtRp4713
(dp4714
g62
(dp4715
g70
I1
ssg71
g4709
sg64
(lp4716
g4522
(S's\x08\x00\x00\x00Maestros'
tRp4717
asbasbasbag57
(g73
g59
NtRp4718
(dp4719
g62
(dp4720
sg71
g4701
sg64
(lp4721
g57
(g78
g59
NtRp4722
(dp4723
g62
(dp4724
sg71
g4718
sg64
(lp4725
g57
(g58
g59
NtRp4726
(dp4727
g62
(dp4728
g70
I1
ssg71
g4722
sg64
(lp4729
I00
asbasbasbag57
(g73
g59
NtRp4730
(dp4731
g62
(dp4732
sg71
g4701
sg64
(lp4733
g57
(g78
g59
NtRp4734
(dp4735
g62
(dp4736
sg71
g4730
sg64
(lp4737
g57
(g58
g59
NtRp4738
(dp4739
g62
(dp4740
g70
I1
ssg71
g4734
sg64
(lp4741
S'/flota/maestros/index'
p4742
asbasbasbasbasbasbasbasbasbasbasbasbasbasbasbag57
(g73
g59
NtRp4743
(dp4744
g62
(dp4745
sg71
g4490
sg64
(lp4746
g57
(g78
g59
NtRp4747
(dp4748
g62
(dp4749
sg71
g4743
sg64
(lp4750
g57
(g58
g59
NtRp4751
(dp4752
g62
(dp4753
g70
I4
ssg71
g4747
sg64
(lp4754
g57
(g66
g59
NtRp4755
(dp4756
g62
(dp4757
g70
I3
ssg71
Nsg64
(lp4758
g57
(g73
g59
NtRp4759
(dp4760
g62
(dp4761
sg71
g4755
sg64
(lp4762
g57
(g78
g59
NtRp4763
(dp4764
g62
(dp4765
sg71
g4759
sg64
(lp4766
g57
(g58
g59
NtRp4767
(dp4768
g62
(dp4769
g70
I3
ssg71
g4763
sg64
(lp4770
g4522
(S's\x06\x00\x00\x00Gastos'
tRp4771
asbasbasbag57
(g73
g59
NtRp4772
(dp4773
g62
(dp4774
sg71
g4755
sg64
(lp4775
g57
(g78
g59
NtRp4776
(dp4777
g62
(dp4778
sg71
g4772
sg64
(lp4779
g57
(g58
g59
NtRp4780
(dp4781
g62
(dp4782
g70
I3
ssg71
g4776
sg64
(lp4783
g100
asbasbasbag57
(g73
g59
NtRp4784
(dp4785
g62
(dp4786
sg71
g4755
sg64
(lp4787
g57
(g78
g59
NtRp4788
(dp4789
g62
(dp4790
sg71
g4784
sg64
(lp4791
g57
(g58
g59
NtRp4792
(dp4793
g62
(dp4794
g70
I3
ssg71
g4788
sg64
(lp4795
S'/flota/default/index'
p4796
asbasbasbag57
(g73
g59
NtRp4797
(dp4798
g62
(dp4799
sg71
g4755
sg64
(lp4800
g57
(g78
g59
NtRp4801
(dp4802
g62
(dp4803
sg71
g4797
sg64
(lp4804
g57
(g58
g59
NtRp4805
(dp4806
g62
(dp4807
g70
I3
ssg71
g4801
sg64
(lp4808
g57
(g66
g59
NtRp4809
(dp4810
g62
(dp4811
g70
I2
ssg71
Nsg64
(lp4812
g57
(g73
g59
NtRp4813
(dp4814
g62
(dp4815
sg71
g4809
sg64
(lp4816
g57
(g78
g59
NtRp4817
(dp4818
g62
(dp4819
sg71
g4813
sg64
(lp4820
g57
(g58
g59
NtRp4821
(dp4822
g62
(dp4823
g70
I2
ssg71
g4817
sg64
(lp4824
g57
(g66
g59
NtRp4825
(dp4826
g62
(dp4827
g70
I1
ssg71
Nsg64
(lp4828
g57
(g73
g59
NtRp4829
(dp4830
g62
(dp4831
sg71
g4825
sg64
(lp4832
g57
(g78
g59
NtRp4833
(dp4834
g62
(dp4835
sg71
g4829
sg64
(lp4836
g57
(g58
g59
NtRp4837
(dp4838
g62
(dp4839
g70
I1
ssg71
g4833
sg64
(lp4840
g4522
(S's\x08\x00\x00\x00Choferes'
tRp4841
asbasbasbag57
(g73
g59
NtRp4842
(dp4843
g62
(dp4844
sg71
g4825
sg64
(lp4845
g57
(g78
g59
NtRp4846
(dp4847
g62
(dp4848
sg71
g4842
sg64
(lp4849
g57
(g58
g59
NtRp4850
(dp4851
g62
(dp4852
g70
I1
ssg71
g4846
sg64
(lp4853
I00
asbasbasbag57
(g73
g59
NtRp4854
(dp4855
g62
(dp4856
sg71
g4825
sg64
(lp4857
g57
(g78
g59
NtRp4858
(dp4859
g62
(dp4860
sg71
g4854
sg64
(lp4861
g57
(g58
g59
NtRp4862
(dp4863
g62
(dp4864
g70
I1
ssg71
g4858
sg64
(lp4865
S'/flota/chofer/index'
p4866
asbasbasbasbasbasbasbag57
(g73
g59
NtRp4867
(dp4868
g62
(dp4869
sg71
g4809
sg64
(lp4870
g57
(g78
g59
NtRp4871
(dp4872
g62
(dp4873
sg71
g4867
sg64
(lp4874
g57
(g58
g59
NtRp4875
(dp4876
g62
(dp4877
g70
I2
ssg71
g4871
sg64
(lp4878
g57
(g66
g59
NtRp4879
(dp4880
g62
(dp4881
g70
I1
ssg71
Nsg64
(lp4882
g57
(g73
g59
NtRp4883
(dp4884
g62
(dp4885
sg71
g4879
sg64
(lp4886
g57
(g78
g59
NtRp4887
(dp4888
g62
(dp4889
sg71
g4883
sg64
(lp4890
g57
(g58
g59
NtRp4891
(dp4892
g62
(dp4893
g70
I1
ssg71
g4887
sg64
(lp4894
g4522
(S's\t\x00\x00\x00Vehiculos'
tRp4895
asbasbasbag57
(g73
g59
NtRp4896
(dp4897
g62
(dp4898
sg71
g4879
sg64
(lp4899
g57
(g78
g59
NtRp4900
(dp4901
g62
(dp4902
sg71
g4896
sg64
(lp4903
g57
(g58
g59
NtRp4904
(dp4905
g62
(dp4906
g70
I1
ssg71
g4900
sg64
(lp4907
I00
asbasbasbag57
(g73
g59
NtRp4908
(dp4909
g62
(dp4910
sg71
g4879
sg64
(lp4911
g57
(g78
g59
NtRp4912
(dp4913
g62
(dp4914
sg71
g4908
sg64
(lp4915
g57
(g58
g59
NtRp4916
(dp4917
g62
(dp4918
g70
I1
ssg71
g4912
sg64
(lp4919
S'/flota/vehiculo/index'
p4920
asbasbasbasbasbasbasbag57
(g73
g59
NtRp4921
(dp4922
g62
(dp4923
sg71
g4809
sg64
(lp4924
g57
(g78
g59
NtRp4925
(dp4926
g62
(dp4927
sg71
g4921
sg64
(lp4928
g57
(g58
g59
NtRp4929
(dp4930
g62
(dp4931
g70
I2
ssg71
g4925
sg64
(lp4932
g57
(g66
g59
NtRp4933
(dp4934
g62
(dp4935
g70
I1
ssg71
Nsg64
(lp4936
g57
(g73
g59
NtRp4937
(dp4938
g62
(dp4939
sg71
g4933
sg64
(lp4940
g57
(g78
g59
NtRp4941
(dp4942
g62
(dp4943
sg71
g4937
sg64
(lp4944
g57
(g58
g59
NtRp4945
(dp4946
g62
(dp4947
g70
I1
ssg71
g4941
sg64
(lp4948
g4522
(S's\x13\x00\x00\x00Solicitud de Viajes'
tRp4949
asbasbasbag57
(g73
g59
NtRp4950
(dp4951
g62
(dp4952
sg71
g4933
sg64
(lp4953
g57
(g78
g59
NtRp4954
(dp4955
g62
(dp4956
sg71
g4950
sg64
(lp4957
g57
(g58
g59
NtRp4958
(dp4959
g62
(dp4960
g70
I1
ssg71
g4954
sg64
(lp4961
I00
asbasbasbag57
(g73
g59
NtRp4962
(dp4963
g62
(dp4964
sg71
g4933
sg64
(lp4965
g57
(g78
g59
NtRp4966
(dp4967
g62
(dp4968
sg71
g4962
sg64
(lp4969
g57
(g58
g59
NtRp4970
(dp4971
g62
(dp4972
g70
I1
ssg71
g4966
sg64
(lp4973
S'/flota/viaje/index'
p4974
asbasbasbasbasbasbasbag57
(g73
g59
NtRp4975
(dp4976
g62
(dp4977
sg71
g4809
sg64
(lp4978
g57
(g78
g59
NtRp4979
(dp4980
g62
(dp4981
sg71
g4975
sg64
(lp4982
g57
(g58
g59
NtRp4983
(dp4984
g62
(dp4985
g70
I2
ssg71
g4979
sg64
(lp4986
g57
(g66
g59
NtRp4987
(dp4988
g62
(dp4989
g70
I1
ssg71
Nsg64
(lp4990
g57
(g73
g59
NtRp4991
(dp4992
g62
(dp4993
sg71
g4987
sg64
(lp4994
g57
(g78
g59
NtRp4995
(dp4996
g62
(dp4997
sg71
g4991
sg64
(lp4998
g57
(g58
g59
NtRp4999
(dp5000
g62
(dp5001
g70
I1
ssg71
g4995
sg64
(lp5002
g4522
(S's\x14\x00\x00\x00Asignacion de Viajes'
tRp5003
asbasbasbag57
(g73
g59
NtRp5004
(dp5005
g62
(dp5006
sg71
g4987
sg64
(lp5007
g57
(g78
g59
NtRp5008
(dp5009
g62
(dp5010
sg71
g5004
sg64
(lp5011
g57
(g58
g59
NtRp5012
(dp5013
g62
(dp5014
g70
I1
ssg71
g5008
sg64
(lp5015
I00
asbasbasbag57
(g73
g59
NtRp5016
(dp5017
g62
(dp5018
sg71
g4987
sg64
(lp5019
g57
(g78
g59
NtRp5020
(dp5021
g62
(dp5022
sg71
g5016
sg64
(lp5023
g57
(g58
g59
NtRp5024
(dp5025
g62
(dp5026
g70
I1
ssg71
g5020
sg64
(lp5027
S'/flota/asignacion/index'
p5028
asbasbasbasbasbasbasbasbasbasbasbasbasbasbasbag57
(g73
g59
NtRp5029
(dp5030
g62
(dp5031
sg71
g4490
sg64
(lp5032
g57
(g78
g59
NtRp5033
(dp5034
g62
(dp5035
sg71
g5029
sg64
(lp5036
g57
(g58
g59
NtRp5037
(dp5038
g62
(dp5039
g70
I4
ssg71
g5033
sg64
(lp5040
g57
(g66
g59
NtRp5041
(dp5042
g62
(dp5043
g70
I3
ssg71
Nsg64
(lp5044
g57
(g73
g59
NtRp5045
(dp5046
g62
(dp5047
sg71
g5041
sg64
(lp5048
g57
(g78
g59
NtRp5049
(dp5050
g62
(dp5051
sg71
g5045
sg64
(lp5052
g57
(g58
g59
NtRp5053
(dp5054
g62
(dp5055
g70
I3
ssg71
g5049
sg64
(lp5056
g4522
(S's\t\x00\x00\x00Traslados'
tRp5057
asbasbasbag57
(g73
g59
NtRp5058
(dp5059
g62
(dp5060
sg71
g5041
sg64
(lp5061
g57
(g78
g59
NtRp5062
(dp5063
g62
(dp5064
sg71
g5058
sg64
(lp5065
g57
(g58
g59
NtRp5066
(dp5067
g62
(dp5068
g70
I3
ssg71
g5062
sg64
(lp5069
g100
asbasbasbag57
(g73
g59
NtRp5070
(dp5071
g62
(dp5072
sg71
g5041
sg64
(lp5073
g57
(g78
g59
NtRp5074
(dp5075
g62
(dp5076
sg71
g5070
sg64
(lp5077
g57
(g58
g59
NtRp5078
(dp5079
g62
(dp5080
g70
I3
ssg71
g5074
sg64
(lp5081
S'/flota/default/index'
p5082
asbasbasbag57
(g73
g59
NtRp5083
(dp5084
g62
(dp5085
sg71
g5041
sg64
(lp5086
g57
(g78
g59
NtRp5087
(dp5088
g62
(dp5089
sg71
g5083
sg64
(lp5090
g57
(g58
g59
NtRp5091
(dp5092
g62
(dp5093
g70
I3
ssg71
g5087
sg64
(lp5094
g57
(g66
g59
NtRp5095
(dp5096
g62
(dp5097
g70
I2
ssg71
Nsg64
(lp5098
g57
(g73
g59
NtRp5099
(dp5100
g62
(dp5101
sg71
g5095
sg64
(lp5102
g57
(g78
g59
NtRp5103
(dp5104
g62
(dp5105
sg71
g5099
sg64
(lp5106
g57
(g58
g59
NtRp5107
(dp5108
g62
(dp5109
g70
I2
ssg71
g5103
sg64
(lp5110
g57
(g66
g59
NtRp5111
(dp5112
g62
(dp5113
g70
I1
ssg71
Nsg64
(lp5114
g57
(g73
g59
NtRp5115
(dp5116
g62
(dp5117
sg71
g5111
sg64
(lp5118
g57
(g78
g59
NtRp5119
(dp5120
g62
(dp5121
sg71
g5115
sg64
(lp5122
g57
(g58
g59
NtRp5123
(dp5124
g62
(dp5125
g70
I1
ssg71
g5119
sg64
(lp5126
g4522
(S's\x08\x00\x00\x00Choferes'
tRp5127
asbasbasbag57
(g73
g59
NtRp5128
(dp5129
g62
(dp5130
sg71
g5111
sg64
(lp5131
g57
(g78
g59
NtRp5132
(dp5133
g62
(dp5134
sg71
g5128
sg64
(lp5135
g57
(g58
g59
NtRp5136
(dp5137
g62
(dp5138
g70
I1
ssg71
g5132
sg64
(lp5139
I00
asbasbasbag57
(g73
g59
NtRp5140
(dp5141
g62
(dp5142
sg71
g5111
sg64
(lp5143
g57
(g78
g59
NtRp5144
(dp5145
g62
(dp5146
sg71
g5140
sg64
(lp5147
g57
(g58
g59
NtRp5148
(dp5149
g62
(dp5150
g70
I1
ssg71
g5144
sg64
(lp5151
S'/flota/chofer/index'
p5152
asbasbasbasbasbasbasbag57
(g73
g59
NtRp5153
(dp5154
g62
(dp5155
sg71
g5095
sg64
(lp5156
g57
(g78
g59
NtRp5157
(dp5158
g62
(dp5159
sg71
g5153
sg64
(lp5160
g57
(g58
g59
NtRp5161
(dp5162
g62
(dp5163
g70
I2
ssg71
g5157
sg64
(lp5164
g57
(g66
g59
NtRp5165
(dp5166
g62
(dp5167
g70
I1
ssg71
Nsg64
(lp5168
g57
(g73
g59
NtRp5169
(dp5170
g62
(dp5171
sg71
g5165
sg64
(lp5172
g57
(g78
g59
NtRp5173
(dp5174
g62
(dp5175
sg71
g5169
sg64
(lp5176
g57
(g58
g59
NtRp5177
(dp5178
g62
(dp5179
g70
I1
ssg71
g5173
sg64
(lp5180
g4522
(S's\t\x00\x00\x00Vehiculos'
tRp5181
asbasbasbag57
(g73
g59
NtRp5182
(dp5183
g62
(dp5184
sg71
g5165
sg64
(lp5185
g57
(g78
g59
NtRp5186
(dp5187
g62
(dp5188
sg71
g5182
sg64
(lp5189
g57
(g58
g59
NtRp5190
(dp5191
g62
(dp5192
g70
I1
ssg71
g5186
sg64
(lp5193
I00
asbasbasbag57
(g73
g59
NtRp5194
(dp5195
g62
(dp5196
sg71
g5165
sg64
(lp5197
g57
(g78
g59
NtRp5198
(dp5199
g62
(dp5200
sg71
g5194
sg64
(lp5201
g57
(g58
g59
NtRp5202
(dp5203
g62
(dp5204
g70
I1
ssg71
g5198
sg64
(lp5205
S'/flota/vehiculo/index'
p5206
asbasbasbasbasbasbasbag57
(g73
g59
NtRp5207
(dp5208
g62
(dp5209
sg71
g5095
sg64
(lp5210
g57
(g78
g59
NtRp5211
(dp5212
g62
(dp5213
sg71
g5207
sg64
(lp5214
g57
(g58
g59
NtRp5215
(dp5216
g62
(dp5217
g70
I2
ssg71
g5211
sg64
(lp5218
g57
(g66
g59
NtRp5219
(dp5220
g62
(dp5221
g70
I1
ssg71
Nsg64
(lp5222
g57
(g73
g59
NtRp5223
(dp5224
g62
(dp5225
sg71
g5219
sg64
(lp5226
g57
(g78
g59
NtRp5227
(dp5228
g62
(dp5229
sg71
g5223
sg64
(lp5230
g57
(g58
g59
NtRp5231
(dp5232
g62
(dp5233
g70
I1
ssg71
g5227
sg64
(lp5234
g4522
(S's\x13\x00\x00\x00Solicitud de Viajes'
tRp5235
asbasbasbag57
(g73
g59
NtRp5236
(dp5237
g62
(dp5238
sg71
g5219
sg64
(lp5239
g57
(g78
g59
NtRp5240
(dp5241
g62
(dp5242
sg71
g5236
sg64
(lp5243
g57
(g58
g59
NtRp5244
(dp5245
g62
(dp5246
g70
I1
ssg71
g5240
sg64
(lp5247
I00
asbasbasbag57
(g73
g59
NtRp5248
(dp5249
g62
(dp5250
sg71
g5219
sg64
(lp5251
g57
(g78
g59
NtRp5252
(dp5253
g62
(dp5254
sg71
g5248
sg64
(lp5255
g57
(g58
g59
NtRp5256
(dp5257
g62
(dp5258
g70
I1
ssg71
g5252
sg64
(lp5259
S'/flota/viaje/index'
p5260
asbasbasbasbasbasbasbag57
(g73
g59
NtRp5261
(dp5262
g62
(dp5263
sg71
g5095
sg64
(lp5264
g57
(g78
g59
NtRp5265
(dp5266
g62
(dp5267
sg71
g5261
sg64
(lp5268
g57
(g58
g59
NtRp5269
(dp5270
g62
(dp5271
g70
I2
ssg71
g5265
sg64
(lp5272
g57
(g66
g59
NtRp5273
(dp5274
g62
(dp5275
g70
I1
ssg71
Nsg64
(lp5276
g57
(g73
g59
NtRp5277
(dp5278
g62
(dp5279
sg71
g5273
sg64
(lp5280
g57
(g78
g59
NtRp5281
(dp5282
g62
(dp5283
sg71
g5277
sg64
(lp5284
g57
(g58
g59
NtRp5285
(dp5286
g62
(dp5287
g70
I1
ssg71
g5281
sg64
(lp5288
g4522
(S's\x14\x00\x00\x00Asignacion de Viajes'
tRp5289
asbasbasbag57
(g73
g59
NtRp5290
(dp5291
g62
(dp5292
sg71
g5273
sg64
(lp5293
g57
(g78
g59
NtRp5294
(dp5295
g62
(dp5296
sg71
g5290
sg64
(lp5297
g57
(g58
g59
NtRp5298
(dp5299
g62
(dp5300
g70
I1
ssg71
g5294
sg64
(lp5301
I00
asbasbasbag57
(g73
g59
NtRp5302
(dp5303
g62
(dp5304
sg71
g5273
sg64
(lp5305
g57
(g78
g59
NtRp5306
(dp5307
g62
(dp5308
sg71
g5302
sg64
(lp5309
g57
(g58
g59
NtRp5310
(dp5311
g62
(dp5312
g70
I1
ssg71
g5306
sg64
(lp5313
S'/flota/asignacion/index'
p5314
asbasbasbasbasbasbasbasbasbasbasbasbasbasbasbag57
(g73
g59
NtRp5315
(dp5316
g62
(dp5317
sg71
g4490
sg64
(lp5318
g57
(g78
g59
NtRp5319
(dp5320
g62
(dp5321
sg71
g5315
sg64
(lp5322
g57
(g58
g59
NtRp5323
(dp5324
g62
(dp5325
g70
I4
ssg71
g5319
sg64
(lp5326
g57
(g66
g59
NtRp5327
(dp5328
g62
(dp5329
g70
I3
ssg71
Nsg64
(lp5330
g57
(g73
g59
NtRp5331
(dp5332
g62
(dp5333
sg71
g5327
sg64
(lp5334
g57
(g78
g59
NtRp5335
(dp5336
g62
(dp5337
sg71
g5331
sg64
(lp5338
g57
(g58
g59
NtRp5339
(dp5340
g62
(dp5341
g70
I3
ssg71
g5335
sg64
(lp5342
g4522
(S's\x0b\x00\x00\x00Facturacion'
tRp5343
asbasbasbag57
(g73
g59
NtRp5344
(dp5345
g62
(dp5346
sg71
g5327
sg64
(lp5347
g57
(g78
g59
NtRp5348
(dp5349
g62
(dp5350
sg71
g5344
sg64
(lp5351
g57
(g58
g59
NtRp5352
(dp5353
g62
(dp5354
g70
I3
ssg71
g5348
sg64
(lp5355
g100
asbasbasbag57
(g73
g59
NtRp5356
(dp5357
g62
(dp5358
sg71
g5327
sg64
(lp5359
g57
(g78
g59
NtRp5360
(dp5361
g62
(dp5362
sg71
g5356
sg64
(lp5363
g57
(g58
g59
NtRp5364
(dp5365
g62
(dp5366
g70
I3
ssg71
g5360
sg64
(lp5367
S'/admin/default/design/flota'
p5368
asbasbasbag57
(g73
g59
NtRp5369
(dp5370
g62
(dp5371
sg71
g5327
sg64
(lp5372
g57
(g78
g59
NtRp5373
(dp5374
g62
(dp5375
sg71
g5369
sg64
(lp5376
g57
(g58
g59
NtRp5377
(dp5378
g62
(dp5379
g70
I3
ssg71
g5373
sg64
(lp5380
g57
(g66
g59
NtRp5381
(dp5382
g62
(dp5383
g70
I2
ssg71
Nsg64
(lp5384
g57
(g73
g59
NtRp5385
(dp5386
g62
(dp5387
sg71
g5381
sg64
(lp5388
g57
(g78
g59
NtRp5389
(dp5390
g62
(dp5391
sg71
g5385
sg64
(lp5392
g57
(g58
g59
NtRp5393
(dp5394
g62
(dp5395
g70
I2
ssg71
g5389
sg64
(lp5396
g57
(g66
g59
NtRp5397
(dp5398
g62
(dp5399
g70
I1
ssg71
Nsg64
(lp5400
g57
(g73
g59
NtRp5401
(dp5402
g62
(dp5403
sg71
g5397
sg64
(lp5404
g57
(g78
g59
NtRp5405
(dp5406
g62
(dp5407
sg71
g5401
sg64
(lp5408
g57
(g58
g59
NtRp5409
(dp5410
g62
(dp5411
g70
I1
ssg71
g5405
sg64
(lp5412
g4522
(S's\x12\x00\x00\x00Tipos de documento'
tRp5413
asbasbasbag57
(g73
g59
NtRp5414
(dp5415
g62
(dp5416
sg71
g5397
sg64
(lp5417
g57
(g78
g59
NtRp5418
(dp5419
g62
(dp5420
sg71
g5414
sg64
(lp5421
g57
(g58
g59
NtRp5422
(dp5423
g62
(dp5424
g70
I1
ssg71
g5418
sg64
(lp5425
I00
asbasbasbag57
(g73
g59
NtRp5426
(dp5427
g62
(dp5428
sg71
g5397
sg64
(lp5429
g57
(g78
g59
NtRp5430
(dp5431
g62
(dp5432
sg71
g5426
sg64
(lp5433
g57
(g58
g59
NtRp5434
(dp5435
g62
(dp5436
g70
I1
ssg71
g5430
sg64
(lp5437
S'/flota/tipodoc/index'
p5438
asbasbasbasbasbasbasbag57
(g73
g59
NtRp5439
(dp5440
g62
(dp5441
sg71
g5381
sg64
(lp5442
g57
(g78
g59
NtRp5443
(dp5444
g62
(dp5445
sg71
g5439
sg64
(lp5446
g57
(g58
g59
NtRp5447
(dp5448
g62
(dp5449
g70
I2
ssg71
g5443
sg64
(lp5450
g57
(g66
g59
NtRp5451
(dp5452
g62
(dp5453
g70
I1
ssg71
Nsg64
(lp5454
g57
(g73
g59
NtRp5455
(dp5456
g62
(dp5457
sg71
g5451
sg64
(lp5458
g57
(g78
g59
NtRp5459
(dp5460
g62
(dp5461
sg71
g5455
sg64
(lp5462
g57
(g58
g59
NtRp5463
(dp5464
g62
(dp5465
g70
I1
ssg71
g5459
sg64
(lp5466
g4522
(S's\x06\x00\x00\x00Bancos'
tRp5467
asbasbasbag57
(g73
g59
NtRp5468
(dp5469
g62
(dp5470
sg71
g5451
sg64
(lp5471
g57
(g78
g59
NtRp5472
(dp5473
g62
(dp5474
sg71
g5468
sg64
(lp5475
g57
(g58
g59
NtRp5476
(dp5477
g62
(dp5478
g70
I1
ssg71
g5472
sg64
(lp5479
I00
asbasbasbag57
(g73
g59
NtRp5480
(dp5481
g62
(dp5482
sg71
g5451
sg64
(lp5483
g57
(g78
g59
NtRp5484
(dp5485
g62
(dp5486
sg71
g5480
sg64
(lp5487
g57
(g58
g59
NtRp5488
(dp5489
g62
(dp5490
g70
I1
ssg71
g5484
sg64
(lp5491
S'/flota/banco/index'
p5492
asbasbasbasbasbasbasbag57
(g73
g59
NtRp5493
(dp5494
g62
(dp5495
sg71
g5381
sg64
(lp5496
g57
(g78
g59
NtRp5497
(dp5498
g62
(dp5499
sg71
g5493
sg64
(lp5500
g57
(g58
g59
NtRp5501
(dp5502
g62
(dp5503
g70
I2
ssg71
g5497
sg64
(lp5504
g57
(g66
g59
NtRp5505
(dp5506
g62
(dp5507
g70
I1
ssg71
Nsg64
(lp5508
g57
(g73
g59
NtRp5509
(dp5510
g62
(dp5511
sg71
g5505
sg64
(lp5512
g57
(g78
g59
NtRp5513
(dp5514
g62
(dp5515
sg71
g5509
sg64
(lp5516
g57
(g58
g59
NtRp5517
(dp5518
g62
(dp5519
g70
I1
ssg71
g5513
sg64
(lp5520
g4522
(S's\x0e\x00\x00\x00Formas de pago'
tRp5521
asbasbasbag57
(g73
g59
NtRp5522
(dp5523
g62
(dp5524
sg71
g5505
sg64
(lp5525
g57
(g78
g59
NtRp5526
(dp5527
g62
(dp5528
sg71
g5522
sg64
(lp5529
g57
(g58
g59
NtRp5530
(dp5531
g62
(dp5532
g70
I1
ssg71
g5526
sg64
(lp5533
I00
asbasbasbag57
(g73
g59
NtRp5534
(dp5535
g62
(dp5536
sg71
g5505
sg64
(lp5537
g57
(g78
g59
NtRp5538
(dp5539
g62
(dp5540
sg71
g5534
sg64
(lp5541
g57
(g58
g59
NtRp5542
(dp5543
g62
(dp5544
g70
I1
ssg71
g5538
sg64
(lp5545
S'/flota/formapago/index'
p5546
asbasbasbasbasbasbasbag57
(g73
g59
NtRp5547
(dp5548
g62
(dp5549
sg71
g5381
sg64
(lp5550
g57
(g78
g59
NtRp5551
(dp5552
g62
(dp5553
sg71
g5547
sg64
(lp5554
g57
(g58
g59
NtRp5555
(dp5556
g62
(dp5557
g70
I2
ssg71
g5551
sg64
(lp5558
g57
(g66
g59
NtRp5559
(dp5560
g62
(dp5561
g70
I1
ssg71
Nsg64
(lp5562
g57
(g73
g59
NtRp5563
(dp5564
g62
(dp5565
sg71
g5559
sg64
(lp5566
g57
(g78
g59
NtRp5567
(dp5568
g62
(dp5569
sg71
g5563
sg64
(lp5570
g57
(g58
g59
NtRp5571
(dp5572
g62
(dp5573
g70
I1
ssg71
g5567
sg64
(lp5574
g4522
(S's\x15\x00\x00\x00Tarifas por servicios'
tRp5575
asbasbasbag57
(g73
g59
NtRp5576
(dp5577
g62
(dp5578
sg71
g5559
sg64
(lp5579
g57
(g78
g59
NtRp5580
(dp5581
g62
(dp5582
sg71
g5576
sg64
(lp5583
g57
(g58
g59
NtRp5584
(dp5585
g62
(dp5586
g70
I1
ssg71
g5580
sg64
(lp5587
I00
asbasbasbag57
(g73
g59
NtRp5588
(dp5589
g62
(dp5590
sg71
g5559
sg64
(lp5591
g57
(g78
g59
NtRp5592
(dp5593
g62
(dp5594
sg71
g5588
sg64
(lp5595
g57
(g58
g59
NtRp5596
(dp5597
g62
(dp5598
g70
I1
ssg71
g5592
sg64
(lp5599
S'/flota/servicio/index'
p5600
asbasbasbasbasbasbasbag57
(g73
g59
NtRp5601
(dp5602
g62
(dp5603
sg71
g5381
sg64
(lp5604
g57
(g78
g59
NtRp5605
(dp5606
g62
(dp5607
sg71
g5601
sg64
(lp5608
g57
(g58
g59
NtRp5609
(dp5610
g62
(dp5611
g70
I2
ssg71
g5605
sg64
(lp5612
g57
(g66
g59
NtRp5613
(dp5614
g62
(dp5615
g70
I1
ssg71
Nsg64
(lp5616
g57
(g73
g59
NtRp5617
(dp5618
g62
(dp5619
sg71
g5613
sg64
(lp5620
g57
(g78
g59
NtRp5621
(dp5622
g62
(dp5623
sg71
g5617
sg64
(lp5624
g57
(g58
g59
NtRp5625
(dp5626
g62
(dp5627
g70
I1
ssg71
g5621
sg64
(lp5628
g4522
(S's\x0c\x00\x00\x00Presupuestos'
tRp5629
asbasbasbag57
(g73
g59
NtRp5630
(dp5631
g62
(dp5632
sg71
g5613
sg64
(lp5633
g57
(g78
g59
NtRp5634
(dp5635
g62
(dp5636
sg71
g5630
sg64
(lp5637
g57
(g58
g59
NtRp5638
(dp5639
g62
(dp5640
g70
I1
ssg71
g5634
sg64
(lp5641
I00
asbasbasbag57
(g73
g59
NtRp5642
(dp5643
g62
(dp5644
sg71
g5613
sg64
(lp5645
g57
(g78
g59
NtRp5646
(dp5647
g62
(dp5648
sg71
g5642
sg64
(lp5649
g57
(g58
g59
NtRp5650
(dp5651
g62
(dp5652
g70
I1
ssg71
g5646
sg64
(lp5653
S'/flota/presupuesto/index'
p5654
asbasbasbasbasbasbasbag57
(g73
g59
NtRp5655
(dp5656
g62
(dp5657
sg71
g5381
sg64
(lp5658
g57
(g78
g59
NtRp5659
(dp5660
g62
(dp5661
sg71
g5655
sg64
(lp5662
g57
(g58
g59
NtRp5663
(dp5664
g62
(dp5665
g70
I2
ssg71
g5659
sg64
(lp5666
g57
(g66
g59
NtRp5667
(dp5668
g62
(dp5669
g70
I1
ssg71
Nsg64
(lp5670
g57
(g73
g59
NtRp5671
(dp5672
g62
(dp5673
sg71
g5667
sg64
(lp5674
g57
(g78
g59
NtRp5675
(dp5676
g62
(dp5677
sg71
g5671
sg64
(lp5678
g57
(g58
g59
NtRp5679
(dp5680
g62
(dp5681
g70
I1
ssg71
g5675
sg64
(lp5682
g4522
(S's\x15\x00\x00\x00Facturar Presupuestos'
tRp5683
asbasbasbag57
(g73
g59
NtRp5684
(dp5685
g62
(dp5686
sg71
g5667
sg64
(lp5687
g57
(g78
g59
NtRp5688
(dp5689
g62
(dp5690
sg71
g5684
sg64
(lp5691
g57
(g58
g59
NtRp5692
(dp5693
g62
(dp5694
g70
I1
ssg71
g5688
sg64
(lp5695
I00
asbasbasbag57
(g73
g59
NtRp5696
(dp5697
g62
(dp5698
sg71
g5667
sg64
(lp5699
g57
(g78
g59
NtRp5700
(dp5701
g62
(dp5702
sg71
g5696
sg64
(lp5703
g57
(g58
g59
NtRp5704
(dp5705
g62
(dp5706
g70
I1
ssg71
g5700
sg64
(lp5707
S'/flota/facturar/index'
p5708
asbasbasbasbasbasbasbag57
(g73
g59
NtRp5709
(dp5710
g62
(dp5711
sg71
g5381
sg64
(lp5712
g57
(g78
g59
NtRp5713
(dp5714
g62
(dp5715
sg71
g5709
sg64
(lp5716
g57
(g58
g59
NtRp5717
(dp5718
g62
(dp5719
g70
I2
ssg71
g5713
sg64
(lp5720
g57
(g66
g59
NtRp5721
(dp5722
g62
(dp5723
g70
I1
ssg71
Nsg64
(lp5724
g57
(g73
g59
NtRp5725
(dp5726
g62
(dp5727
sg71
g5721
sg64
(lp5728
g57
(g78
g59
NtRp5729
(dp5730
g62
(dp5731
sg71
g5725
sg64
(lp5732
g57
(g58
g59
NtRp5733
(dp5734
g62
(dp5735
g70
I1
ssg71
g5729
sg64
(lp5736
g4522
(S's\x08\x00\x00\x00Facturas'
tRp5737
asbasbasbag57
(g73
g59
NtRp5738
(dp5739
g62
(dp5740
sg71
g5721
sg64
(lp5741
g57
(g78
g59
NtRp5742
(dp5743
g62
(dp5744
sg71
g5738
sg64
(lp5745
g57
(g58
g59
NtRp5746
(dp5747
g62
(dp5748
g70
I1
ssg71
g5742
sg64
(lp5749
I00
asbasbasbag57
(g73
g59
NtRp5750
(dp5751
g62
(dp5752
sg71
g5721
sg64
(lp5753
g57
(g78
g59
NtRp5754
(dp5755
g62
(dp5756
sg71
g5750
sg64
(lp5757
g57
(g58
g59
NtRp5758
(dp5759
g62
(dp5760
g70
I1
ssg71
g5754
sg64
(lp5761
S'/flota/factura/index'
p5762
asbasbasbasbasbasbasbag57
(g73
g59
NtRp5763
(dp5764
g62
(dp5765
sg71
g5381
sg64
(lp5766
g57
(g78
g59
NtRp5767
(dp5768
g62
(dp5769
sg71
g5763
sg64
(lp5770
g57
(g58
g59
NtRp5771
(dp5772
g62
(dp5773
g70
I2
ssg71
g5767
sg64
(lp5774
g57
(g66
g59
NtRp5775
(dp5776
g62
(dp5777
g70
I1
ssg71
Nsg64
(lp5778
g57
(g73
g59
NtRp5779
(dp5780
g62
(dp5781
sg71
g5775
sg64
(lp5782
g57
(g78
g59
NtRp5783
(dp5784
g62
(dp5785
sg71
g5779
sg64
(lp5786
g57
(g58
g59
NtRp5787
(dp5788
g62
(dp5789
g70
I1
ssg71
g5783
sg64
(lp5790
g4522
(S's\x06\x00\x00\x00Cobros'
tRp5791
asbasbasbag57
(g73
g59
NtRp5792
(dp5793
g62
(dp5794
sg71
g5775
sg64
(lp5795
g57
(g78
g59
NtRp5796
(dp5797
g62
(dp5798
sg71
g5792
sg64
(lp5799
g57
(g58
g59
NtRp5800
(dp5801
g62
(dp5802
g70
I1
ssg71
g5796
sg64
(lp5803
I00
asbasbasbag57
(g73
g59
NtRp5804
(dp5805
g62
(dp5806
sg71
g5775
sg64
(lp5807
g57
(g78
g59
NtRp5808
(dp5809
g62
(dp5810
sg71
g5804
sg64
(lp5811
g57
(g58
g59
NtRp5812
(dp5813
g62
(dp5814
g70
I1
ssg71
g5808
sg64
(lp5815
S'/flota/cobro/index'
p5816
asbasbasbasbasbasbasbag57
(g73
g59
NtRp5817
(dp5818
g62
(dp5819
sg71
g5381
sg64
(lp5820
g57
(g78
g59
NtRp5821
(dp5822
g62
(dp5823
sg71
g5817
sg64
(lp5824
g57
(g58
g59
NtRp5825
(dp5826
g62
(dp5827
g70
I2
ssg71
g5821
sg64
(lp5828
g57
(g66
g59
NtRp5829
(dp5830
g62
(dp5831
g70
I1
ssg71
Nsg64
(lp5832
g57
(g73
g59
NtRp5833
(dp5834
g62
(dp5835
sg71
g5829
sg64
(lp5836
g57
(g78
g59
NtRp5837
(dp5838
g62
(dp5839
sg71
g5833
sg64
(lp5840
g57
(g58
g59
NtRp5841
(dp5842
g62
(dp5843
g70
I1
ssg71
g5837
sg64
(lp5844
g4522
(S's\x05\x00\x00\x00Pagos'
tRp5845
asbasbasbag57
(g73
g59
NtRp5846
(dp5847
g62
(dp5848
sg71
g5829
sg64
(lp5849
g57
(g78
g59
NtRp5850
(dp5851
g62
(dp5852
sg71
g5846
sg64
(lp5853
g57
(g58
g59
NtRp5854
(dp5855
g62
(dp5856
g70
I1
ssg71
g5850
sg64
(lp5857
I00
asbasbasbag57
(g73
g59
NtRp5858
(dp5859
g62
(dp5860
sg71
g5829
sg64
(lp5861
g57
(g78
g59
NtRp5862
(dp5863
g62
(dp5864
sg71
g5858
sg64
(lp5865
g57
(g58
g59
NtRp5866
(dp5867
g62
(dp5868
g70
I1
ssg71
g5862
sg64
(lp5869
S'/flota/pago/index'
p5870
asbasbasbasbasbasbasbasbasbasbasbasbasbasbasbag57
(g73
g59
NtRp5871
(dp5872
g62
(dp5873
sg71
g4490
sg64
(lp5874
g57
(g78
g59
NtRp5875
(dp5876
g62
(dp5877
sg71
g5871
sg64
(lp5878
g57
(g58
g59
NtRp5879
(dp5880
g62
(dp5881
g70
I4
ssg71
g5875
sg64
(lp5882
g57
(g66
g59
NtRp5883
(dp5884
g62
(dp5885
g70
I3
ssg71
Nsg64
(lp5886
g57
(g73
g59
NtRp5887
(dp5888
g62
(dp5889
sg71
g5883
sg64
(lp5890
g57
(g78
g59
NtRp5891
(dp5892
g62
(dp5893
sg71
g5887
sg64
(lp5894
g57
(g58
g59
NtRp5895
(dp5896
g62
(dp5897
g70
I3
ssg71
g5891
sg64
(lp5898
g4522
(S's\x08\x00\x00\x00Reportes'
tRp5899
asbasbasbag57
(g73
g59
NtRp5900
(dp5901
g62
(dp5902
sg71
g5883
sg64
(lp5903
g57
(g78
g59
NtRp5904
(dp5905
g62
(dp5906
sg71
g5900
sg64
(lp5907
g57
(g58
g59
NtRp5908
(dp5909
g62
(dp5910
g70
I3
ssg71
g5904
sg64
(lp5911
g100
asbasbasbag57
(g73
g59
NtRp5912
(dp5913
g62
(dp5914
sg71
g5883
sg64
(lp5915
g57
(g78
g59
NtRp5916
(dp5917
g62
(dp5918
sg71
g5912
sg64
(lp5919
g57
(g58
g59
NtRp5920
(dp5921
g62
(dp5922
g70
I3
ssg71
g5916
sg64
(lp5923
S'/flota/reportes/index'
p5924
asbasbasbag57
(g73
g59
NtRp5925
(dp5926
g62
(dp5927
sg71
g5883
sg64
(lp5928
g57
(g78
g59
NtRp5929
(dp5930
g62
(dp5931
sg71
g5925
sg64
(lp5932
g57
(g58
g59
NtRp5933
(dp5934
g62
(dp5935
g70
I3
ssg71
g5929
sg64
(lp5936
g57
(g66
g59
NtRp5937
(dp5938
g62
(dp5939
g70
I2
ssg71
Nsg64
(lp5940
g57
(g73
g59
NtRp5941
(dp5942
g62
(dp5943
sg71
g5937
sg64
(lp5944
g57
(g78
g59
NtRp5945
(dp5946
g62
(dp5947
sg71
g5941
sg64
(lp5948
g57
(g58
g59
NtRp5949
(dp5950
g62
(dp5951
g70
I2
ssg71
g5945
sg64
(lp5952
g57
(g66
g59
NtRp5953
(dp5954
g62
(dp5955
g70
I1
ssg71
Nsg64
(lp5956
g57
(g73
g59
NtRp5957
(dp5958
g62
(dp5959
sg71
g5953
sg64
(lp5960
g57
(g78
g59
NtRp5961
(dp5962
g62
(dp5963
sg71
g5957
sg64
(lp5964
g57
(g58
g59
NtRp5965
(dp5966
g62
(dp5967
g70
I1
ssg71
g5961
sg64
(lp5968
g4522
(S's\r\x00\x00\x00Configuracion'
tRp5969
asbasbasbag57
(g73
g59
NtRp5970
(dp5971
g62
(dp5972
sg71
g5953
sg64
(lp5973
g57
(g78
g59
NtRp5974
(dp5975
g62
(dp5976
sg71
g5970
sg64
(lp5977
g57
(g58
g59
NtRp5978
(dp5979
g62
(dp5980
g70
I1
ssg71
g5974
sg64
(lp5981
I00
asbasbasbag57
(g73
g59
NtRp5982
(dp5983
g62
(dp5984
sg71
g5953
sg64
(lp5985
g57
(g78
g59
NtRp5986
(dp5987
g62
(dp5988
sg71
g5982
sg64
(lp5989
g57
(g58
g59
NtRp5990
(dp5991
g62
(dp5992
g70
I1
ssg71
g5986
sg64
(lp5993
S'/flota/reportes/configs'
p5994
asbasbasbasbasbasbasbag57
(g73
g59
NtRp5995
(dp5996
g62
(dp5997
sg71
g5937
sg64
(lp5998
g57
(g78
g59
NtRp5999
(dp6000
g62
(dp6001
sg71
g5995
sg64
(lp6002
g57
(g58
g59
NtRp6003
(dp6004
g62
(dp6005
g70
I2
ssg71
g5999
sg64
(lp6006
g57
(g66
g59
NtRp6007
(dp6008
g62
(dp6009
g70
I1
ssg71
Nsg64
(lp6010
g57
(g73
g59
NtRp6011
(dp6012
g62
(dp6013
sg71
g6007
sg64
(lp6014
g57
(g78
g59
NtRp6015
(dp6016
g62
(dp6017
sg71
g6011
sg64
(lp6018
g57
(g58
g59
NtRp6019
(dp6020
g62
(dp6021
g70
I1
ssg71
g6015
sg64
(lp6022
g4522
(S's\x08\x00\x00\x00Maestros'
tRp6023
asbasbasbag57
(g73
g59
NtRp6024
(dp6025
g62
(dp6026
sg71
g6007
sg64
(lp6027
g57
(g78
g59
NtRp6028
(dp6029
g62
(dp6030
sg71
g6024
sg64
(lp6031
g57
(g58
g59
NtRp6032
(dp6033
g62
(dp6034
g70
I1
ssg71
g6028
sg64
(lp6035
I00
asbasbasbag57
(g73
g59
NtRp6036
(dp6037
g62
(dp6038
sg71
g6007
sg64
(lp6039
g57
(g78
g59
NtRp6040
(dp6041
g62
(dp6042
sg71
g6036
sg64
(lp6043
g57
(g58
g59
NtRp6044
(dp6045
g62
(dp6046
g70
I1
ssg71
g6040
sg64
(lp6047
S'/flota/reportes/maestros'
p6048
asbasbasbasbasbasbasbag57
(g73
g59
NtRp6049
(dp6050
g62
(dp6051
sg71
g5937
sg64
(lp6052
g57
(g78
g59
NtRp6053
(dp6054
g62
(dp6055
sg71
g6049
sg64
(lp6056
g57
(g58
g59
NtRp6057
(dp6058
g62
(dp6059
g70
I2
ssg71
g6053
sg64
(lp6060
g57
(g66
g59
NtRp6061
(dp6062
g62
(dp6063
g70
I1
ssg71
Nsg64
(lp6064
g57
(g73
g59
NtRp6065
(dp6066
g62
(dp6067
sg71
g6061
sg64
(lp6068
g57
(g78
g59
NtRp6069
(dp6070
g62
(dp6071
sg71
g6065
sg64
(lp6072
g57
(g58
g59
NtRp6073
(dp6074
g62
(dp6075
g70
I1
ssg71
g6069
sg64
(lp6076
g4522
(S's\x0c\x00\x00\x00Presupuestos'
tRp6077
asbasbasbag57
(g73
g59
NtRp6078
(dp6079
g62
(dp6080
sg71
g6061
sg64
(lp6081
g57
(g78
g59
NtRp6082
(dp6083
g62
(dp6084
sg71
g6078
sg64
(lp6085
g57
(g58
g59
NtRp6086
(dp6087
g62
(dp6088
g70
I1
ssg71
g6082
sg64
(lp6089
I00
asbasbasbag57
(g73
g59
NtRp6090
(dp6091
g62
(dp6092
sg71
g6061
sg64
(lp6093
g57
(g78
g59
NtRp6094
(dp6095
g62
(dp6096
sg71
g6090
sg64
(lp6097
g57
(g58
g59
NtRp6098
(dp6099
g62
(dp6100
g70
I1
ssg71
g6094
sg64
(lp6101
S'/flota/cobro2/index'
p6102
asbasbasbag57
(g73
g59
NtRp6103
(dp6104
g62
(dp6105
sg71
g6061
sg64
(lp6106
g57
(g78
g59
NtRp6107
(dp6108
g62
(dp6109
sg71
g6103
sg64
(lp6110
g57
(g58
g59
NtRp6111
(dp6112
g62
(dp6113
g70
I1
ssg71
g6107
sg64
(lp6114
(lp6115
(g4522
(S's\x15\x00\x00\x00Todos los presupestos'
tRp6116
I00
S'/flota/reportes/presupuestos/todos'
tp6117
aasbasbasbasbasbasbasbag57
(g73
g59
NtRp6118
(dp6119
g62
(dp6120
sg71
g5937
sg64
(lp6121
g57
(g78
g59
NtRp6122
(dp6123
g62
(dp6124
sg71
g6118
sg64
(lp6125
g57
(g58
g59
NtRp6126
(dp6127
g62
(dp6128
g70
I2
ssg71
g6122
sg64
(lp6129
g57
(g66
g59
NtRp6130
(dp6131
g62
(dp6132
g70
I1
ssg71
Nsg64
(lp6133
g57
(g73
g59
NtRp6134
(dp6135
g62
(dp6136
sg71
g6130
sg64
(lp6137
g57
(g78
g59
NtRp6138
(dp6139
g62
(dp6140
sg71
g6134
sg64
(lp6141
g57
(g58
g59
NtRp6142
(dp6143
g62
(dp6144
g70
I1
ssg71
g6138
sg64
(lp6145
g4522
(S's\x0b\x00\x00\x00Facturacion'
tRp6146
asbasbasbag57
(g73
g59
NtRp6147
(dp6148
g62
(dp6149
sg71
g6130
sg64
(lp6150
g57
(g78
g59
NtRp6151
(dp6152
g62
(dp6153
sg71
g6147
sg64
(lp6154
g57
(g58
g59
NtRp6155
(dp6156
g62
(dp6157
g70
I1
ssg71
g6151
sg64
(lp6158
I00
asbasbasbag57
(g73
g59
NtRp6159
(dp6160
g62
(dp6161
sg71
g6130
sg64
(lp6162
g57
(g78
g59
NtRp6163
(dp6164
g62
(dp6165
sg71
g6159
sg64
(lp6166
g57
(g58
g59
NtRp6167
(dp6168
g62
(dp6169
g70
I1
ssg71
g6163
sg64
(lp6170
S'/flota/cobro2/index'
p6171
asbasbasbag57
(g73
g59
NtRp6172
(dp6173
g62
(dp6174
sg71
g6130
sg64
(lp6175
g57
(g78
g59
NtRp6176
(dp6177
g62
(dp6178
sg71
g6172
sg64
(lp6179
g57
(g58
g59
NtRp6180
(dp6181
g62
(dp6182
g70
I1
ssg71
g6176
sg64
(lp6183
(lp6184
(g4522
(S's\x12\x00\x00\x00Cuentas por cobrar'
tRp6185
I00
S'/flota/reportes/porcobrar/todos'
tp6186
aasbasbasbasbasbasbasbag57
(g73
g59
NtRp6187
(dp6188
g62
(dp6189
sg71
g5937
sg64
(lp6190
g57
(g78
g59
NtRp6191
(dp6192
g62
(dp6193
sg71
g6187
sg64
(lp6194
g57
(g58
g59
NtRp6195
(dp6196
g62
(dp6197
g70
I2
ssg71
g6191
sg64
(lp6198
g57
(g66
g59
NtRp6199
(dp6200
g62
(dp6201
g70
I1
ssg71
Nsg64
(lp6202
g57
(g73
g59
NtRp6203
(dp6204
g62
(dp6205
sg71
g6199
sg64
(lp6206
g57
(g78
g59
NtRp6207
(dp6208
g62
(dp6209
sg71
g6203
sg64
(lp6210
g57
(g58
g59
NtRp6211
(dp6212
g62
(dp6213
g70
I1
ssg71
g6207
sg64
(lp6214
g4522
(S's\x0b\x00\x00\x00Movimientos'
tRp6215
asbasbasbag57
(g73
g59
NtRp6216
(dp6217
g62
(dp6218
sg71
g6199
sg64
(lp6219
g57
(g78
g59
NtRp6220
(dp6221
g62
(dp6222
sg71
g6216
sg64
(lp6223
g57
(g58
g59
NtRp6224
(dp6225
g62
(dp6226
g70
I1
ssg71
g6220
sg64
(lp6227
I00
asbasbasbag57
(g73
g59
NtRp6228
(dp6229
g62
(dp6230
sg71
g6199
sg64
(lp6231
g57
(g78
g59
NtRp6232
(dp6233
g62
(dp6234
sg71
g6228
sg64
(lp6235
g57
(g58
g59
NtRp6236
(dp6237
g62
(dp6238
g70
I1
ssg71
g6232
sg64
(lp6239
S'/flota/reportes/movitos'
p6240
asbasbasbasbasbasbasbag57
(g73
g59
NtRp6241
(dp6242
g62
(dp6243
sg71
g5937
sg64
(lp6244
g57
(g78
g59
NtRp6245
(dp6246
g62
(dp6247
sg71
g6241
sg64
(lp6248
g57
(g58
g59
NtRp6249
(dp6250
g62
(dp6251
g70
I2
ssg71
g6245
sg64
(lp6252
g57
(g66
g59
NtRp6253
(dp6254
g62
(dp6255
g70
I1
ssg71
Nsg64
(lp6256
g57
(g73
g59
NtRp6257
(dp6258
g62
(dp6259
sg71
g6253
sg64
(lp6260
g57
(g78
g59
NtRp6261
(dp6262
g62
(dp6263
sg71
g6257
sg64
(lp6264
g57
(g58
g59
NtRp6265
(dp6266
g62
(dp6267
g70
I1
ssg71
g6261
sg64
(lp6268
g4522
(S's\x06\x00\x00\x00Gastos'
tRp6269
asbasbasbag57
(g73
g59
NtRp6270
(dp6271
g62
(dp6272
sg71
g6253
sg64
(lp6273
g57
(g78
g59
NtRp6274
(dp6275
g62
(dp6276
sg71
g6270
sg64
(lp6277
g57
(g58
g59
NtRp6278
(dp6279
g62
(dp6280
g70
I1
ssg71
g6274
sg64
(lp6281
I00
asbasbasbag57
(g73
g59
NtRp6282
(dp6283
g62
(dp6284
sg71
g6253
sg64
(lp6285
g57
(g78
g59
NtRp6286
(dp6287
g62
(dp6288
sg71
g6282
sg64
(lp6289
g57
(g58
g59
NtRp6290
(dp6291
g62
(dp6292
g70
I1
ssg71
g6286
sg64
(lp6293
S'/flota/reportes/gastos'
p6294
asbasbasbasbasbasbasbasbasbasbasbasbasbasbasbasbasbasbasbag57
(g73
g59
NtRp6295
(dp6296
g62
(dp6297
sg71
g3898
sg64
(lp6298
g57
(g78
g59
NtRp6299
(dp6300
g62
(dp6301
g82
g83
ssg71
g6295
sg64
(lp6302
S'meta'
p6303
asbag57
(g78
g59
NtRp6304
(dp6305
g62
(dp6306
g89
g90
ssg71
g6295
sg64
(lp6307
S':'
asbag57
(g78
g59
NtRp6308
(dp6309
g62
(dp6310
sg71
g6295
sg64
(lp6311
g57
(g58
g59
NtRp6312
(dp6313
g62
(dp6314
g70
I5
ssg71
g6308
sg64
(lp6315
g57
(g66
g59
NtRp6316
(dp6317
g62
(dp6318
g70
I4
ssg71
Nsg64
(lp6319
g57
(g73
g59
NtRp6320
(dp6321
g62
(dp6322
sg71
g6316
sg64
(lp6323
g57
(g78
g59
NtRp6324
(dp6325
g62
(dp6326
g82
g83
ssg71
g6320
sg64
(lp6327
S'author'
p6328
asbag57
(g78
g59
NtRp6329
(dp6330
g62
(dp6331
g89
g90
ssg71
g6320
sg64
(lp6332
S':'
asbag57
(g78
g59
NtRp6333
(dp6334
g62
(dp6335
sg71
g6320
sg64
(lp6336
g57
(g58
g59
NtRp6337
(dp6338
g62
(dp6339
g70
I4
ssg71
g6333
sg64
(lp6340
S'Wuelfhis Asuaje'
p6341
asbasbasbag57
(g73
g59
NtRp6342
(dp6343
g62
(dp6344
sg71
g6316
sg64
(lp6345
g57
(g78
g59
NtRp6346
(dp6347
g62
(dp6348
g82
g83
ssg71
g6342
sg64
(lp6349
S'copyright'
p6350
asbag57
(g78
g59
NtRp6351
(dp6352
g62
(dp6353
g89
g90
ssg71
g6342
sg64
(lp6354
S':'
asbag57
(g78
g59
NtRp6355
(dp6356
g62
(dp6357
sg71
g6342
sg64
(lp6358
g57
(g58
g59
NtRp6359
(dp6360
g62
(dp6361
g70
I4
ssg71
g6355
sg64
(lp6362
S'Copyright 2007-2012'
p6363
asbasbasbag57
(g73
g59
NtRp6364
(dp6365
g62
(dp6366
sg71
g6316
sg64
(lp6367
g57
(g78
g59
NtRp6368
(dp6369
g62
(dp6370
g82
g83
ssg71
g6364
sg64
(lp6371
S'description'
p6372
asbag57
(g78
g59
NtRp6373
(dp6374
g62
(dp6375
g89
g90
ssg71
g6364
sg64
(lp6376
S':'
asbag57
(g78
g59
NtRp6377
(dp6378
g62
(dp6379
sg71
g6364
sg64
(lp6380
g57
(g58
g59
NtRp6381
(dp6382
g62
(dp6383
g70
I4
ssg71
g6377
sg64
(lp6384
S'Free and open source full-stack enterprise framework for agile development of fast, scalable, secure and portable database-driven web-based applications. Written and programmable in Python'
p6385
asbasbasbag57
(g73
g59
NtRp6386
(dp6387
g62
(dp6388
sg71
g6316
sg64
(lp6389
g57
(g78
g59
NtRp6390
(dp6391
g62
(dp6392
g82
g83
ssg71
g6386
sg64
(lp6393
S'generator'
p6394
asbag57
(g78
g59
NtRp6395
(dp6396
g62
(dp6397
g89
g90
ssg71
g6386
sg64
(lp6398
S':'
asbag57
(g78
g59
NtRp6399
(dp6400
g62
(dp6401
sg71
g6386
sg64
(lp6402
g57
(g58
g59
NtRp6403
(dp6404
g62
(dp6405
g70
I4
ssg71
g6399
sg64
(lp6406
S'Web2py Enterprise Framework'
p6407
asbasbasbag57
(g73
g59
NtRp6408
(dp6409
g62
(dp6410
sg71
g6316
sg64
(lp6411
g57
(g78
g59
NtRp6412
(dp6413
g62
(dp6414
g82
g83
ssg71
g6408
sg64
(lp6415
S'keywords'
p6416
asbag57
(g78
g59
NtRp6417
(dp6418
g62
(dp6419
g89
g90
ssg71
g6408
sg64
(lp6420
S':'
asbag57
(g78
g59
NtRp6421
(dp6422
g62
(dp6423
sg71
g6408
sg64
(lp6424
g57
(g58
g59
NtRp6425
(dp6426
g62
(dp6427
g70
I4
ssg71
g6421
sg64
(lp6428
S'web2py, python, framework'
p6429
asbasbasbasbasbasbasbag57
(g73
g59
NtRp6430
(dp6431
g62
(dp6432
sg71
g3898
sg64
(lp6433
g57
(g78
g59
NtRp6434
(dp6435
g62
(dp6436
g82
g83
ssg71
g6430
sg64
(lp6437
S'models_to_run'
p6438
asbag57
(g78
g59
NtRp6439
(dp6440
g62
(dp6441
g89
g90
ssg71
g6430
sg64
(lp6442
S':'
asbag57
(g78
g59
NtRp6443
(dp6444
g62
(dp6445
sg71
g6430
sg64
(lp6446
g57
(g58
g59
NtRp6447
(dp6448
g62
(dp6449
g70
I5
ssg71
g6443
sg64
(lp6450
g57
(g66
g59
NtRp6451
(dp6452
g62
(dp6453
g70
I4
ssg71
Nsg64
(lp6454
g57
(g73
g59
NtRp6455
(dp6456
g62
(dp6457
sg71
g6451
sg64
(lp6458
g57
(g78
g59
NtRp6459
(dp6460
g62
(dp6461
sg71
g6455
sg64
(lp6462
g57
(g58
g59
NtRp6463
(dp6464
g62
(dp6465
g70
I4
ssg71
g6459
sg64
(lp6466
S'^\\w+\\.py$'
p6467
asbasbasbag57
(g73
g59
NtRp6468
(dp6469
g62
(dp6470
sg71
g6451
sg64
(lp6471
g57
(g78
g59
NtRp6472
(dp6473
g62
(dp6474
sg71
g6468
sg64
(lp6475
g57
(g58
g59
NtRp6476
(dp6477
g62
(dp6478
g70
I4
ssg71
g6472
sg64
(lp6479
S'^cobro2/\\w+\\.py$'
p6480
asbasbasbag57
(g73
g59
NtRp6481
(dp6482
g62
(dp6483
sg71
g6451
sg64
(lp6484
g57
(g78
g59
NtRp6485
(dp6486
g62
(dp6487
sg71
g6481
sg64
(lp6488
g57
(g58
g59
NtRp6489
(dp6490
g62
(dp6491
g70
I4
ssg71
g6485
sg64
(lp6492
S'^cobro2/index/\\w+\\.py$'
p6493
asbasbasbasbasbasbasbag57
(g73
g59
NtRp6494
(dp6495
g62
(dp6496
sg71
g3898
sg64
(lp6497
g57
(g78
g59
NtRp6498
(dp6499
g62
(dp6500
g82
g83
ssg71
g6494
sg64
(lp6501
S'postprocessing'
p6502
asbag57
(g78
g59
NtRp6503
(dp6504
g62
(dp6505
g89
g90
ssg71
g6494
sg64
(lp6506
S':'
asbag57
(g78
g59
NtRp6507
(dp6508
g62
(dp6509
sg71
g6494
sg64
(lp6510
g57
(g58
g59
NtRp6511
(dp6512
g62
(dp6513
g70
I5
ssg71
g6507
sg64
(lp6514
g57
(g66
g59
NtRp6515
(dp6516
g62
(dp6517
g70
I4
ssg71
Nsg64
(lp6518
sbasbasbasbag57
(g73
g59
NtRp6519
(dp6520
g62
(dp6521
sg71
g3898
sg64
(lp6522
g57
(g78
g59
NtRp6523
(dp6524
g62
(dp6525
g82
g83
ssg71
g6519
sg64
(lp6526
S'session_cookie_expires'
p6527
asbag57
(g78
g59
NtRp6528
(dp6529
g62
(dp6530
g89
g90
ssg71
g6519
sg64
(lp6531
S':'
asbag57
(g78
g59
NtRp6532
(dp6533
g62
(dp6534
sg71
g6519
sg64
(lp6535
g57
(g58
g59
NtRp6536
(dp6537
g62
(dp6538
g70
I5
ssg71
g6532
sg64
(lp6539
S'None'
p6540
asbasbasbag57
(g73
g59
NtRp6541
(dp6542
g62
(dp6543
sg71
g3898
sg64
(lp6544
g57
(g78
g59
NtRp6545
(dp6546
g62
(dp6547
g82
g83
ssg71
g6541
sg64
(lp6548
S'session_data_name'
p6549
asbag57
(g78
g59
NtRp6550
(dp6551
g62
(dp6552
g89
g90
ssg71
g6541
sg64
(lp6553
S':'
asbag57
(g78
g59
NtRp6554
(dp6555
g62
(dp6556
sg71
g6541
sg64
(lp6557
g57
(g58
g59
NtRp6558
(dp6559
g62
(dp6560
g70
I5
ssg71
g6554
sg64
(lp6561
S'session_data_flota'
p6562
asbasbasbag57
(g73
g59
NtRp6563
(dp6564
g62
(dp6565
sg71
g3898
sg64
(lp6566
g57
(g78
g59
NtRp6567
(dp6568
g62
(dp6569
g82
g83
ssg71
g6563
sg64
(lp6570
S'session_file'
p6571
asbag57
(g78
g59
NtRp6572
(dp6573
g62
(dp6574
g89
g90
ssg71
g6563
sg64
(lp6575
S':'
asbag57
(g78
g59
NtRp6576
(dp6577
g62
(dp6578
sg71
g6563
sg64
(lp6579
g57
(g58
g59
NtRp6580
(dp6581
g62
(dp6582
g70
I5
ssg71
g6576
sg64
(lp6583
S"<open file '/home/wasuaje/Documentos/desarrollo/web2py5/applications/flota/sessions/127.0.0.1-2318b8f8-1fb4-4280-8d04-88c459a3d745', mode 'rb+' at 0xad8aec28>"
p6584
asbasbasbag57
(g73
g59
NtRp6585
(dp6586
g62
(dp6587
sg71
g3898
sg64
(lp6588
g57
(g78
g59
NtRp6589
(dp6590
g62
(dp6591
g82
g83
ssg71
g6585
sg64
(lp6592
S'session_filename'
p6593
asbag57
(g78
g59
NtRp6594
(dp6595
g62
(dp6596
g89
g90
ssg71
g6585
sg64
(lp6597
S':'
asbag57
(g78
g59
NtRp6598
(dp6599
g62
(dp6600
sg71
g6585
sg64
(lp6601
g57
(g58
g59
NtRp6602
(dp6603
g62
(dp6604
g70
I5
ssg71
g6598
sg64
(lp6605
S'/home/wasuaje/Documentos/desarrollo/web2py5/applications/flota/sessions/127.0.0.1-2318b8f8-1fb4-4280-8d04-88c459a3d745'
p6606
asbasbasbag57
(g73
g59
NtRp6607
(dp6608
g62
(dp6609
sg71
g3898
sg64
(lp6610
g57
(g78
g59
NtRp6611
(dp6612
g62
(dp6613
g82
g83
ssg71
g6607
sg64
(lp6614
S'session_id'
p6615
asbag57
(g78
g59
NtRp6616
(dp6617
g62
(dp6618
g89
g90
ssg71
g6607
sg64
(lp6619
S':'
asbag57
(g78
g59
NtRp6620
(dp6621
g62
(dp6622
sg71
g6607
sg64
(lp6623
g57
(g58
g59
NtRp6624
(dp6625
g62
(dp6626
g70
I5
ssg71
g6620
sg64
(lp6627
g475
asbasbasbag57
(g73
g59
NtRp6628
(dp6629
g62
(dp6630
sg71
g3898
sg64
(lp6631
g57
(g78
g59
NtRp6632
(dp6633
g62
(dp6634
g82
g83
ssg71
g6628
sg64
(lp6635
S'session_id_name'
p6636
asbag57
(g78
g59
NtRp6637
(dp6638
g62
(dp6639
g89
g90
ssg71
g6628
sg64
(lp6640
S':'
asbag57
(g78
g59
NtRp6641
(dp6642
g62
(dp6643
sg71
g6628
sg64
(lp6644
g57
(g58
g59
NtRp6645
(dp6646
g62
(dp6647
g70
I5
ssg71
g6641
sg64
(lp6648
g3955
asbasbasbag57
(g73
g59
NtRp6649
(dp6650
g62
(dp6651
sg71
g3898
sg64
(lp6652
g57
(g78
g59
NtRp6653
(dp6654
g62
(dp6655
g82
g83
ssg71
g6649
sg64
(lp6656
S'session_locked'
p6657
asbag57
(g78
g59
NtRp6658
(dp6659
g62
(dp6660
g89
g90
ssg71
g6649
sg64
(lp6661
S':'
asbag57
(g78
g59
NtRp6662
(dp6663
g62
(dp6664
sg71
g6649
sg64
(lp6665
g57
(g58
g59
NtRp6666
(dp6667
g62
(dp6668
g70
I5
ssg71
g6662
sg64
(lp6669
g1955
asbasbasbag57
(g73
g59
NtRp6670
(dp6671
g62
(dp6672
sg71
g3898
sg64
(lp6673
g57
(g78
g59
NtRp6674
(dp6675
g62
(dp6676
g82
g83
ssg71
g6670
sg64
(lp6677
S'session_new'
p6678
asbag57
(g78
g59
NtRp6679
(dp6680
g62
(dp6681
g89
g90
ssg71
g6670
sg64
(lp6682
S':'
asbag57
(g78
g59
NtRp6683
(dp6684
g62
(dp6685
sg71
g6670
sg64
(lp6686
g57
(g58
g59
NtRp6687
(dp6688
g62
(dp6689
g70
I5
ssg71
g6683
sg64
(lp6690
g100
asbasbasbag57
(g73
g59
NtRp6691
(dp6692
g62
(dp6693
sg71
g3898
sg64
(lp6694
g57
(g78
g59
NtRp6695
(dp6696
g62
(dp6697
g82
g83
ssg71
g6691
sg64
(lp6698
S'session_storage_type'
p6699
asbag57
(g78
g59
NtRp6700
(dp6701
g62
(dp6702
g89
g90
ssg71
g6691
sg64
(lp6703
S':'
asbag57
(g78
g59
NtRp6704
(dp6705
g62
(dp6706
sg71
g6691
sg64
(lp6707
g57
(g58
g59
NtRp6708
(dp6709
g62
(dp6710
g70
I5
ssg71
g6704
sg64
(lp6711
g3386
asbasbasbag57
(g73
g59
NtRp6712
(dp6713
g62
(dp6714
sg71
g3898
sg64
(lp6715
g57
(g78
g59
NtRp6716
(dp6717
g62
(dp6718
g82
g83
ssg71
g6712
sg64
(lp6719
S'status'
p6720
asbag57
(g78
g59
NtRp6721
(dp6722
g62
(dp6723
g89
g90
ssg71
g6712
sg64
(lp6724
S':'
asbag57
(g78
g59
NtRp6725
(dp6726
g62
(dp6727
sg71
g6712
sg64
(lp6728
g57
(g58
g59
NtRp6729
(dp6730
g62
(dp6731
g70
I5
ssg71
g6725
sg64
(lp6732
S'200'
p6733
asbasbasbag57
(g73
g59
NtRp6734
(dp6735
g62
(dp6736
sg71
g3898
sg64
(lp6737
g57
(g78
g59
NtRp6738
(dp6739
g62
(dp6740
g82
g83
ssg71
g6734
sg64
(lp6741
S'subtitle'
p6742
asbag57
(g78
g59
NtRp6743
(dp6744
g62
(dp6745
g89
g90
ssg71
g6734
sg64
(lp6746
S':'
asbag57
(g78
g59
NtRp6747
(dp6748
g62
(dp6749
sg71
g6734
sg64
(lp6750
g57
(g58
g59
NtRp6751
(dp6752
g62
(dp6753
g70
I5
ssg71
g6747
sg64
(lp6754
g4522
(S's\t\x00\x00\x00Adaptame!'
tRp6755
asbasbasbag57
(g73
g59
NtRp6756
(dp6757
g62
(dp6758
sg71
g3898
sg64
(lp6759
g57
(g78
g59
NtRp6760
(dp6761
g62
(dp6762
g82
g83
ssg71
g6756
sg64
(lp6763
S'title'
p6764
asbag57
(g78
g59
NtRp6765
(dp6766
g62
(dp6767
g89
g90
ssg71
g6756
sg64
(lp6768
S':'
asbag57
(g78
g59
NtRp6769
(dp6770
g62
(dp6771
sg71
g6756
sg64
(lp6772
g57
(g58
g59
NtRp6773
(dp6774
g62
(dp6775
g70
I5
ssg71
g6769
sg64
(lp6776
g122
asbasbasbag57
(g73
g59
NtRp6777
(dp6778
g62
(dp6779
sg71
g3898
sg64
(lp6780
g57
(g78
g59
NtRp6781
(dp6782
g62
(dp6783
g82
g83
ssg71
g6777
sg64
(lp6784
S'view'
p6785
asbag57
(g78
g59
NtRp6786
(dp6787
g62
(dp6788
g89
g90
ssg71
g6777
sg64
(lp6789
S':'
asbag57
(g78
g59
NtRp6790
(dp6791
g62
(dp6792
sg71
g6777
sg64
(lp6793
g57
(g58
g59
NtRp6794
(dp6795
g62
(dp6796
g70
I5
ssg71
g6790
sg64
(lp6797
S'cobro2/index.html'
p6798
asbasbasbasbasbsS'locals'
p6799
(dp6800
S'self'
p6801
S'<DAL uri="mysql://******:www4214@localhost/dbflota">'
p6802
sS'key'
p6803
S"'cobro'"
p6804
sssS'traceback'
p6805
S'Traceback (most recent call last):\n  File "/home/wasuaje/Documentos/desarrollo/web2py5/gluon/restricted.py", line 212, in restricted\n    exec ccode in environment\n  File "/home/wasuaje/Documentos/desarrollo/web2py5/applications/flota/views/cobro2/index.html", line 51, in <module>\n  File "/home/wasuaje/Documentos/desarrollo/web2py5/gluon/dal.py", line 7255, in __getattr__\n    return ogetattr(self, key)\nAttributeError: \'DAL\' object has no attribute \'cobro\'\n'
p6806
s.