(dp1
S'output'
p2
S"<type 'exceptions.TypeError'> plugin_jqgrid() got an unexpected keyword argument 'cold_width'"
p3
sS'layer'
p4
S'/home/wasuaje/Documentos/desarrollo/web2py5/applications/flota/views/cobro2/index.html'
p5
sS'code'
p6
S'response.write(\'<!DOCTYPE html PUBLIC "-//W3C//DTD XHTML 1.0 Strict//EN" "http://www.w3.org/TR/xhtml1/DTD/xhtml1-strict.dtd">\\n<!--\\n\\nDesign by Free CSS Templates\\nhttp://www.freecsstemplates.org\\nReleased for free under a Creative Commons Attribution 2.5 License\\n\\nTitle      : Squarely\\nVersion    : 1.0\\nReleased   : 20080519\\nDescription: A two-column, fixed-width and lightweight template ideal for 1024x768 resolutions. Suitable for blogs and small websites.\\n\\n-->\\n<html xmlns="http://www.w3.org/1999/xhtml">\\n <head>\\n  <title>\\n   .:Control de Flota:.\\n  </title>\\n  \', escape=False)\nresponse.files.append(URL(request.application,\'static\',\'plugin_layouts/layouts/Squarely/default.css\'))\nresponse.write(\'\\n  \', escape=False)\nresponse.files.append(URL(\'static\',\'plugin_layouts/superfish.js\'))\nresponse.write(\'\\n  \', escape=False)\nresponse.files.insert(0,URL(\'static\',\'js/jquery.js\'))\nresponse.files.insert(1,URL(\'static\',\'css/calendar.css\'))\nresponse.files.insert(2,URL(\'static\',\'js/calendar.js\'))\nfor _item in response.meta or []:\n    response.write(\'\\n     <meta name="\', escape=False)\n    response.write(_item)\n    response.write(\'" content="\', escape=False)\n    response.write(response.meta[_item])\n    response.write(\'" />\', escape=False)\n    pass\nfor _k,_file in enumerate(response.files or []):\n    if _file in response.files[:_k]:\n        continue\n    _file0=_file.lower().split(\'?\')[0]\n    if _file0.endswith(\'.css\'):\n        response.write(\'\\n     <link href="\', escape=False)\n        response.write(_file)\n        response.write(\'" rel="stylesheet" type="text/css" />\', escape=False)\n    elif _file0.endswith(\'.js\'):\n        response.write(\'\\n     <script src="\', escape=False)\n        response.write(_file)\n        response.write(\'" type="text/javascript"></script>\', escape=False)\n        pass\n    pass\nresponse.write(\'\\n    <script type="text/javascript"><!--\\n    // These variables are used by the web2py_ajax_init function in web2py_ajax.js (which is loaded below).\\n    var w2p_ajax_confirm_message = "\', escape=False)\nresponse.write(T(\'Are you sure you want to delete this object?\'))\nresponse.write(\'";\\n    var w2p_ajax_date_format = "\', escape=False)\nresponse.write(T(\'%Y-%m-%d\'))\nresponse.write(\'";\\n    var w2p_ajax_datetime_format = "\', escape=False)\nresponse.write(T(\'%Y-%m-%d %H:%M:%S\'))\nresponse.write(\'";\\n    //--></script>\\n    <script src="\', escape=False)\nresponse.write(URL(\'static\',\'js/web2py_ajax.js\'))\nresponse.write(\'" type="text/javascript"></script>\\n\', escape=False)\nresponse.write(\'\\n  <style>\\nul.web2py-menu-vertical { width: 150px; position: relative; top:1em; left:1em;  z-index:30; border:0; margin:0; padding: 0; list-style: none; text-decoration: none;}\\nul.web2py-menu-vertical li { margin:0; padding:0; border:0; width: 150px; background: black; text-align:left;}\\nul.web2py-menu-vertical li a { margin:0; padding: 1px 3px 1px 3px; border:0; width: 144px; color: white; font-size:12px;}\\ndiv.flash { position: fixed; float: right; padding: 10px; top: 10px; right: 30px; opacity: 0.75; margin: 10px 10px 10px 10px; text-align: center; clear: both; color: #fff; font-size: 11pt; text-align: center; vertical-align: middle; cursor: pointer; background: black; border: 2px solid #fff; -moz-border-radius: 5px; -webkit-border-radius: 5px; z-index: 2; }\\ndiv.error { background-color: red; color: white; padding: 3px; }\\n.auth_navbar { text-align:right; z-index:20; position: absolute; top: 2px; right:30px; border:0; padding:0 }\\n  </style>\\n </head>\\n <body>\\n  <!-- start header -->\\n  \', escape=False)\ntry:\n    response.write(auth.navbar(action=URL(\'default\',\'user\')))\nexcept:pass\nresponse.write(\'\\n\\n  <div id="wrapper">\\n   <!-- start header -->\\n   <div id="logo">\\n    <h1>\\n     <!--\', escape=False)\nresponse.write(response.title or request.application)\nresponse.write(\'-->\\n\\t FLOTACONTROL\\n    </h1>\\n    <h2>\\n     Sistema de control de flota \\n    </h2>\\n   </div>\\n   <div id="header">\\n    <div id="menu">\\n     \', escape=False)\nresponse.write(MENU(response.menu,_class=\'web2py-menu\'))\nresponse.write(\'\\n    <script>\\n      jQuery(document).ready(function(){jQuery(\\\'ul.web2py-menu\\\').superfish({delay:400});});\\n    </script>\\n    </div>\\n   </div>\\n   <!-- end header -->\\n  </div>\\n  <!-- start page -->\\n  <div id="page">\\n   <!-- start content -->\\n   <div id="content">\\n    <div class="flash">\', escape=False)\nresponse.write(response.flash or \'\')\nresponse.write(\'</div>\\n     \\n\\t \', escape=False)\nresponse.write(\'\\n\\n<h2>Cobros</h2>\\n<hr/>\\n</br>\\n\', escape=False)\nresponse.write(plugin_jqgrid(db.fc_cobro,cold_width=[80,20,80,120]))\nresponse.write(\'\\n\\n\', escape=False)\nif \'grid\' in globals():\n    response.write(\'\\n\', escape=False)\n    response.write(grid)\n    response.write(\'\\n\\n\', escape=False)\nelse:\n    response.write(\'\\n\\n\', escape=False)\n    pass\nresponse.write(\'\\n\', escape=False)\nresponse.write(\'\\n\\t \\n\\t\\n   </div>\\n   <!-- end content -->\\n   <!-- start sidebar -\\n   <div id="sidebar">\\n    <ul>\\n     <li id="search">\\n      <h2>\\n       Search\\n      </h2>\\n      <form method="get" action="">\\n       <fieldset>\\n        <input type="text" id="s" name="s" value="" />\\n        <input type="submit" id="x" value="Search" />\\n       </fieldset>\\n      </form>\\n     </li>\\n     <li>\\n      <h2>\\n       Lorem Ipsum\\n      </h2>\\n      <ul>\\n       <li>\\n        <a href="#">\\n         Fusce dui neque fringilla\\n        </a>\\n       </li>\\n       <li>\\n        <a href="#">\\n         Eget tempor eget nonummy\\n        </a>\\n       </li>\\n       <li>\\n        <a href="#">\\n         Magna lacus bibendum mauris\\n        </a>\\n       </li>\\n       <li>\\n        <a href="#">\\n         Nec metus sed donec\\n        </a>\\n       </li>\\n       <li>\\n        <a href="#">\\n         Magna lacus bibendum mauris\\n        </a>\\n       </li>\\n       <li>\\n        <a href="#">\\n         Velit semper nisi molestie\\n        </a>\\n       </li>\\n       <li>\\n        <a href="#">\\n         Eget tempor eget nonummy\\n        </a>\\n       </li>\\n      </ul>\\n     </li>\\n     <li>\\n      <h2>\\n       Volutpat Dolore\\n      </h2>\\n      <ul>\\n       <li>\\n        <a href="#">\\n         Nec metus sed donec\\n        </a>\\n       </li>\\n       <li>\\n        <a href="#">\\n         Magna lacus bibendum mauris\\n        </a>\\n       </li>\\n       <li>\\n        <a href="#">\\n         Velit semper nisi molestie\\n        </a>\\n       </li>\\n       <li>\\n        <a href="#">\\n         Eget tempor eget nonummy\\n        </a>\\n       </li>\\n       <li>\\n        <a href="#">\\n         Nec metus sed donec\\n        </a>\\n       </li>\\n       <li>\\n        <a href="#">\\n         Magna lacus bibendum mauris\\n        </a>\\n       </li>\\n       <li>\\n        <a href="#">\\n         Velit semper nisi molestie\\n        </a>\\n       </li>\\n      </ul>\\n     </li>\\n    </ul>\\n   </div>\\n    end sidebar -->\\n   <div style="clear: both;">\\n    &nbsp;\\n   </div>\\n  </div>\\n  <!-- end page -->\\n  <!-- start footer -->\\n  <div id="footer">\\n   <p id="legal">\\n    ( c ) 2008. All Rights Reserved.\\n    <a href="http://www.freecsstemplates.org/">\\n     Bestfriends\\n    </a>\\n    designed by\\n    <a href="http://www.freecsstemplates.org/">\\n     Free CSS Templates\\n    </a>\\n    .\\n   </p>\\n  </div>\\n  <!-- end footer -->\\n </body>\\n</html>\\n\', escape=False)'
p7
sS'snapshot'
p8
(dp9
S'exception'
p10
(dp11
S'__hash__'
p12
S"<method-wrapper '__hash__' of exceptions.TypeError object>"
p13
sS'__setattr__'
p14
S"<method-wrapper '__setattr__' of exceptions.TypeError object>"
p15
sS'__reduce_ex__'
p16
S'<built-in method __reduce_ex__ of exceptions.TypeError object>'
p17
sS'__getslice__'
p18
S"<method-wrapper '__getslice__' of exceptions.TypeError object>"
p19
sS'__getitem__'
p20
S"<method-wrapper '__getitem__' of exceptions.TypeError object>"
p21
sS'__setstate__'
p22
S'<built-in method __setstate__ of exceptions.TypeError object>'
p23
sS'__reduce__'
p24
S'<built-in method __reduce__ of exceptions.TypeError object>'
p25
sS'__str__'
p26
S"<method-wrapper '__str__' of exceptions.TypeError object>"
p27
sS'__format__'
p28
S'<built-in method __format__ of exceptions.TypeError object>'
p29
sS'__getattribute__'
p30
S"<method-wrapper '__getattribute__' of exceptions.TypeError object>"
p31
sS'__class__'
p32
S"<type 'exceptions.TypeError'>"
p33
sS'__unicode__'
p34
S'<built-in method __unicode__ of exceptions.TypeError object>'
p35
sS'__delattr__'
p36
S"<method-wrapper '__delattr__' of exceptions.TypeError object>"
p37
sS'__subclasshook__'
p38
S'<built-in method __subclasshook__ of type object>'
p39
sS'__repr__'
p40
S"<method-wrapper '__repr__' of exceptions.TypeError object>"
p41
sS'args'
p42
S'("plugin_jqgrid() got an unexpected keyword argument \'cold_width\'",)'
p43
sS'__dict__'
p44
S'{}'
p45
sS'__sizeof__'
p46
S'<built-in method __sizeof__ of exceptions.TypeError object>'
p47
sS'__doc__'
p48
S"'Inappropriate argument type.'"
p49
sS'__init__'
p50
S"<method-wrapper '__init__' of exceptions.TypeError object>"
p51
sS'__new__'
p52
S'<built-in method __new__ of type object>'
p53
ssS'evalue'
p54
S"plugin_jqgrid() got an unexpected keyword argument 'cold_width'"
p55
sS'request'
p56
ccopy_reg
_reconstructor
p57
(cgluon.html
BEAUTIFY
p58
c__builtin__
object
p59
NtRp60
(dp61
S'attributes'
p62
(dp63
sS'components'
p64
(lp65
g57
(cgluon.html
TABLE
p66
g59
NtRp67
(dp68
g62
(dp69
S'level'
p70
I5
ssS'parent'
p71
Nsg64
(lp72
g57
(cgluon.html
TR
p73
g59
NtRp74
(dp75
g62
(dp76
sg71
g67
sg64
(lp77
g57
(cgluon.html
TD
p78
g59
NtRp79
(dp80
g62
(dp81
S'_style'
p82
S'font-weight:bold;vertical-align:top'
p83
ssg71
g74
sg64
(lp84
S'ajax'
p85
asbag57
(g78
g59
NtRp86
(dp87
g62
(dp88
S'_valign'
p89
S'top'
p90
ssg71
g74
sg64
(lp91
S':'
asbag57
(g78
g59
NtRp92
(dp93
g62
(dp94
sg71
g74
sg64
(lp95
g57
(g58
g59
NtRp96
(dp97
g62
(dp98
g70
I5
ssg71
g92
sg64
(lp99
S'False'
p100
asbasbasbag57
(g73
g59
NtRp101
(dp102
g62
(dp103
sg71
g67
sg64
(lp104
g57
(g78
g59
NtRp105
(dp106
g62
(dp107
g82
g83
ssg71
g101
sg64
(lp108
S'application'
p109
asbag57
(g78
g59
NtRp110
(dp111
g62
(dp112
g89
g90
ssg71
g101
sg64
(lp113
S':'
asbag57
(g78
g59
NtRp114
(dp115
g62
(dp116
sg71
g101
sg64
(lp117
g57
(g58
g59
NtRp118
(dp119
g62
(dp120
g70
I5
ssg71
g114
sg64
(lp121
S'flota'
p122
asbasbasbag57
(g73
g59
NtRp123
(dp124
g62
(dp125
sg71
g67
sg64
(lp126
g57
(g78
g59
NtRp127
(dp128
g62
(dp129
g82
g83
ssg71
g123
sg64
(lp130
g42
asbag57
(g78
g59
NtRp131
(dp132
g62
(dp133
g89
g90
ssg71
g123
sg64
(lp134
S':'
asbag57
(g78
g59
NtRp135
(dp136
g62
(dp137
sg71
g123
sg64
(lp138
g57
(g58
g59
NtRp139
(dp140
g62
(dp141
g70
I5
ssg71
g135
sg64
(lp142
g57
(g66
g59
NtRp143
(dp144
g62
(dp145
g70
I4
ssg71
Nsg64
(lp146
sbasbasbasbag57
(g73
g59
NtRp147
(dp148
g62
(dp149
sg71
g67
sg64
(lp150
g57
(g78
g59
NtRp151
(dp152
g62
(dp153
g82
g83
ssg71
g147
sg64
(lp154
S'body'
p155
asbag57
(g78
g59
NtRp156
(dp157
g62
(dp158
g89
g90
ssg71
g147
sg64
(lp159
S':'
asbag57
(g78
g59
NtRp160
(dp161
g62
(dp162
sg71
g147
sg64
(lp163
g57
(g58
g59
NtRp164
(dp165
g62
(dp166
g70
I5
ssg71
g160
sg64
(lp167
S'<cStringIO.StringO object at 0xabb25260>'
p168
asbasbasbag57
(g73
g59
NtRp169
(dp170
g62
(dp171
sg71
g67
sg64
(lp172
g57
(g78
g59
NtRp173
(dp174
g62
(dp175
g82
g83
ssg71
g169
sg64
(lp176
S'cid'
p177
asbag57
(g78
g59
NtRp178
(dp179
g62
(dp180
g89
g90
ssg71
g169
sg64
(lp181
S':'
asbag57
(g78
g59
NtRp182
(dp183
g62
(dp184
sg71
g169
sg64
(lp185
g57
(g58
g59
NtRp186
(dp187
g62
(dp188
g70
I5
ssg71
g182
sg64
(lp189
S'None'
p190
asbasbasbag57
(g73
g59
NtRp191
(dp192
g62
(dp193
sg71
g67
sg64
(lp194
g57
(g78
g59
NtRp195
(dp196
g62
(dp197
g82
g83
ssg71
g191
sg64
(lp198
S'client'
p199
asbag57
(g78
g59
NtRp200
(dp201
g62
(dp202
g89
g90
ssg71
g191
sg64
(lp203
S':'
asbag57
(g78
g59
NtRp204
(dp205
g62
(dp206
sg71
g191
sg64
(lp207
g57
(g58
g59
NtRp208
(dp209
g62
(dp210
g70
I5
ssg71
g204
sg64
(lp211
S'127.0.0.1'
p212
asbasbasbag57
(g73
g59
NtRp213
(dp214
g62
(dp215
sg71
g67
sg64
(lp216
g57
(g78
g59
NtRp217
(dp218
g62
(dp219
g82
g83
ssg71
g213
sg64
(lp220
S'controller'
p221
asbag57
(g78
g59
NtRp222
(dp223
g62
(dp224
g89
g90
ssg71
g213
sg64
(lp225
S':'
asbag57
(g78
g59
NtRp226
(dp227
g62
(dp228
sg71
g213
sg64
(lp229
g57
(g58
g59
NtRp230
(dp231
g62
(dp232
g70
I5
ssg71
g226
sg64
(lp233
S'cobro2'
p234
asbasbasbag57
(g73
g59
NtRp235
(dp236
g62
(dp237
sg71
g67
sg64
(lp238
g57
(g78
g59
NtRp239
(dp240
g62
(dp241
g82
g83
ssg71
g235
sg64
(lp242
S'cookies'
p243
asbag57
(g78
g59
NtRp244
(dp245
g62
(dp246
g89
g90
ssg71
g235
sg64
(lp247
S':'
asbag57
(g78
g59
NtRp248
(dp249
g62
(dp250
sg71
g235
sg64
(lp251
g57
(g58
g59
NtRp252
(dp253
g62
(dp254
g70
I5
ssg71
g248
sg64
(lp255
g57
(g66
g59
NtRp256
(dp257
g62
(dp258
g70
I4
ssg71
Nsg64
(lp259
g57
(g73
g59
NtRp260
(dp261
g62
(dp262
sg71
g256
sg64
(lp263
g57
(g78
g59
NtRp264
(dp265
g62
(dp266
g82
g83
ssg71
g260
sg64
(lp267
S'session_id_admin'
p268
asbag57
(g78
g59
NtRp269
(dp270
g62
(dp271
g89
g90
ssg71
g260
sg64
(lp272
S':'
asbag57
(g78
g59
NtRp273
(dp274
g62
(dp275
sg71
g260
sg64
(lp276
g57
(g58
g59
NtRp277
(dp278
g62
(dp279
g70
I4
ssg71
g273
sg64
(lp280
S'127.0.0.1-5c1b3d16-6e97-4af3-8fde-d320400f80f4'
p281
ag57
(g66
g59
NtRp282
(dp283
g62
(dp284
g70
I3
ssg71
Nsg64
(lp285
g57
(g73
g59
NtRp286
(dp287
g62
(dp288
sg71
g282
sg64
(lp289
g57
(g78
g59
NtRp290
(dp291
g62
(dp292
g82
g83
ssg71
g286
sg64
(lp293
S'comment'
p294
asbag57
(g78
g59
NtRp295
(dp296
g62
(dp297
g89
g90
ssg71
g286
sg64
(lp298
S':'
asbag57
(g78
g59
NtRp299
(dp300
g62
(dp301
sg71
g286
sg64
(lp302
g57
(g58
g59
NtRp303
(dp304
g62
(dp305
g70
I3
ssg71
g299
sg64
(lp306
S''
asbasbasbag57
(g73
g59
NtRp307
(dp308
g62
(dp309
sg71
g282
sg64
(lp310
g57
(g78
g59
NtRp311
(dp312
g62
(dp313
g82
g83
ssg71
g307
sg64
(lp314
S'domain'
p315
asbag57
(g78
g59
NtRp316
(dp317
g62
(dp318
g89
g90
ssg71
g307
sg64
(lp319
S':'
asbag57
(g78
g59
NtRp320
(dp321
g62
(dp322
sg71
g307
sg64
(lp323
g57
(g58
g59
NtRp324
(dp325
g62
(dp326
g70
I3
ssg71
g320
sg64
(lp327
S''
asbasbasbag57
(g73
g59
NtRp328
(dp329
g62
(dp330
sg71
g282
sg64
(lp331
g57
(g78
g59
NtRp332
(dp333
g62
(dp334
g82
g83
ssg71
g328
sg64
(lp335
S'expires'
p336
asbag57
(g78
g59
NtRp337
(dp338
g62
(dp339
g89
g90
ssg71
g328
sg64
(lp340
S':'
asbag57
(g78
g59
NtRp341
(dp342
g62
(dp343
sg71
g328
sg64
(lp344
g57
(g58
g59
NtRp345
(dp346
g62
(dp347
g70
I3
ssg71
g341
sg64
(lp348
S''
asbasbasbag57
(g73
g59
NtRp349
(dp350
g62
(dp351
sg71
g282
sg64
(lp352
g57
(g78
g59
NtRp353
(dp354
g62
(dp355
g82
g83
ssg71
g349
sg64
(lp356
S'httponly'
p357
asbag57
(g78
g59
NtRp358
(dp359
g62
(dp360
g89
g90
ssg71
g349
sg64
(lp361
S':'
asbag57
(g78
g59
NtRp362
(dp363
g62
(dp364
sg71
g349
sg64
(lp365
g57
(g58
g59
NtRp366
(dp367
g62
(dp368
g70
I3
ssg71
g362
sg64
(lp369
S''
asbasbasbag57
(g73
g59
NtRp370
(dp371
g62
(dp372
sg71
g282
sg64
(lp373
g57
(g78
g59
NtRp374
(dp375
g62
(dp376
g82
g83
ssg71
g370
sg64
(lp377
S'max-age'
p378
asbag57
(g78
g59
NtRp379
(dp380
g62
(dp381
g89
g90
ssg71
g370
sg64
(lp382
S':'
asbag57
(g78
g59
NtRp383
(dp384
g62
(dp385
sg71
g370
sg64
(lp386
g57
(g58
g59
NtRp387
(dp388
g62
(dp389
g70
I3
ssg71
g383
sg64
(lp390
S''
asbasbasbag57
(g73
g59
NtRp391
(dp392
g62
(dp393
sg71
g282
sg64
(lp394
g57
(g78
g59
NtRp395
(dp396
g62
(dp397
g82
g83
ssg71
g391
sg64
(lp398
S'path'
p399
asbag57
(g78
g59
NtRp400
(dp401
g62
(dp402
g89
g90
ssg71
g391
sg64
(lp403
S':'
asbag57
(g78
g59
NtRp404
(dp405
g62
(dp406
sg71
g391
sg64
(lp407
g57
(g58
g59
NtRp408
(dp409
g62
(dp410
g70
I3
ssg71
g404
sg64
(lp411
S''
asbasbasbag57
(g73
g59
NtRp412
(dp413
g62
(dp414
sg71
g282
sg64
(lp415
g57
(g78
g59
NtRp416
(dp417
g62
(dp418
g82
g83
ssg71
g412
sg64
(lp419
S'secure'
p420
asbag57
(g78
g59
NtRp421
(dp422
g62
(dp423
g89
g90
ssg71
g412
sg64
(lp424
S':'
asbag57
(g78
g59
NtRp425
(dp426
g62
(dp427
sg71
g412
sg64
(lp428
g57
(g58
g59
NtRp429
(dp430
g62
(dp431
g70
I3
ssg71
g425
sg64
(lp432
S''
asbasbasbag57
(g73
g59
NtRp433
(dp434
g62
(dp435
sg71
g282
sg64
(lp436
g57
(g78
g59
NtRp437
(dp438
g62
(dp439
g82
g83
ssg71
g433
sg64
(lp440
S'version'
p441
asbag57
(g78
g59
NtRp442
(dp443
g62
(dp444
g89
g90
ssg71
g433
sg64
(lp445
S':'
asbag57
(g78
g59
NtRp446
(dp447
g62
(dp448
sg71
g433
sg64
(lp449
g57
(g58
g59
NtRp450
(dp451
g62
(dp452
g70
I3
ssg71
g446
sg64
(lp453
S''
asbasbasbasbasbasbasbag57
(g73
g59
NtRp454
(dp455
g62
(dp456
sg71
g256
sg64
(lp457
g57
(g78
g59
NtRp458
(dp459
g62
(dp460
g82
g83
ssg71
g454
sg64
(lp461
S'session_id_flota'
p462
asbag57
(g78
g59
NtRp463
(dp464
g62
(dp465
g89
g90
ssg71
g454
sg64
(lp466
S':'
asbag57
(g78
g59
NtRp467
(dp468
g62
(dp469
sg71
g454
sg64
(lp470
g57
(g58
g59
NtRp471
(dp472
g62
(dp473
g70
I4
ssg71
g467
sg64
(lp474
S'127.0.0.1-2318b8f8-1fb4-4280-8d04-88c459a3d745'
p475
ag57
(g66
g59
NtRp476
(dp477
g62
(dp478
g70
I3
ssg71
Nsg64
(lp479
g57
(g73
g59
NtRp480
(dp481
g62
(dp482
sg71
g476
sg64
(lp483
g57
(g78
g59
NtRp484
(dp485
g62
(dp486
g82
g83
ssg71
g480
sg64
(lp487
g294
asbag57
(g78
g59
NtRp488
(dp489
g62
(dp490
g89
g90
ssg71
g480
sg64
(lp491
S':'
asbag57
(g78
g59
NtRp492
(dp493
g62
(dp494
sg71
g480
sg64
(lp495
g57
(g58
g59
NtRp496
(dp497
g62
(dp498
g70
I3
ssg71
g492
sg64
(lp499
S''
asbasbasbag57
(g73
g59
NtRp500
(dp501
g62
(dp502
sg71
g476
sg64
(lp503
g57
(g78
g59
NtRp504
(dp505
g62
(dp506
g82
g83
ssg71
g500
sg64
(lp507
g315
asbag57
(g78
g59
NtRp508
(dp509
g62
(dp510
g89
g90
ssg71
g500
sg64
(lp511
S':'
asbag57
(g78
g59
NtRp512
(dp513
g62
(dp514
sg71
g500
sg64
(lp515
g57
(g58
g59
NtRp516
(dp517
g62
(dp518
g70
I3
ssg71
g512
sg64
(lp519
S''
asbasbasbag57
(g73
g59
NtRp520
(dp521
g62
(dp522
sg71
g476
sg64
(lp523
g57
(g78
g59
NtRp524
(dp525
g62
(dp526
g82
g83
ssg71
g520
sg64
(lp527
g336
asbag57
(g78
g59
NtRp528
(dp529
g62
(dp530
g89
g90
ssg71
g520
sg64
(lp531
S':'
asbag57
(g78
g59
NtRp532
(dp533
g62
(dp534
sg71
g520
sg64
(lp535
g57
(g58
g59
NtRp536
(dp537
g62
(dp538
g70
I3
ssg71
g532
sg64
(lp539
S''
asbasbasbag57
(g73
g59
NtRp540
(dp541
g62
(dp542
sg71
g476
sg64
(lp543
g57
(g78
g59
NtRp544
(dp545
g62
(dp546
g82
g83
ssg71
g540
sg64
(lp547
g357
asbag57
(g78
g59
NtRp548
(dp549
g62
(dp550
g89
g90
ssg71
g540
sg64
(lp551
S':'
asbag57
(g78
g59
NtRp552
(dp553
g62
(dp554
sg71
g540
sg64
(lp555
g57
(g58
g59
NtRp556
(dp557
g62
(dp558
g70
I3
ssg71
g552
sg64
(lp559
S''
asbasbasbag57
(g73
g59
NtRp560
(dp561
g62
(dp562
sg71
g476
sg64
(lp563
g57
(g78
g59
NtRp564
(dp565
g62
(dp566
g82
g83
ssg71
g560
sg64
(lp567
g378
asbag57
(g78
g59
NtRp568
(dp569
g62
(dp570
g89
g90
ssg71
g560
sg64
(lp571
S':'
asbag57
(g78
g59
NtRp572
(dp573
g62
(dp574
sg71
g560
sg64
(lp575
g57
(g58
g59
NtRp576
(dp577
g62
(dp578
g70
I3
ssg71
g572
sg64
(lp579
S''
asbasbasbag57
(g73
g59
NtRp580
(dp581
g62
(dp582
sg71
g476
sg64
(lp583
g57
(g78
g59
NtRp584
(dp585
g62
(dp586
g82
g83
ssg71
g580
sg64
(lp587
g399
asbag57
(g78
g59
NtRp588
(dp589
g62
(dp590
g89
g90
ssg71
g580
sg64
(lp591
S':'
asbag57
(g78
g59
NtRp592
(dp593
g62
(dp594
sg71
g580
sg64
(lp595
g57
(g58
g59
NtRp596
(dp597
g62
(dp598
g70
I3
ssg71
g592
sg64
(lp599
S''
asbasbasbag57
(g73
g59
NtRp600
(dp601
g62
(dp602
sg71
g476
sg64
(lp603
g57
(g78
g59
NtRp604
(dp605
g62
(dp606
g82
g83
ssg71
g600
sg64
(lp607
g420
asbag57
(g78
g59
NtRp608
(dp609
g62
(dp610
g89
g90
ssg71
g600
sg64
(lp611
S':'
asbag57
(g78
g59
NtRp612
(dp613
g62
(dp614
sg71
g600
sg64
(lp615
g57
(g58
g59
NtRp616
(dp617
g62
(dp618
g70
I3
ssg71
g612
sg64
(lp619
S''
asbasbasbag57
(g73
g59
NtRp620
(dp621
g62
(dp622
sg71
g476
sg64
(lp623
g57
(g78
g59
NtRp624
(dp625
g62
(dp626
g82
g83
ssg71
g620
sg64
(lp627
g441
asbag57
(g78
g59
NtRp628
(dp629
g62
(dp630
g89
g90
ssg71
g620
sg64
(lp631
S':'
asbag57
(g78
g59
NtRp632
(dp633
g62
(dp634
sg71
g620
sg64
(lp635
g57
(g58
g59
NtRp636
(dp637
g62
(dp638
g70
I3
ssg71
g632
sg64
(lp639
S''
asbasbasbasbasbasbasbag57
(g73
g59
NtRp640
(dp641
g62
(dp642
sg71
g256
sg64
(lp643
g57
(g78
g59
NtRp644
(dp645
g62
(dp646
g82
g83
ssg71
g640
sg64
(lp647
S'session_id_pyrest'
p648
asbag57
(g78
g59
NtRp649
(dp650
g62
(dp651
g89
g90
ssg71
g640
sg64
(lp652
S':'
asbag57
(g78
g59
NtRp653
(dp654
g62
(dp655
sg71
g640
sg64
(lp656
g57
(g58
g59
NtRp657
(dp658
g62
(dp659
g70
I4
ssg71
g653
sg64
(lp660
S'127.0.0.1-adadd0db-c240-4ea8-9681-bd188b14643c'
p661
ag57
(g66
g59
NtRp662
(dp663
g62
(dp664
g70
I3
ssg71
Nsg64
(lp665
g57
(g73
g59
NtRp666
(dp667
g62
(dp668
sg71
g662
sg64
(lp669
g57
(g78
g59
NtRp670
(dp671
g62
(dp672
g82
g83
ssg71
g666
sg64
(lp673
g294
asbag57
(g78
g59
NtRp674
(dp675
g62
(dp676
g89
g90
ssg71
g666
sg64
(lp677
S':'
asbag57
(g78
g59
NtRp678
(dp679
g62
(dp680
sg71
g666
sg64
(lp681
g57
(g58
g59
NtRp682
(dp683
g62
(dp684
g70
I3
ssg71
g678
sg64
(lp685
S''
asbasbasbag57
(g73
g59
NtRp686
(dp687
g62
(dp688
sg71
g662
sg64
(lp689
g57
(g78
g59
NtRp690
(dp691
g62
(dp692
g82
g83
ssg71
g686
sg64
(lp693
g315
asbag57
(g78
g59
NtRp694
(dp695
g62
(dp696
g89
g90
ssg71
g686
sg64
(lp697
S':'
asbag57
(g78
g59
NtRp698
(dp699
g62
(dp700
sg71
g686
sg64
(lp701
g57
(g58
g59
NtRp702
(dp703
g62
(dp704
g70
I3
ssg71
g698
sg64
(lp705
S''
asbasbasbag57
(g73
g59
NtRp706
(dp707
g62
(dp708
sg71
g662
sg64
(lp709
g57
(g78
g59
NtRp710
(dp711
g62
(dp712
g82
g83
ssg71
g706
sg64
(lp713
g336
asbag57
(g78
g59
NtRp714
(dp715
g62
(dp716
g89
g90
ssg71
g706
sg64
(lp717
S':'
asbag57
(g78
g59
NtRp718
(dp719
g62
(dp720
sg71
g706
sg64
(lp721
g57
(g58
g59
NtRp722
(dp723
g62
(dp724
g70
I3
ssg71
g718
sg64
(lp725
S''
asbasbasbag57
(g73
g59
NtRp726
(dp727
g62
(dp728
sg71
g662
sg64
(lp729
g57
(g78
g59
NtRp730
(dp731
g62
(dp732
g82
g83
ssg71
g726
sg64
(lp733
g357
asbag57
(g78
g59
NtRp734
(dp735
g62
(dp736
g89
g90
ssg71
g726
sg64
(lp737
S':'
asbag57
(g78
g59
NtRp738
(dp739
g62
(dp740
sg71
g726
sg64
(lp741
g57
(g58
g59
NtRp742
(dp743
g62
(dp744
g70
I3
ssg71
g738
sg64
(lp745
S''
asbasbasbag57
(g73
g59
NtRp746
(dp747
g62
(dp748
sg71
g662
sg64
(lp749
g57
(g78
g59
NtRp750
(dp751
g62
(dp752
g82
g83
ssg71
g746
sg64
(lp753
g378
asbag57
(g78
g59
NtRp754
(dp755
g62
(dp756
g89
g90
ssg71
g746
sg64
(lp757
S':'
asbag57
(g78
g59
NtRp758
(dp759
g62
(dp760
sg71
g746
sg64
(lp761
g57
(g58
g59
NtRp762
(dp763
g62
(dp764
g70
I3
ssg71
g758
sg64
(lp765
S''
asbasbasbag57
(g73
g59
NtRp766
(dp767
g62
(dp768
sg71
g662
sg64
(lp769
g57
(g78
g59
NtRp770
(dp771
g62
(dp772
g82
g83
ssg71
g766
sg64
(lp773
g399
asbag57
(g78
g59
NtRp774
(dp775
g62
(dp776
g89
g90
ssg71
g766
sg64
(lp777
S':'
asbag57
(g78
g59
NtRp778
(dp779
g62
(dp780
sg71
g766
sg64
(lp781
g57
(g58
g59
NtRp782
(dp783
g62
(dp784
g70
I3
ssg71
g778
sg64
(lp785
S''
asbasbasbag57
(g73
g59
NtRp786
(dp787
g62
(dp788
sg71
g662
sg64
(lp789
g57
(g78
g59
NtRp790
(dp791
g62
(dp792
g82
g83
ssg71
g786
sg64
(lp793
g420
asbag57
(g78
g59
NtRp794
(dp795
g62
(dp796
g89
g90
ssg71
g786
sg64
(lp797
S':'
asbag57
(g78
g59
NtRp798
(dp799
g62
(dp800
sg71
g786
sg64
(lp801
g57
(g58
g59
NtRp802
(dp803
g62
(dp804
g70
I3
ssg71
g798
sg64
(lp805
S''
asbasbasbag57
(g73
g59
NtRp806
(dp807
g62
(dp808
sg71
g662
sg64
(lp809
g57
(g78
g59
NtRp810
(dp811
g62
(dp812
g82
g83
ssg71
g806
sg64
(lp813
g441
asbag57
(g78
g59
NtRp814
(dp815
g62
(dp816
g89
g90
ssg71
g806
sg64
(lp817
S':'
asbag57
(g78
g59
NtRp818
(dp819
g62
(dp820
sg71
g806
sg64
(lp821
g57
(g58
g59
NtRp822
(dp823
g62
(dp824
g70
I3
ssg71
g818
sg64
(lp825
S''
asbasbasbasbasbasbasbag57
(g73
g59
NtRp826
(dp827
g62
(dp828
sg71
g256
sg64
(lp829
g57
(g78
g59
NtRp830
(dp831
g62
(dp832
g82
g83
ssg71
g826
sg64
(lp833
S'session_id_welcome'
p834
asbag57
(g78
g59
NtRp835
(dp836
g62
(dp837
g89
g90
ssg71
g826
sg64
(lp838
S':'
asbag57
(g78
g59
NtRp839
(dp840
g62
(dp841
sg71
g826
sg64
(lp842
g57
(g58
g59
NtRp843
(dp844
g62
(dp845
g70
I4
ssg71
g839
sg64
(lp846
S'127.0.0.1-bc34c639-e39b-411b-94b9-1487093ce970'
p847
ag57
(g66
g59
NtRp848
(dp849
g62
(dp850
g70
I3
ssg71
Nsg64
(lp851
g57
(g73
g59
NtRp852
(dp853
g62
(dp854
sg71
g848
sg64
(lp855
g57
(g78
g59
NtRp856
(dp857
g62
(dp858
g82
g83
ssg71
g852
sg64
(lp859
g294
asbag57
(g78
g59
NtRp860
(dp861
g62
(dp862
g89
g90
ssg71
g852
sg64
(lp863
S':'
asbag57
(g78
g59
NtRp864
(dp865
g62
(dp866
sg71
g852
sg64
(lp867
g57
(g58
g59
NtRp868
(dp869
g62
(dp870
g70
I3
ssg71
g864
sg64
(lp871
S''
asbasbasbag57
(g73
g59
NtRp872
(dp873
g62
(dp874
sg71
g848
sg64
(lp875
g57
(g78
g59
NtRp876
(dp877
g62
(dp878
g82
g83
ssg71
g872
sg64
(lp879
g315
asbag57
(g78
g59
NtRp880
(dp881
g62
(dp882
g89
g90
ssg71
g872
sg64
(lp883
S':'
asbag57
(g78
g59
NtRp884
(dp885
g62
(dp886
sg71
g872
sg64
(lp887
g57
(g58
g59
NtRp888
(dp889
g62
(dp890
g70
I3
ssg71
g884
sg64
(lp891
S''
asbasbasbag57
(g73
g59
NtRp892
(dp893
g62
(dp894
sg71
g848
sg64
(lp895
g57
(g78
g59
NtRp896
(dp897
g62
(dp898
g82
g83
ssg71
g892
sg64
(lp899
g336
asbag57
(g78
g59
NtRp900
(dp901
g62
(dp902
g89
g90
ssg71
g892
sg64
(lp903
S':'
asbag57
(g78
g59
NtRp904
(dp905
g62
(dp906
sg71
g892
sg64
(lp907
g57
(g58
g59
NtRp908
(dp909
g62
(dp910
g70
I3
ssg71
g904
sg64
(lp911
S''
asbasbasbag57
(g73
g59
NtRp912
(dp913
g62
(dp914
sg71
g848
sg64
(lp915
g57
(g78
g59
NtRp916
(dp917
g62
(dp918
g82
g83
ssg71
g912
sg64
(lp919
g357
asbag57
(g78
g59
NtRp920
(dp921
g62
(dp922
g89
g90
ssg71
g912
sg64
(lp923
S':'
asbag57
(g78
g59
NtRp924
(dp925
g62
(dp926
sg71
g912
sg64
(lp927
g57
(g58
g59
NtRp928
(dp929
g62
(dp930
g70
I3
ssg71
g924
sg64
(lp931
S''
asbasbasbag57
(g73
g59
NtRp932
(dp933
g62
(dp934
sg71
g848
sg64
(lp935
g57
(g78
g59
NtRp936
(dp937
g62
(dp938
g82
g83
ssg71
g932
sg64
(lp939
g378
asbag57
(g78
g59
NtRp940
(dp941
g62
(dp942
g89
g90
ssg71
g932
sg64
(lp943
S':'
asbag57
(g78
g59
NtRp944
(dp945
g62
(dp946
sg71
g932
sg64
(lp947
g57
(g58
g59
NtRp948
(dp949
g62
(dp950
g70
I3
ssg71
g944
sg64
(lp951
S''
asbasbasbag57
(g73
g59
NtRp952
(dp953
g62
(dp954
sg71
g848
sg64
(lp955
g57
(g78
g59
NtRp956
(dp957
g62
(dp958
g82
g83
ssg71
g952
sg64
(lp959
g399
asbag57
(g78
g59
NtRp960
(dp961
g62
(dp962
g89
g90
ssg71
g952
sg64
(lp963
S':'
asbag57
(g78
g59
NtRp964
(dp965
g62
(dp966
sg71
g952
sg64
(lp967
g57
(g58
g59
NtRp968
(dp969
g62
(dp970
g70
I3
ssg71
g964
sg64
(lp971
S''
asbasbasbag57
(g73
g59
NtRp972
(dp973
g62
(dp974
sg71
g848
sg64
(lp975
g57
(g78
g59
NtRp976
(dp977
g62
(dp978
g82
g83
ssg71
g972
sg64
(lp979
g420
asbag57
(g78
g59
NtRp980
(dp981
g62
(dp982
g89
g90
ssg71
g972
sg64
(lp983
S':'
asbag57
(g78
g59
NtRp984
(dp985
g62
(dp986
sg71
g972
sg64
(lp987
g57
(g58
g59
NtRp988
(dp989
g62
(dp990
g70
I3
ssg71
g984
sg64
(lp991
S''
asbasbasbag57
(g73
g59
NtRp992
(dp993
g62
(dp994
sg71
g848
sg64
(lp995
g57
(g78
g59
NtRp996
(dp997
g62
(dp998
g82
g83
ssg71
g992
sg64
(lp999
g441
asbag57
(g78
g59
NtRp1000
(dp1001
g62
(dp1002
g89
g90
ssg71
g992
sg64
(lp1003
S':'
asbag57
(g78
g59
NtRp1004
(dp1005
g62
(dp1006
sg71
g992
sg64
(lp1007
g57
(g58
g59
NtRp1008
(dp1009
g62
(dp1010
g70
I3
ssg71
g1004
sg64
(lp1011
S''
asbasbasbasbasbasbasbasbasbasbasbag57
(g73
g59
NtRp1012
(dp1013
g62
(dp1014
sg71
g67
sg64
(lp1015
g57
(g78
g59
NtRp1016
(dp1017
g62
(dp1018
g82
g83
ssg71
g1012
sg64
(lp1019
S'env'
p1020
asbag57
(g78
g59
NtRp1021
(dp1022
g62
(dp1023
g89
g90
ssg71
g1012
sg64
(lp1024
S':'
asbag57
(g78
g59
NtRp1025
(dp1026
g62
(dp1027
sg71
g1012
sg64
(lp1028
g57
(g58
g59
NtRp1029
(dp1030
g62
(dp1031
g70
I5
ssg71
g1025
sg64
(lp1032
g57
(g66
g59
NtRp1033
(dp1034
g62
(dp1035
g70
I4
ssg71
Nsg64
(lp1036
g57
(g73
g59
NtRp1037
(dp1038
g62
(dp1039
sg71
g1033
sg64
(lp1040
g57
(g78
g59
NtRp1041
(dp1042
g62
(dp1043
g82
g83
ssg71
g1037
sg64
(lp1044
S'app_folders'
p1045
asbag57
(g78
g59
NtRp1046
(dp1047
g62
(dp1048
g89
g90
ssg71
g1037
sg64
(lp1049
S':'
asbag57
(g78
g59
NtRp1050
(dp1051
g62
(dp1052
sg71
g1037
sg64
(lp1053
g57
(g58
g59
NtRp1054
(dp1055
g62
(dp1056
g70
I4
ssg71
g1050
sg64
(lp1057
S"set(['/home/wasuaje/Documentos/desarrollo/web2py5/applications/welcome/', '/home/wasuaje/Documentos/desarrollo/web2py5/applications/flota/', '/home/wasuaje/Documentos/desarrollo/web2py5/applications/admin/'])"
p1058
asbasbasbag57
(g73
g59
NtRp1059
(dp1060
g62
(dp1061
sg71
g1033
sg64
(lp1062
g57
(g78
g59
NtRp1063
(dp1064
g62
(dp1065
g82
g83
ssg71
g1059
sg64
(lp1066
S'applications_parent'
p1067
asbag57
(g78
g59
NtRp1068
(dp1069
g62
(dp1070
g89
g90
ssg71
g1059
sg64
(lp1071
S':'
asbag57
(g78
g59
NtRp1072
(dp1073
g62
(dp1074
sg71
g1059
sg64
(lp1075
g57
(g58
g59
NtRp1076
(dp1077
g62
(dp1078
g70
I4
ssg71
g1072
sg64
(lp1079
S'/home/wasuaje/Documentos/desarrollo/web2py5'
p1080
asbasbasbag57
(g73
g59
NtRp1081
(dp1082
g62
(dp1083
sg71
g1033
sg64
(lp1084
g57
(g78
g59
NtRp1085
(dp1086
g62
(dp1087
g82
g83
ssg71
g1081
sg64
(lp1088
S'cmd_args'
p1089
asbag57
(g78
g59
NtRp1090
(dp1091
g62
(dp1092
g89
g90
ssg71
g1081
sg64
(lp1093
S':'
asbag57
(g78
g59
NtRp1094
(dp1095
g62
(dp1096
sg71
g1081
sg64
(lp1097
g57
(g58
g59
NtRp1098
(dp1099
g62
(dp1100
g70
I4
ssg71
g1094
sg64
(lp1101
g57
(g66
g59
NtRp1102
(dp1103
g62
(dp1104
g70
I3
ssg71
Nsg64
(lp1105
sbasbasbasbag57
(g73
g59
NtRp1106
(dp1107
g62
(dp1108
sg71
g1033
sg64
(lp1109
g57
(g78
g59
NtRp1110
(dp1111
g62
(dp1112
g82
g83
ssg71
g1106
sg64
(lp1113
S'cmd_options'
p1114
asbag57
(g78
g59
NtRp1115
(dp1116
g62
(dp1117
g89
g90
ssg71
g1106
sg64
(lp1118
S':'
asbag57
(g78
g59
NtRp1119
(dp1120
g62
(dp1121
sg71
g1106
sg64
(lp1122
g57
(g58
g59
NtRp1123
(dp1124
g62
(dp1125
g70
I4
ssg71
g1119
sg64
(lp1126
S"<Values at 0xa40c0ec: {'verbose': False, 'ip': '127.0.0.1', 'with_scheduler': False, 'ips': [], 'shutdown_timeout': 5, 'taskbar': False, 'port': 8000, 'maxthreads': None, 'softcron': False, 'server_name': 'wasuaje-desktop', 'bpython': False, 'nogui': False, 'pid_filename': 'httpserver.pid', 'extcron': False, 'runcron': False, 'run_system_tests': False, 'test': None, 'folder': '/home/wasuaje/Documentos/desarrollo/web2py5', 'config': '', 'import_models': False, 'winservice': '', 'shell': None, 'run': '', 'log_filename': 'httpserver.log', 'debuglevel': 30, 'args': [''], 'socket_timeout': 5, 'ssl_ca_certificate': None, 'scheduler': None, 'profiler_filename': None, 'ssl_private_key': '', 'scheduler_groups': None, 'password': '<ask>', 'request_queue_size': 5, 'ssl_certificate': '', 'cronjob': False, 'numthreads': None, 'quiet': False, 'interfaces': None, 'minthreads': None, 'timeout': 10, 'plain': False, 'nobanner': False}>"
p1127
asbasbasbag57
(g73
g59
NtRp1128
(dp1129
g62
(dp1130
sg71
g1033
sg64
(lp1131
g57
(g78
g59
NtRp1132
(dp1133
g62
(dp1134
g82
g83
ssg71
g1128
sg64
(lp1135
S'db_sessions'
p1136
asbag57
(g78
g59
NtRp1137
(dp1138
g62
(dp1139
g89
g90
ssg71
g1128
sg64
(lp1140
S':'
asbag57
(g78
g59
NtRp1141
(dp1142
g62
(dp1143
sg71
g1128
sg64
(lp1144
g57
(g58
g59
NtRp1145
(dp1146
g62
(dp1147
g70
I4
ssg71
g1141
sg64
(lp1148
S'set([])'
p1149
asbasbasbag57
(g73
g59
NtRp1150
(dp1151
g62
(dp1152
sg71
g1033
sg64
(lp1153
g57
(g78
g59
NtRp1154
(dp1155
g62
(dp1156
g82
g83
ssg71
g1150
sg64
(lp1157
S'debugging'
p1158
asbag57
(g78
g59
NtRp1159
(dp1160
g62
(dp1161
g89
g90
ssg71
g1150
sg64
(lp1162
S':'
asbag57
(g78
g59
NtRp1163
(dp1164
g62
(dp1165
sg71
g1150
sg64
(lp1166
g57
(g58
g59
NtRp1167
(dp1168
g62
(dp1169
g70
I4
ssg71
g1163
sg64
(lp1170
g100
asbasbasbag57
(g73
g59
NtRp1171
(dp1172
g62
(dp1173
sg71
g1033
sg64
(lp1174
g57
(g78
g59
NtRp1175
(dp1176
g62
(dp1177
g82
g83
ssg71
g1171
sg64
(lp1178
S'gluon_parent'
p1179
asbag57
(g78
g59
NtRp1180
(dp1181
g62
(dp1182
g89
g90
ssg71
g1171
sg64
(lp1183
S':'
asbag57
(g78
g59
NtRp1184
(dp1185
g62
(dp1186
sg71
g1171
sg64
(lp1187
g57
(g58
g59
NtRp1188
(dp1189
g62
(dp1190
g70
I4
ssg71
g1184
sg64
(lp1191
S'/home/wasuaje/Documentos/desarrollo/web2py5'
p1192
asbasbasbag57
(g73
g59
NtRp1193
(dp1194
g62
(dp1195
sg71
g1033
sg64
(lp1196
g57
(g78
g59
NtRp1197
(dp1198
g62
(dp1199
g82
g83
ssg71
g1193
sg64
(lp1200
S'http_accept'
p1201
asbag57
(g78
g59
NtRp1202
(dp1203
g62
(dp1204
g89
g90
ssg71
g1193
sg64
(lp1205
S':'
asbag57
(g78
g59
NtRp1206
(dp1207
g62
(dp1208
sg71
g1193
sg64
(lp1209
g57
(g58
g59
NtRp1210
(dp1211
g62
(dp1212
g70
I4
ssg71
g1206
sg64
(lp1213
S'text/html,application/xhtml+xml,application/xml;q=0.9,*/*;q=0.8'
p1214
asbasbasbag57
(g73
g59
NtRp1215
(dp1216
g62
(dp1217
sg71
g1033
sg64
(lp1218
g57
(g78
g59
NtRp1219
(dp1220
g62
(dp1221
g82
g83
ssg71
g1215
sg64
(lp1222
S'http_accept_encoding'
p1223
asbag57
(g78
g59
NtRp1224
(dp1225
g62
(dp1226
g89
g90
ssg71
g1215
sg64
(lp1227
S':'
asbag57
(g78
g59
NtRp1228
(dp1229
g62
(dp1230
sg71
g1215
sg64
(lp1231
g57
(g58
g59
NtRp1232
(dp1233
g62
(dp1234
g70
I4
ssg71
g1228
sg64
(lp1235
S'gzip, deflate'
p1236
asbasbasbag57
(g73
g59
NtRp1237
(dp1238
g62
(dp1239
sg71
g1033
sg64
(lp1240
g57
(g78
g59
NtRp1241
(dp1242
g62
(dp1243
g82
g83
ssg71
g1237
sg64
(lp1244
S'http_accept_language'
p1245
asbag57
(g78
g59
NtRp1246
(dp1247
g62
(dp1248
g89
g90
ssg71
g1237
sg64
(lp1249
S':'
asbag57
(g78
g59
NtRp1250
(dp1251
g62
(dp1252
sg71
g1237
sg64
(lp1253
g57
(g58
g59
NtRp1254
(dp1255
g62
(dp1256
g70
I4
ssg71
g1250
sg64
(lp1257
S'es-MX,es-ES;q=0.8,es-AR;q=0.7,es;q=0.5,en-US;q=0.3,en;q=0.2'
p1258
asbasbasbag57
(g73
g59
NtRp1259
(dp1260
g62
(dp1261
sg71
g1033
sg64
(lp1262
g57
(g78
g59
NtRp1263
(dp1264
g62
(dp1265
g82
g83
ssg71
g1259
sg64
(lp1266
S'http_cache_control'
p1267
asbag57
(g78
g59
NtRp1268
(dp1269
g62
(dp1270
g89
g90
ssg71
g1259
sg64
(lp1271
S':'
asbag57
(g78
g59
NtRp1272
(dp1273
g62
(dp1274
sg71
g1259
sg64
(lp1275
g57
(g58
g59
NtRp1276
(dp1277
g62
(dp1278
g70
I4
ssg71
g1272
sg64
(lp1279
S'max-age=0'
p1280
asbasbasbag57
(g73
g59
NtRp1281
(dp1282
g62
(dp1283
sg71
g1033
sg64
(lp1284
g57
(g78
g59
NtRp1285
(dp1286
g62
(dp1287
g82
g83
ssg71
g1281
sg64
(lp1288
S'http_connection'
p1289
asbag57
(g78
g59
NtRp1290
(dp1291
g62
(dp1292
g89
g90
ssg71
g1281
sg64
(lp1293
S':'
asbag57
(g78
g59
NtRp1294
(dp1295
g62
(dp1296
sg71
g1281
sg64
(lp1297
g57
(g58
g59
NtRp1298
(dp1299
g62
(dp1300
g70
I4
ssg71
g1294
sg64
(lp1301
S'keep-alive'
p1302
asbasbasbag57
(g73
g59
NtRp1303
(dp1304
g62
(dp1305
sg71
g1033
sg64
(lp1306
g57
(g78
g59
NtRp1307
(dp1308
g62
(dp1309
g82
g83
ssg71
g1303
sg64
(lp1310
S'http_cookie'
p1311
asbag57
(g78
g59
NtRp1312
(dp1313
g62
(dp1314
g89
g90
ssg71
g1303
sg64
(lp1315
S':'
asbag57
(g78
g59
NtRp1316
(dp1317
g62
(dp1318
sg71
g1303
sg64
(lp1319
g57
(g58
g59
NtRp1320
(dp1321
g62
(dp1322
g70
I4
ssg71
g1316
sg64
(lp1323
S'session_id_welcome=127.0.0.1-bc34c639-e39b-411b-94b9-1487093ce970; session_id_admin=127.0.0.1-5c1b3d16-6e97-4af3-8fde-d320400f80f4; session_id_pyrest=127.0.0.1-adadd0db-c240-4ea8-9681-bd188b14643c; session_id_flota=127.0.0.1-2318b8f8-1fb4-4280-8d04-88c459a3d745'
p1324
asbasbasbag57
(g73
g59
NtRp1325
(dp1326
g62
(dp1327
sg71
g1033
sg64
(lp1328
g57
(g78
g59
NtRp1329
(dp1330
g62
(dp1331
g82
g83
ssg71
g1325
sg64
(lp1332
S'http_host'
p1333
asbag57
(g78
g59
NtRp1334
(dp1335
g62
(dp1336
g89
g90
ssg71
g1325
sg64
(lp1337
S':'
asbag57
(g78
g59
NtRp1338
(dp1339
g62
(dp1340
sg71
g1325
sg64
(lp1341
g57
(g58
g59
NtRp1342
(dp1343
g62
(dp1344
g70
I4
ssg71
g1338
sg64
(lp1345
S'127.0.0.1:8000'
p1346
asbasbasbag57
(g73
g59
NtRp1347
(dp1348
g62
(dp1349
sg71
g1033
sg64
(lp1350
g57
(g78
g59
NtRp1351
(dp1352
g62
(dp1353
g82
g83
ssg71
g1347
sg64
(lp1354
S'http_user_agent'
p1355
asbag57
(g78
g59
NtRp1356
(dp1357
g62
(dp1358
g89
g90
ssg71
g1347
sg64
(lp1359
S':'
asbag57
(g78
g59
NtRp1360
(dp1361
g62
(dp1362
sg71
g1347
sg64
(lp1363
g57
(g58
g59
NtRp1364
(dp1365
g62
(dp1366
g70
I4
ssg71
g1360
sg64
(lp1367
S'Mozilla/5.0 (X11; Ubuntu; Linux i686; rv:18.0) Gecko/20100101 Firefox/18.0'
p1368
asbasbasbag57
(g73
g59
NtRp1369
(dp1370
g62
(dp1371
sg71
g1033
sg64
(lp1372
g57
(g78
g59
NtRp1373
(dp1374
g62
(dp1375
g82
g83
ssg71
g1369
sg64
(lp1376
S'is_jython'
p1377
asbag57
(g78
g59
NtRp1378
(dp1379
g62
(dp1380
g89
g90
ssg71
g1369
sg64
(lp1381
S':'
asbag57
(g78
g59
NtRp1382
(dp1383
g62
(dp1384
sg71
g1369
sg64
(lp1385
g57
(g58
g59
NtRp1386
(dp1387
g62
(dp1388
g70
I4
ssg71
g1382
sg64
(lp1389
g100
asbasbasbag57
(g73
g59
NtRp1390
(dp1391
g62
(dp1392
sg71
g1033
sg64
(lp1393
g57
(g78
g59
NtRp1394
(dp1395
g62
(dp1396
g82
g83
ssg71
g1390
sg64
(lp1397
S'is_pypy'
p1398
asbag57
(g78
g59
NtRp1399
(dp1400
g62
(dp1401
g89
g90
ssg71
g1390
sg64
(lp1402
S':'
asbag57
(g78
g59
NtRp1403
(dp1404
g62
(dp1405
sg71
g1390
sg64
(lp1406
g57
(g58
g59
NtRp1407
(dp1408
g62
(dp1409
g70
I4
ssg71
g1403
sg64
(lp1410
g100
asbasbasbag57
(g73
g59
NtRp1411
(dp1412
g62
(dp1413
sg71
g1033
sg64
(lp1414
g57
(g78
g59
NtRp1415
(dp1416
g62
(dp1417
g82
g83
ssg71
g1411
sg64
(lp1418
S'local_hosts'
p1419
asbag57
(g78
g59
NtRp1420
(dp1421
g62
(dp1422
g89
g90
ssg71
g1411
sg64
(lp1423
S':'
asbag57
(g78
g59
NtRp1424
(dp1425
g62
(dp1426
sg71
g1411
sg64
(lp1427
g57
(g58
g59
NtRp1428
(dp1429
g62
(dp1430
g70
I4
ssg71
g1424
sg64
(lp1431
g57
(g66
g59
NtRp1432
(dp1433
g62
(dp1434
g70
I3
ssg71
Nsg64
(lp1435
g57
(g73
g59
NtRp1436
(dp1437
g62
(dp1438
sg71
g1432
sg64
(lp1439
g57
(g78
g59
NtRp1440
(dp1441
g62
(dp1442
sg71
g1436
sg64
(lp1443
g57
(g58
g59
NtRp1444
(dp1445
g62
(dp1446
g70
I3
ssg71
g1440
sg64
(lp1447
S'127.0.1.1'
p1448
asbasbasbag57
(g73
g59
NtRp1449
(dp1450
g62
(dp1451
sg71
g1432
sg64
(lp1452
g57
(g78
g59
NtRp1453
(dp1454
g62
(dp1455
sg71
g1449
sg64
(lp1456
g57
(g58
g59
NtRp1457
(dp1458
g62
(dp1459
g70
I3
ssg71
g1453
sg64
(lp1460
S'::1'
p1461
asbasbasbag57
(g73
g59
NtRp1462
(dp1463
g62
(dp1464
sg71
g1432
sg64
(lp1465
g57
(g78
g59
NtRp1466
(dp1467
g62
(dp1468
sg71
g1462
sg64
(lp1469
g57
(g58
g59
NtRp1470
(dp1471
g62
(dp1472
g70
I3
ssg71
g1466
sg64
(lp1473
S'wasuaje-desktop'
p1474
asbasbasbag57
(g73
g59
NtRp1475
(dp1476
g62
(dp1477
sg71
g1432
sg64
(lp1478
g57
(g78
g59
NtRp1479
(dp1480
g62
(dp1481
sg71
g1475
sg64
(lp1482
g57
(g58
g59
NtRp1483
(dp1484
g62
(dp1485
g70
I3
ssg71
g1479
sg64
(lp1486
S'::ffff:127.0.0.1'
p1487
asbasbasbag57
(g73
g59
NtRp1488
(dp1489
g62
(dp1490
sg71
g1432
sg64
(lp1491
g57
(g78
g59
NtRp1492
(dp1493
g62
(dp1494
sg71
g1488
sg64
(lp1495
g57
(g58
g59
NtRp1496
(dp1497
g62
(dp1498
g70
I3
ssg71
g1492
sg64
(lp1499
S'127.0.0.1'
p1500
asbasbasbasbasbasbasbag57
(g73
g59
NtRp1501
(dp1502
g62
(dp1503
sg71
g1033
sg64
(lp1504
g57
(g78
g59
NtRp1505
(dp1506
g62
(dp1507
g82
g83
ssg71
g1501
sg64
(lp1508
S'path_info'
p1509
asbag57
(g78
g59
NtRp1510
(dp1511
g62
(dp1512
g89
g90
ssg71
g1501
sg64
(lp1513
S':'
asbag57
(g78
g59
NtRp1514
(dp1515
g62
(dp1516
sg71
g1501
sg64
(lp1517
g57
(g58
g59
NtRp1518
(dp1519
g62
(dp1520
g70
I4
ssg71
g1514
sg64
(lp1521
S'/flota/cobro2/'
p1522
asbasbasbag57
(g73
g59
NtRp1523
(dp1524
g62
(dp1525
sg71
g1033
sg64
(lp1526
g57
(g78
g59
NtRp1527
(dp1528
g62
(dp1529
g82
g83
ssg71
g1523
sg64
(lp1530
S'query_string'
p1531
asbag57
(g78
g59
NtRp1532
(dp1533
g62
(dp1534
g89
g90
ssg71
g1523
sg64
(lp1535
S':'
asbag57
(g78
g59
NtRp1536
(dp1537
g62
(dp1538
sg71
g1523
sg64
(lp1539
g57
(g58
g59
NtRp1540
(dp1541
g62
(dp1542
g70
I4
ssg71
g1536
sg64
(lp1543
S''
asbasbasbag57
(g73
g59
NtRp1544
(dp1545
g62
(dp1546
sg71
g1033
sg64
(lp1547
g57
(g78
g59
NtRp1548
(dp1549
g62
(dp1550
g82
g83
ssg71
g1544
sg64
(lp1551
S'remote_addr'
p1552
asbag57
(g78
g59
NtRp1553
(dp1554
g62
(dp1555
g89
g90
ssg71
g1544
sg64
(lp1556
S':'
asbag57
(g78
g59
NtRp1557
(dp1558
g62
(dp1559
sg71
g1544
sg64
(lp1560
g57
(g58
g59
NtRp1561
(dp1562
g62
(dp1563
g70
I4
ssg71
g1557
sg64
(lp1564
g212
asbasbasbag57
(g73
g59
NtRp1565
(dp1566
g62
(dp1567
sg71
g1033
sg64
(lp1568
g57
(g78
g59
NtRp1569
(dp1570
g62
(dp1571
g82
g83
ssg71
g1565
sg64
(lp1572
S'remote_port'
p1573
asbag57
(g78
g59
NtRp1574
(dp1575
g62
(dp1576
g89
g90
ssg71
g1565
sg64
(lp1577
S':'
asbag57
(g78
g59
NtRp1578
(dp1579
g62
(dp1580
sg71
g1565
sg64
(lp1581
g57
(g58
g59
NtRp1582
(dp1583
g62
(dp1584
g70
I4
ssg71
g1578
sg64
(lp1585
S'34858'
p1586
asbasbasbag57
(g73
g59
NtRp1587
(dp1588
g62
(dp1589
sg71
g1033
sg64
(lp1590
g57
(g78
g59
NtRp1591
(dp1592
g62
(dp1593
g82
g83
ssg71
g1587
sg64
(lp1594
S'request_method'
p1595
asbag57
(g78
g59
NtRp1596
(dp1597
g62
(dp1598
g89
g90
ssg71
g1587
sg64
(lp1599
S':'
asbag57
(g78
g59
NtRp1600
(dp1601
g62
(dp1602
sg71
g1587
sg64
(lp1603
g57
(g58
g59
NtRp1604
(dp1605
g62
(dp1606
g70
I4
ssg71
g1600
sg64
(lp1607
S'GET'
p1608
asbasbasbag57
(g73
g59
NtRp1609
(dp1610
g62
(dp1611
sg71
g1033
sg64
(lp1612
g57
(g78
g59
NtRp1613
(dp1614
g62
(dp1615
g82
g83
ssg71
g1609
sg64
(lp1616
S'request_uri'
p1617
asbag57
(g78
g59
NtRp1618
(dp1619
g62
(dp1620
g89
g90
ssg71
g1609
sg64
(lp1621
S':'
asbag57
(g78
g59
NtRp1622
(dp1623
g62
(dp1624
sg71
g1609
sg64
(lp1625
g57
(g58
g59
NtRp1626
(dp1627
g62
(dp1628
g70
I4
ssg71
g1622
sg64
(lp1629
g1522
asbasbasbag57
(g73
g59
NtRp1630
(dp1631
g62
(dp1632
sg71
g1033
sg64
(lp1633
g57
(g78
g59
NtRp1634
(dp1635
g62
(dp1636
g82
g83
ssg71
g1630
sg64
(lp1637
S'script_name'
p1638
asbag57
(g78
g59
NtRp1639
(dp1640
g62
(dp1641
g89
g90
ssg71
g1630
sg64
(lp1642
S':'
asbag57
(g78
g59
NtRp1643
(dp1644
g62
(dp1645
sg71
g1630
sg64
(lp1646
g57
(g58
g59
NtRp1647
(dp1648
g62
(dp1649
g70
I4
ssg71
g1643
sg64
(lp1650
S''
asbasbasbag57
(g73
g59
NtRp1651
(dp1652
g62
(dp1653
sg71
g1033
sg64
(lp1654
g57
(g78
g59
NtRp1655
(dp1656
g62
(dp1657
g82
g83
ssg71
g1651
sg64
(lp1658
S'server_name'
p1659
asbag57
(g78
g59
NtRp1660
(dp1661
g62
(dp1662
g89
g90
ssg71
g1651
sg64
(lp1663
S':'
asbag57
(g78
g59
NtRp1664
(dp1665
g62
(dp1666
sg71
g1651
sg64
(lp1667
g57
(g58
g59
NtRp1668
(dp1669
g62
(dp1670
g70
I4
ssg71
g1664
sg64
(lp1671
S'wasuaje-desktop'
p1672
asbasbasbag57
(g73
g59
NtRp1673
(dp1674
g62
(dp1675
sg71
g1033
sg64
(lp1676
g57
(g78
g59
NtRp1677
(dp1678
g62
(dp1679
g82
g83
ssg71
g1673
sg64
(lp1680
S'server_port'
p1681
asbag57
(g78
g59
NtRp1682
(dp1683
g62
(dp1684
g89
g90
ssg71
g1673
sg64
(lp1685
S':'
asbag57
(g78
g59
NtRp1686
(dp1687
g62
(dp1688
sg71
g1673
sg64
(lp1689
g57
(g58
g59
NtRp1690
(dp1691
g62
(dp1692
g70
I4
ssg71
g1686
sg64
(lp1693
S'8000'
p1694
asbasbasbag57
(g73
g59
NtRp1695
(dp1696
g62
(dp1697
sg71
g1033
sg64
(lp1698
g57
(g78
g59
NtRp1699
(dp1700
g62
(dp1701
g82
g83
ssg71
g1695
sg64
(lp1702
S'server_protocol'
p1703
asbag57
(g78
g59
NtRp1704
(dp1705
g62
(dp1706
g89
g90
ssg71
g1695
sg64
(lp1707
S':'
asbag57
(g78
g59
NtRp1708
(dp1709
g62
(dp1710
sg71
g1695
sg64
(lp1711
g57
(g58
g59
NtRp1712
(dp1713
g62
(dp1714
g70
I4
ssg71
g1708
sg64
(lp1715
S'HTTP/1.1'
p1716
asbasbasbag57
(g73
g59
NtRp1717
(dp1718
g62
(dp1719
sg71
g1033
sg64
(lp1720
g57
(g78
g59
NtRp1721
(dp1722
g62
(dp1723
g82
g83
ssg71
g1717
sg64
(lp1724
S'server_software'
p1725
asbag57
(g78
g59
NtRp1726
(dp1727
g62
(dp1728
g89
g90
ssg71
g1717
sg64
(lp1729
S':'
asbag57
(g78
g59
NtRp1730
(dp1731
g62
(dp1732
sg71
g1717
sg64
(lp1733
g57
(g58
g59
NtRp1734
(dp1735
g62
(dp1736
g70
I4
ssg71
g1730
sg64
(lp1737
S'Rocket 1.2.6'
p1738
asbasbasbag57
(g73
g59
NtRp1739
(dp1740
g62
(dp1741
sg71
g1033
sg64
(lp1742
g57
(g78
g59
NtRp1743
(dp1744
g62
(dp1745
g82
g83
ssg71
g1739
sg64
(lp1746
S'web2py_path'
p1747
asbag57
(g78
g59
NtRp1748
(dp1749
g62
(dp1750
g89
g90
ssg71
g1739
sg64
(lp1751
S':'
asbag57
(g78
g59
NtRp1752
(dp1753
g62
(dp1754
sg71
g1739
sg64
(lp1755
g57
(g58
g59
NtRp1756
(dp1757
g62
(dp1758
g70
I4
ssg71
g1752
sg64
(lp1759
g1080
asbasbasbag57
(g73
g59
NtRp1760
(dp1761
g62
(dp1762
sg71
g1033
sg64
(lp1763
g57
(g78
g59
NtRp1764
(dp1765
g62
(dp1766
g82
g83
ssg71
g1760
sg64
(lp1767
S'web2py_version'
p1768
asbag57
(g78
g59
NtRp1769
(dp1770
g62
(dp1771
g89
g90
ssg71
g1760
sg64
(lp1772
S':'
asbag57
(g78
g59
NtRp1773
(dp1774
g62
(dp1775
sg71
g1760
sg64
(lp1776
g57
(g58
g59
NtRp1777
(dp1778
g62
(dp1779
g70
I4
ssg71
g1773
sg64
(lp1780
g57
(g66
g59
NtRp1781
(dp1782
g62
(dp1783
g70
I3
ssg71
Nsg64
(lp1784
g57
(g73
g59
NtRp1785
(dp1786
g62
(dp1787
sg71
g1781
sg64
(lp1788
g57
(g78
g59
NtRp1789
(dp1790
g62
(dp1791
sg71
g1785
sg64
(lp1792
g57
(g58
g59
NtRp1793
(dp1794
g62
(dp1795
g70
I3
ssg71
g1789
sg64
(lp1796
S'2'
asbasbasbag57
(g73
g59
NtRp1797
(dp1798
g62
(dp1799
sg71
g1781
sg64
(lp1800
g57
(g78
g59
NtRp1801
(dp1802
g62
(dp1803
sg71
g1797
sg64
(lp1804
g57
(g58
g59
NtRp1805
(dp1806
g62
(dp1807
g70
I3
ssg71
g1801
sg64
(lp1808
S'3'
asbasbasbag57
(g73
g59
NtRp1809
(dp1810
g62
(dp1811
sg71
g1781
sg64
(lp1812
g57
(g78
g59
NtRp1813
(dp1814
g62
(dp1815
sg71
g1809
sg64
(lp1816
g57
(g58
g59
NtRp1817
(dp1818
g62
(dp1819
g70
I3
ssg71
g1813
sg64
(lp1820
S'2'
asbasbasbag57
(g73
g59
NtRp1821
(dp1822
g62
(dp1823
sg71
g1781
sg64
(lp1824
g57
(g78
g59
NtRp1825
(dp1826
g62
(dp1827
sg71
g1821
sg64
(lp1828
g57
(g58
g59
NtRp1829
(dp1830
g62
(dp1831
g70
I3
ssg71
g1825
sg64
(lp1832
S'datetime.datetime(2012, 12, 17, 15, 3, 30)'
p1833
asbasbasbag57
(g73
g59
NtRp1834
(dp1835
g62
(dp1836
sg71
g1781
sg64
(lp1837
g57
(g78
g59
NtRp1838
(dp1839
g62
(dp1840
sg71
g1834
sg64
(lp1841
g57
(g58
g59
NtRp1842
(dp1843
g62
(dp1844
g70
I3
ssg71
g1838
sg64
(lp1845
S'stable'
p1846
asbasbasbasbasbasbasbag57
(g73
g59
NtRp1847
(dp1848
g62
(dp1849
sg71
g1033
sg64
(lp1850
g57
(g78
g59
NtRp1851
(dp1852
g62
(dp1853
g82
g83
ssg71
g1847
sg64
(lp1854
S'wsgi_errors'
p1855
asbag57
(g78
g59
NtRp1856
(dp1857
g62
(dp1858
g89
g90
ssg71
g1847
sg64
(lp1859
S':'
asbag57
(g78
g59
NtRp1860
(dp1861
g62
(dp1862
sg71
g1847
sg64
(lp1863
g57
(g58
g59
NtRp1864
(dp1865
g62
(dp1866
g70
I4
ssg71
g1860
sg64
(lp1867
S"<open file '<stderr>', mode 'w' at 0xb754b0d0>"
p1868
asbasbasbag57
(g73
g59
NtRp1869
(dp1870
g62
(dp1871
sg71
g1033
sg64
(lp1872
g57
(g78
g59
NtRp1873
(dp1874
g62
(dp1875
g82
g83
ssg71
g1869
sg64
(lp1876
S'wsgi_file_wrapper'
p1877
asbag57
(g78
g59
NtRp1878
(dp1879
g62
(dp1880
g89
g90
ssg71
g1869
sg64
(lp1881
S':'
asbag57
(g78
g59
NtRp1882
(dp1883
g62
(dp1884
sg71
g1869
sg64
(lp1885
g57
(g58
g59
NtRp1886
(dp1887
g62
(dp1888
g70
I4
ssg71
g1882
sg64
(lp1889
S'<class wsgiref.util.FileWrapper at 0xa3c42fc>'
p1890
asbasbasbag57
(g73
g59
NtRp1891
(dp1892
g62
(dp1893
sg71
g1033
sg64
(lp1894
g57
(g78
g59
NtRp1895
(dp1896
g62
(dp1897
g82
g83
ssg71
g1891
sg64
(lp1898
S'wsgi_input'
p1899
asbag57
(g78
g59
NtRp1900
(dp1901
g62
(dp1902
g89
g90
ssg71
g1891
sg64
(lp1903
S':'
asbag57
(g78
g59
NtRp1904
(dp1905
g62
(dp1906
sg71
g1891
sg64
(lp1907
g57
(g58
g59
NtRp1908
(dp1909
g62
(dp1910
g70
I4
ssg71
g1904
sg64
(lp1911
S'<socket._fileobject object at 0xac5926ac>'
p1912
asbasbasbag57
(g73
g59
NtRp1913
(dp1914
g62
(dp1915
sg71
g1033
sg64
(lp1916
g57
(g78
g59
NtRp1917
(dp1918
g62
(dp1919
g82
g83
ssg71
g1913
sg64
(lp1920
S'wsgi_multiprocess'
p1921
asbag57
(g78
g59
NtRp1922
(dp1923
g62
(dp1924
g89
g90
ssg71
g1913
sg64
(lp1925
S':'
asbag57
(g78
g59
NtRp1926
(dp1927
g62
(dp1928
sg71
g1913
sg64
(lp1929
g57
(g58
g59
NtRp1930
(dp1931
g62
(dp1932
g70
I4
ssg71
g1926
sg64
(lp1933
g100
asbasbasbag57
(g73
g59
NtRp1934
(dp1935
g62
(dp1936
sg71
g1033
sg64
(lp1937
g57
(g78
g59
NtRp1938
(dp1939
g62
(dp1940
g82
g83
ssg71
g1934
sg64
(lp1941
S'wsgi_multithread'
p1942
asbag57
(g78
g59
NtRp1943
(dp1944
g62
(dp1945
g89
g90
ssg71
g1934
sg64
(lp1946
S':'
asbag57
(g78
g59
NtRp1947
(dp1948
g62
(dp1949
sg71
g1934
sg64
(lp1950
g57
(g58
g59
NtRp1951
(dp1952
g62
(dp1953
g70
I4
ssg71
g1947
sg64
(lp1954
S'True'
p1955
asbasbasbag57
(g73
g59
NtRp1956
(dp1957
g62
(dp1958
sg71
g1033
sg64
(lp1959
g57
(g78
g59
NtRp1960
(dp1961
g62
(dp1962
g82
g83
ssg71
g1956
sg64
(lp1963
S'wsgi_run_once'
p1964
asbag57
(g78
g59
NtRp1965
(dp1966
g62
(dp1967
g89
g90
ssg71
g1956
sg64
(lp1968
S':'
asbag57
(g78
g59
NtRp1969
(dp1970
g62
(dp1971
sg71
g1956
sg64
(lp1972
g57
(g58
g59
NtRp1973
(dp1974
g62
(dp1975
g70
I4
ssg71
g1969
sg64
(lp1976
g100
asbasbasbag57
(g73
g59
NtRp1977
(dp1978
g62
(dp1979
sg71
g1033
sg64
(lp1980
g57
(g78
g59
NtRp1981
(dp1982
g62
(dp1983
g82
g83
ssg71
g1977
sg64
(lp1984
S'wsgi_url_scheme'
p1985
asbag57
(g78
g59
NtRp1986
(dp1987
g62
(dp1988
g89
g90
ssg71
g1977
sg64
(lp1989
S':'
asbag57
(g78
g59
NtRp1990
(dp1991
g62
(dp1992
sg71
g1977
sg64
(lp1993
g57
(g58
g59
NtRp1994
(dp1995
g62
(dp1996
g70
I4
ssg71
g1990
sg64
(lp1997
S'http'
p1998
asbasbasbag57
(g73
g59
NtRp1999
(dp2000
g62
(dp2001
sg71
g1033
sg64
(lp2002
g57
(g78
g59
NtRp2003
(dp2004
g62
(dp2005
g82
g83
ssg71
g1999
sg64
(lp2006
S'wsgi_version'
p2007
asbag57
(g78
g59
NtRp2008
(dp2009
g62
(dp2010
g89
g90
ssg71
g1999
sg64
(lp2011
S':'
asbag57
(g78
g59
NtRp2012
(dp2013
g62
(dp2014
sg71
g1999
sg64
(lp2015
g57
(g58
g59
NtRp2016
(dp2017
g62
(dp2018
g70
I4
ssg71
g2012
sg64
(lp2019
g57
(g66
g59
NtRp2020
(dp2021
g62
(dp2022
g70
I3
ssg71
Nsg64
(lp2023
g57
(g73
g59
NtRp2024
(dp2025
g62
(dp2026
sg71
g2020
sg64
(lp2027
g57
(g78
g59
NtRp2028
(dp2029
g62
(dp2030
sg71
g2024
sg64
(lp2031
g57
(g58
g59
NtRp2032
(dp2033
g62
(dp2034
g70
I3
ssg71
g2028
sg64
(lp2035
S'1'
asbasbasbag57
(g73
g59
NtRp2036
(dp2037
g62
(dp2038
sg71
g2020
sg64
(lp2039
g57
(g78
g59
NtRp2040
(dp2041
g62
(dp2042
sg71
g2036
sg64
(lp2043
g57
(g58
g59
NtRp2044
(dp2045
g62
(dp2046
g70
I3
ssg71
g2040
sg64
(lp2047
S'0'
asbasbasbasbasbasbasbasbasbasbasbag57
(g73
g59
NtRp2048
(dp2049
g62
(dp2050
sg71
g67
sg64
(lp2051
g57
(g78
g59
NtRp2052
(dp2053
g62
(dp2054
g82
g83
ssg71
g2048
sg64
(lp2055
S'extension'
p2056
asbag57
(g78
g59
NtRp2057
(dp2058
g62
(dp2059
g89
g90
ssg71
g2048
sg64
(lp2060
S':'
asbag57
(g78
g59
NtRp2061
(dp2062
g62
(dp2063
sg71
g2048
sg64
(lp2064
g57
(g58
g59
NtRp2065
(dp2066
g62
(dp2067
g70
I5
ssg71
g2061
sg64
(lp2068
S'html'
p2069
asbasbasbag57
(g73
g59
NtRp2070
(dp2071
g62
(dp2072
sg71
g67
sg64
(lp2073
g57
(g78
g59
NtRp2074
(dp2075
g62
(dp2076
g82
g83
ssg71
g2070
sg64
(lp2077
S'folder'
p2078
asbag57
(g78
g59
NtRp2079
(dp2080
g62
(dp2081
g89
g90
ssg71
g2070
sg64
(lp2082
S':'
asbag57
(g78
g59
NtRp2083
(dp2084
g62
(dp2085
sg71
g2070
sg64
(lp2086
g57
(g58
g59
NtRp2087
(dp2088
g62
(dp2089
g70
I5
ssg71
g2083
sg64
(lp2090
S'/home/wasuaje/Documentos/desarrollo/web2py5/applications/flota/'
p2091
asbasbasbag57
(g73
g59
NtRp2092
(dp2093
g62
(dp2094
sg71
g67
sg64
(lp2095
g57
(g78
g59
NtRp2096
(dp2097
g62
(dp2098
g82
g83
ssg71
g2092
sg64
(lp2099
S'function'
p2100
asbag57
(g78
g59
NtRp2101
(dp2102
g62
(dp2103
g89
g90
ssg71
g2092
sg64
(lp2104
S':'
asbag57
(g78
g59
NtRp2105
(dp2106
g62
(dp2107
sg71
g2092
sg64
(lp2108
g57
(g58
g59
NtRp2109
(dp2110
g62
(dp2111
g70
I5
ssg71
g2105
sg64
(lp2112
S'index'
p2113
asbasbasbag57
(g73
g59
NtRp2114
(dp2115
g62
(dp2116
sg71
g67
sg64
(lp2117
g57
(g78
g59
NtRp2118
(dp2119
g62
(dp2120
g82
g83
ssg71
g2114
sg64
(lp2121
S'get_vars'
p2122
asbag57
(g78
g59
NtRp2123
(dp2124
g62
(dp2125
g89
g90
ssg71
g2114
sg64
(lp2126
S':'
asbag57
(g78
g59
NtRp2127
(dp2128
g62
(dp2129
sg71
g2114
sg64
(lp2130
g57
(g58
g59
NtRp2131
(dp2132
g62
(dp2133
g70
I5
ssg71
g2127
sg64
(lp2134
g57
(g66
g59
NtRp2135
(dp2136
g62
(dp2137
g70
I4
ssg71
Nsg64
(lp2138
sbasbasbasbag57
(g73
g59
NtRp2139
(dp2140
g62
(dp2141
sg71
g67
sg64
(lp2142
g57
(g78
g59
NtRp2143
(dp2144
g62
(dp2145
g82
g83
ssg71
g2139
sg64
(lp2146
S'global_settings'
p2147
asbag57
(g78
g59
NtRp2148
(dp2149
g62
(dp2150
g89
g90
ssg71
g2139
sg64
(lp2151
S':'
asbag57
(g78
g59
NtRp2152
(dp2153
g62
(dp2154
sg71
g2139
sg64
(lp2155
g57
(g58
g59
NtRp2156
(dp2157
g62
(dp2158
g70
I5
ssg71
g2152
sg64
(lp2159
g57
(g66
g59
NtRp2160
(dp2161
g62
(dp2162
g70
I4
ssg71
Nsg64
(lp2163
g57
(g73
g59
NtRp2164
(dp2165
g62
(dp2166
sg71
g2160
sg64
(lp2167
g57
(g78
g59
NtRp2168
(dp2169
g62
(dp2170
g82
g83
ssg71
g2164
sg64
(lp2171
g1045
asbag57
(g78
g59
NtRp2172
(dp2173
g62
(dp2174
g89
g90
ssg71
g2164
sg64
(lp2175
S':'
asbag57
(g78
g59
NtRp2176
(dp2177
g62
(dp2178
sg71
g2164
sg64
(lp2179
g57
(g58
g59
NtRp2180
(dp2181
g62
(dp2182
g70
I4
ssg71
g2176
sg64
(lp2183
S"set(['/home/wasuaje/Documentos/desarrollo/web2py5/applications/welcome/', '/home/wasuaje/Documentos/desarrollo/web2py5/applications/flota/', '/home/wasuaje/Documentos/desarrollo/web2py5/applications/admin/'])"
p2184
asbasbasbag57
(g73
g59
NtRp2185
(dp2186
g62
(dp2187
sg71
g2160
sg64
(lp2188
g57
(g78
g59
NtRp2189
(dp2190
g62
(dp2191
g82
g83
ssg71
g2185
sg64
(lp2192
g1067
asbag57
(g78
g59
NtRp2193
(dp2194
g62
(dp2195
g89
g90
ssg71
g2185
sg64
(lp2196
S':'
asbag57
(g78
g59
NtRp2197
(dp2198
g62
(dp2199
sg71
g2185
sg64
(lp2200
g57
(g58
g59
NtRp2201
(dp2202
g62
(dp2203
g70
I4
ssg71
g2197
sg64
(lp2204
g1080
asbasbasbag57
(g73
g59
NtRp2205
(dp2206
g62
(dp2207
sg71
g2160
sg64
(lp2208
g57
(g78
g59
NtRp2209
(dp2210
g62
(dp2211
g82
g83
ssg71
g2205
sg64
(lp2212
g1089
asbag57
(g78
g59
NtRp2213
(dp2214
g62
(dp2215
g89
g90
ssg71
g2205
sg64
(lp2216
S':'
asbag57
(g78
g59
NtRp2217
(dp2218
g62
(dp2219
sg71
g2205
sg64
(lp2220
g57
(g58
g59
NtRp2221
(dp2222
g62
(dp2223
g70
I4
ssg71
g2217
sg64
(lp2224
g57
(g66
g59
NtRp2225
(dp2226
g62
(dp2227
g70
I3
ssg71
Nsg64
(lp2228
sbasbasbasbag57
(g73
g59
NtRp2229
(dp2230
g62
(dp2231
sg71
g2160
sg64
(lp2232
g57
(g78
g59
NtRp2233
(dp2234
g62
(dp2235
g82
g83
ssg71
g2229
sg64
(lp2236
g1114
asbag57
(g78
g59
NtRp2237
(dp2238
g62
(dp2239
g89
g90
ssg71
g2229
sg64
(lp2240
S':'
asbag57
(g78
g59
NtRp2241
(dp2242
g62
(dp2243
sg71
g2229
sg64
(lp2244
g57
(g58
g59
NtRp2245
(dp2246
g62
(dp2247
g70
I4
ssg71
g2241
sg64
(lp2248
S"<Values at 0xa40c0ec: {'verbose': False, 'ip': '127.0.0.1', 'with_scheduler': False, 'ips': [], 'shutdown_timeout': 5, 'taskbar': False, 'port': 8000, 'maxthreads': None, 'softcron': False, 'server_name': 'wasuaje-desktop', 'bpython': False, 'nogui': False, 'pid_filename': 'httpserver.pid', 'extcron': False, 'runcron': False, 'run_system_tests': False, 'test': None, 'folder': '/home/wasuaje/Documentos/desarrollo/web2py5', 'config': '', 'import_models': False, 'winservice': '', 'shell': None, 'run': '', 'log_filename': 'httpserver.log', 'debuglevel': 30, 'args': [''], 'socket_timeout': 5, 'ssl_ca_certificate': None, 'scheduler': None, 'profiler_filename': None, 'ssl_private_key': '', 'scheduler_groups': None, 'password': '<ask>', 'request_queue_size': 5, 'ssl_certificate': '', 'cronjob': False, 'numthreads': None, 'quiet': False, 'interfaces': None, 'minthreads': None, 'timeout': 10, 'plain': False, 'nobanner': False}>"
p2249
asbasbasbag57
(g73
g59
NtRp2250
(dp2251
g62
(dp2252
sg71
g2160
sg64
(lp2253
g57
(g78
g59
NtRp2254
(dp2255
g62
(dp2256
g82
g83
ssg71
g2250
sg64
(lp2257
g1136
asbag57
(g78
g59
NtRp2258
(dp2259
g62
(dp2260
g89
g90
ssg71
g2250
sg64
(lp2261
S':'
asbag57
(g78
g59
NtRp2262
(dp2263
g62
(dp2264
sg71
g2250
sg64
(lp2265
g57
(g58
g59
NtRp2266
(dp2267
g62
(dp2268
g70
I4
ssg71
g2262
sg64
(lp2269
S'set([])'
p2270
asbasbasbag57
(g73
g59
NtRp2271
(dp2272
g62
(dp2273
sg71
g2160
sg64
(lp2274
g57
(g78
g59
NtRp2275
(dp2276
g62
(dp2277
g82
g83
ssg71
g2271
sg64
(lp2278
g1158
asbag57
(g78
g59
NtRp2279
(dp2280
g62
(dp2281
g89
g90
ssg71
g2271
sg64
(lp2282
S':'
asbag57
(g78
g59
NtRp2283
(dp2284
g62
(dp2285
sg71
g2271
sg64
(lp2286
g57
(g58
g59
NtRp2287
(dp2288
g62
(dp2289
g70
I4
ssg71
g2283
sg64
(lp2290
g100
asbasbasbag57
(g73
g59
NtRp2291
(dp2292
g62
(dp2293
sg71
g2160
sg64
(lp2294
g57
(g78
g59
NtRp2295
(dp2296
g62
(dp2297
g82
g83
ssg71
g2291
sg64
(lp2298
g1179
asbag57
(g78
g59
NtRp2299
(dp2300
g62
(dp2301
g89
g90
ssg71
g2291
sg64
(lp2302
S':'
asbag57
(g78
g59
NtRp2303
(dp2304
g62
(dp2305
sg71
g2291
sg64
(lp2306
g57
(g58
g59
NtRp2307
(dp2308
g62
(dp2309
g70
I4
ssg71
g2303
sg64
(lp2310
g1192
asbasbasbag57
(g73
g59
NtRp2311
(dp2312
g62
(dp2313
sg71
g2160
sg64
(lp2314
g57
(g78
g59
NtRp2315
(dp2316
g62
(dp2317
g82
g83
ssg71
g2311
sg64
(lp2318
g1377
asbag57
(g78
g59
NtRp2319
(dp2320
g62
(dp2321
g89
g90
ssg71
g2311
sg64
(lp2322
S':'
asbag57
(g78
g59
NtRp2323
(dp2324
g62
(dp2325
sg71
g2311
sg64
(lp2326
g57
(g58
g59
NtRp2327
(dp2328
g62
(dp2329
g70
I4
ssg71
g2323
sg64
(lp2330
g100
asbasbasbag57
(g73
g59
NtRp2331
(dp2332
g62
(dp2333
sg71
g2160
sg64
(lp2334
g57
(g78
g59
NtRp2335
(dp2336
g62
(dp2337
g82
g83
ssg71
g2331
sg64
(lp2338
g1398
asbag57
(g78
g59
NtRp2339
(dp2340
g62
(dp2341
g89
g90
ssg71
g2331
sg64
(lp2342
S':'
asbag57
(g78
g59
NtRp2343
(dp2344
g62
(dp2345
sg71
g2331
sg64
(lp2346
g57
(g58
g59
NtRp2347
(dp2348
g62
(dp2349
g70
I4
ssg71
g2343
sg64
(lp2350
g100
asbasbasbag57
(g73
g59
NtRp2351
(dp2352
g62
(dp2353
sg71
g2160
sg64
(lp2354
g57
(g78
g59
NtRp2355
(dp2356
g62
(dp2357
g82
g83
ssg71
g2351
sg64
(lp2358
g1419
asbag57
(g78
g59
NtRp2359
(dp2360
g62
(dp2361
g89
g90
ssg71
g2351
sg64
(lp2362
S':'
asbag57
(g78
g59
NtRp2363
(dp2364
g62
(dp2365
sg71
g2351
sg64
(lp2366
g57
(g58
g59
NtRp2367
(dp2368
g62
(dp2369
g70
I4
ssg71
g2363
sg64
(lp2370
g57
(g66
g59
NtRp2371
(dp2372
g62
(dp2373
g70
I3
ssg71
Nsg64
(lp2374
g57
(g73
g59
NtRp2375
(dp2376
g62
(dp2377
sg71
g2371
sg64
(lp2378
g57
(g78
g59
NtRp2379
(dp2380
g62
(dp2381
sg71
g2375
sg64
(lp2382
g57
(g58
g59
NtRp2383
(dp2384
g62
(dp2385
g70
I3
ssg71
g2379
sg64
(lp2386
g1448
asbasbasbag57
(g73
g59
NtRp2387
(dp2388
g62
(dp2389
sg71
g2371
sg64
(lp2390
g57
(g78
g59
NtRp2391
(dp2392
g62
(dp2393
sg71
g2387
sg64
(lp2394
g57
(g58
g59
NtRp2395
(dp2396
g62
(dp2397
g70
I3
ssg71
g2391
sg64
(lp2398
g1461
asbasbasbag57
(g73
g59
NtRp2399
(dp2400
g62
(dp2401
sg71
g2371
sg64
(lp2402
g57
(g78
g59
NtRp2403
(dp2404
g62
(dp2405
sg71
g2399
sg64
(lp2406
g57
(g58
g59
NtRp2407
(dp2408
g62
(dp2409
g70
I3
ssg71
g2403
sg64
(lp2410
g1474
asbasbasbag57
(g73
g59
NtRp2411
(dp2412
g62
(dp2413
sg71
g2371
sg64
(lp2414
g57
(g78
g59
NtRp2415
(dp2416
g62
(dp2417
sg71
g2411
sg64
(lp2418
g57
(g58
g59
NtRp2419
(dp2420
g62
(dp2421
g70
I3
ssg71
g2415
sg64
(lp2422
g1487
asbasbasbag57
(g73
g59
NtRp2423
(dp2424
g62
(dp2425
sg71
g2371
sg64
(lp2426
g57
(g78
g59
NtRp2427
(dp2428
g62
(dp2429
sg71
g2423
sg64
(lp2430
g57
(g58
g59
NtRp2431
(dp2432
g62
(dp2433
g70
I3
ssg71
g2427
sg64
(lp2434
g1500
asbasbasbasbasbasbasbag57
(g73
g59
NtRp2435
(dp2436
g62
(dp2437
sg71
g2160
sg64
(lp2438
g57
(g78
g59
NtRp2439
(dp2440
g62
(dp2441
g82
g83
ssg71
g2435
sg64
(lp2442
g1768
asbag57
(g78
g59
NtRp2443
(dp2444
g62
(dp2445
g89
g90
ssg71
g2435
sg64
(lp2446
S':'
asbag57
(g78
g59
NtRp2447
(dp2448
g62
(dp2449
sg71
g2435
sg64
(lp2450
g57
(g58
g59
NtRp2451
(dp2452
g62
(dp2453
g70
I4
ssg71
g2447
sg64
(lp2454
g57
(g66
g59
NtRp2455
(dp2456
g62
(dp2457
g70
I3
ssg71
Nsg64
(lp2458
g57
(g73
g59
NtRp2459
(dp2460
g62
(dp2461
sg71
g2455
sg64
(lp2462
g57
(g78
g59
NtRp2463
(dp2464
g62
(dp2465
sg71
g2459
sg64
(lp2466
g57
(g58
g59
NtRp2467
(dp2468
g62
(dp2469
g70
I3
ssg71
g2463
sg64
(lp2470
S'2'
asbasbasbag57
(g73
g59
NtRp2471
(dp2472
g62
(dp2473
sg71
g2455
sg64
(lp2474
g57
(g78
g59
NtRp2475
(dp2476
g62
(dp2477
sg71
g2471
sg64
(lp2478
g57
(g58
g59
NtRp2479
(dp2480
g62
(dp2481
g70
I3
ssg71
g2475
sg64
(lp2482
S'3'
asbasbasbag57
(g73
g59
NtRp2483
(dp2484
g62
(dp2485
sg71
g2455
sg64
(lp2486
g57
(g78
g59
NtRp2487
(dp2488
g62
(dp2489
sg71
g2483
sg64
(lp2490
g57
(g58
g59
NtRp2491
(dp2492
g62
(dp2493
g70
I3
ssg71
g2487
sg64
(lp2494
S'2'
asbasbasbag57
(g73
g59
NtRp2495
(dp2496
g62
(dp2497
sg71
g2455
sg64
(lp2498
g57
(g78
g59
NtRp2499
(dp2500
g62
(dp2501
sg71
g2495
sg64
(lp2502
g57
(g58
g59
NtRp2503
(dp2504
g62
(dp2505
g70
I3
ssg71
g2499
sg64
(lp2506
S'datetime.datetime(2012, 12, 17, 15, 3, 30)'
p2507
asbasbasbag57
(g73
g59
NtRp2508
(dp2509
g62
(dp2510
sg71
g2455
sg64
(lp2511
g57
(g78
g59
NtRp2512
(dp2513
g62
(dp2514
sg71
g2508
sg64
(lp2515
g57
(g58
g59
NtRp2516
(dp2517
g62
(dp2518
g70
I3
ssg71
g2512
sg64
(lp2519
g1846
asbasbasbasbasbasbasbasbasbasbasbag57
(g73
g59
NtRp2520
(dp2521
g62
(dp2522
sg71
g67
sg64
(lp2523
g57
(g78
g59
NtRp2524
(dp2525
g62
(dp2526
g82
g83
ssg71
g2520
sg64
(lp2527
S'is_https'
p2528
asbag57
(g78
g59
NtRp2529
(dp2530
g62
(dp2531
g89
g90
ssg71
g2520
sg64
(lp2532
S':'
asbag57
(g78
g59
NtRp2533
(dp2534
g62
(dp2535
sg71
g2520
sg64
(lp2536
g57
(g58
g59
NtRp2537
(dp2538
g62
(dp2539
g70
I5
ssg71
g2533
sg64
(lp2540
g100
asbasbasbag57
(g73
g59
NtRp2541
(dp2542
g62
(dp2543
sg71
g67
sg64
(lp2544
g57
(g78
g59
NtRp2545
(dp2546
g62
(dp2547
g82
g83
ssg71
g2541
sg64
(lp2548
S'is_local'
p2549
asbag57
(g78
g59
NtRp2550
(dp2551
g62
(dp2552
g89
g90
ssg71
g2541
sg64
(lp2553
S':'
asbag57
(g78
g59
NtRp2554
(dp2555
g62
(dp2556
sg71
g2541
sg64
(lp2557
g57
(g58
g59
NtRp2558
(dp2559
g62
(dp2560
g70
I5
ssg71
g2554
sg64
(lp2561
g1955
asbasbasbag57
(g73
g59
NtRp2562
(dp2563
g62
(dp2564
sg71
g67
sg64
(lp2565
g57
(g78
g59
NtRp2566
(dp2567
g62
(dp2568
g82
g83
ssg71
g2562
sg64
(lp2569
S'is_restful'
p2570
asbag57
(g78
g59
NtRp2571
(dp2572
g62
(dp2573
g89
g90
ssg71
g2562
sg64
(lp2574
S':'
asbag57
(g78
g59
NtRp2575
(dp2576
g62
(dp2577
sg71
g2562
sg64
(lp2578
g57
(g58
g59
NtRp2579
(dp2580
g62
(dp2581
g70
I5
ssg71
g2575
sg64
(lp2582
g100
asbasbasbag57
(g73
g59
NtRp2583
(dp2584
g62
(dp2585
sg71
g67
sg64
(lp2586
g57
(g78
g59
NtRp2587
(dp2588
g62
(dp2589
g82
g83
ssg71
g2583
sg64
(lp2590
S'now'
p2591
asbag57
(g78
g59
NtRp2592
(dp2593
g62
(dp2594
g89
g90
ssg71
g2583
sg64
(lp2595
S':'
asbag57
(g78
g59
NtRp2596
(dp2597
g62
(dp2598
sg71
g2583
sg64
(lp2599
g57
(g58
g59
NtRp2600
(dp2601
g62
(dp2602
g70
I5
ssg71
g2596
sg64
(lp2603
S'datetime.datetime(2013, 2, 7, 12, 9, 2, 823365)'
p2604
asbasbasbag57
(g73
g59
NtRp2605
(dp2606
g62
(dp2607
sg71
g67
sg64
(lp2608
g57
(g78
g59
NtRp2609
(dp2610
g62
(dp2611
g82
g83
ssg71
g2605
sg64
(lp2612
S'post_vars'
p2613
asbag57
(g78
g59
NtRp2614
(dp2615
g62
(dp2616
g89
g90
ssg71
g2605
sg64
(lp2617
S':'
asbag57
(g78
g59
NtRp2618
(dp2619
g62
(dp2620
sg71
g2605
sg64
(lp2621
g57
(g58
g59
NtRp2622
(dp2623
g62
(dp2624
g70
I5
ssg71
g2618
sg64
(lp2625
g57
(g66
g59
NtRp2626
(dp2627
g62
(dp2628
g70
I4
ssg71
Nsg64
(lp2629
sbasbasbasbag57
(g73
g59
NtRp2630
(dp2631
g62
(dp2632
sg71
g67
sg64
(lp2633
g57
(g78
g59
NtRp2634
(dp2635
g62
(dp2636
g82
g83
ssg71
g2630
sg64
(lp2637
S'raw_args'
p2638
asbag57
(g78
g59
NtRp2639
(dp2640
g62
(dp2641
g89
g90
ssg71
g2630
sg64
(lp2642
S':'
asbag57
(g78
g59
NtRp2643
(dp2644
g62
(dp2645
sg71
g2630
sg64
(lp2646
g57
(g58
g59
NtRp2647
(dp2648
g62
(dp2649
g70
I5
ssg71
g2643
sg64
(lp2650
S''
asbasbasbag57
(g73
g59
NtRp2651
(dp2652
g62
(dp2653
sg71
g67
sg64
(lp2654
g57
(g78
g59
NtRp2655
(dp2656
g62
(dp2657
g82
g83
ssg71
g2651
sg64
(lp2658
S'raw_extension'
p2659
asbag57
(g78
g59
NtRp2660
(dp2661
g62
(dp2662
g89
g90
ssg71
g2651
sg64
(lp2663
S':'
asbag57
(g78
g59
NtRp2664
(dp2665
g62
(dp2666
sg71
g2651
sg64
(lp2667
g57
(g58
g59
NtRp2668
(dp2669
g62
(dp2670
g70
I5
ssg71
g2664
sg64
(lp2671
S'None'
p2672
asbasbasbag57
(g73
g59
NtRp2673
(dp2674
g62
(dp2675
sg71
g67
sg64
(lp2676
g57
(g78
g59
NtRp2677
(dp2678
g62
(dp2679
g82
g83
ssg71
g2673
sg64
(lp2680
S'url'
p2681
asbag57
(g78
g59
NtRp2682
(dp2683
g62
(dp2684
g89
g90
ssg71
g2673
sg64
(lp2685
S':'
asbag57
(g78
g59
NtRp2686
(dp2687
g62
(dp2688
sg71
g2673
sg64
(lp2689
g57
(g58
g59
NtRp2690
(dp2691
g62
(dp2692
g70
I5
ssg71
g2686
sg64
(lp2693
g1522
asbasbasbag57
(g73
g59
NtRp2694
(dp2695
g62
(dp2696
sg71
g67
sg64
(lp2697
g57
(g78
g59
NtRp2698
(dp2699
g62
(dp2700
g82
g83
ssg71
g2694
sg64
(lp2701
S'utcnow'
p2702
asbag57
(g78
g59
NtRp2703
(dp2704
g62
(dp2705
g89
g90
ssg71
g2694
sg64
(lp2706
S':'
asbag57
(g78
g59
NtRp2707
(dp2708
g62
(dp2709
sg71
g2694
sg64
(lp2710
g57
(g58
g59
NtRp2711
(dp2712
g62
(dp2713
g70
I5
ssg71
g2707
sg64
(lp2714
S'datetime.datetime(2013, 2, 7, 16, 39, 2, 823394)'
p2715
asbasbasbag57
(g73
g59
NtRp2716
(dp2717
g62
(dp2718
sg71
g67
sg64
(lp2719
g57
(g78
g59
NtRp2720
(dp2721
g62
(dp2722
g82
g83
ssg71
g2716
sg64
(lp2723
S'uuid'
p2724
asbag57
(g78
g59
NtRp2725
(dp2726
g62
(dp2727
g89
g90
ssg71
g2716
sg64
(lp2728
S':'
asbag57
(g78
g59
NtRp2729
(dp2730
g62
(dp2731
sg71
g2716
sg64
(lp2732
g57
(g58
g59
NtRp2733
(dp2734
g62
(dp2735
g70
I5
ssg71
g2729
sg64
(lp2736
S'flota/127.0.0.1.2013-02-07.12-09-02.bab8afe0-4859-44c2-be74-d4156fb1923e'
p2737
asbasbasbag57
(g73
g59
NtRp2738
(dp2739
g62
(dp2740
sg71
g67
sg64
(lp2741
g57
(g78
g59
NtRp2742
(dp2743
g62
(dp2744
g82
g83
ssg71
g2738
sg64
(lp2745
S'vars'
p2746
asbag57
(g78
g59
NtRp2747
(dp2748
g62
(dp2749
g89
g90
ssg71
g2738
sg64
(lp2750
S':'
asbag57
(g78
g59
NtRp2751
(dp2752
g62
(dp2753
sg71
g2738
sg64
(lp2754
g57
(g58
g59
NtRp2755
(dp2756
g62
(dp2757
g70
I5
ssg71
g2751
sg64
(lp2758
g57
(g66
g59
NtRp2759
(dp2760
g62
(dp2761
g70
I4
ssg71
Nsg64
(lp2762
sbasbasbasbag57
(g73
g59
NtRp2763
(dp2764
g62
(dp2765
sg71
g67
sg64
(lp2766
g57
(g78
g59
NtRp2767
(dp2768
g62
(dp2769
g82
g83
ssg71
g2763
sg64
(lp2770
S'wsgi'
p2771
asbag57
(g78
g59
NtRp2772
(dp2773
g62
(dp2774
g89
g90
ssg71
g2763
sg64
(lp2775
S':'
asbag57
(g78
g59
NtRp2776
(dp2777
g62
(dp2778
sg71
g2763
sg64
(lp2779
g57
(g58
g59
NtRp2780
(dp2781
g62
(dp2782
g70
I5
ssg71
g2776
sg64
(lp2783
g57
(g66
g59
NtRp2784
(dp2785
g62
(dp2786
g70
I4
ssg71
Nsg64
(lp2787
g57
(g73
g59
NtRp2788
(dp2789
g62
(dp2790
sg71
g2784
sg64
(lp2791
g57
(g78
g59
NtRp2792
(dp2793
g62
(dp2794
g82
g83
ssg71
g2788
sg64
(lp2795
S'environ'
p2796
asbag57
(g78
g59
NtRp2797
(dp2798
g62
(dp2799
g89
g90
ssg71
g2788
sg64
(lp2800
S':'
asbag57
(g78
g59
NtRp2801
(dp2802
g62
(dp2803
sg71
g2788
sg64
(lp2804
g57
(g58
g59
NtRp2805
(dp2806
g62
(dp2807
g70
I4
ssg71
g2801
sg64
(lp2808
g57
(g66
g59
NtRp2809
(dp2810
g62
(dp2811
g70
I3
ssg71
Nsg64
(lp2812
g57
(g73
g59
NtRp2813
(dp2814
g62
(dp2815
sg71
g2809
sg64
(lp2816
g57
(g78
g59
NtRp2817
(dp2818
g62
(dp2819
g82
g83
ssg71
g2813
sg64
(lp2820
S'HTTP_ACCEPT'
p2821
asbag57
(g78
g59
NtRp2822
(dp2823
g62
(dp2824
g89
g90
ssg71
g2813
sg64
(lp2825
S':'
asbag57
(g78
g59
NtRp2826
(dp2827
g62
(dp2828
sg71
g2813
sg64
(lp2829
g57
(g58
g59
NtRp2830
(dp2831
g62
(dp2832
g70
I3
ssg71
g2826
sg64
(lp2833
g1214
asbasbasbag57
(g73
g59
NtRp2834
(dp2835
g62
(dp2836
sg71
g2809
sg64
(lp2837
g57
(g78
g59
NtRp2838
(dp2839
g62
(dp2840
g82
g83
ssg71
g2834
sg64
(lp2841
S'HTTP_ACCEPT_ENCODING'
p2842
asbag57
(g78
g59
NtRp2843
(dp2844
g62
(dp2845
g89
g90
ssg71
g2834
sg64
(lp2846
S':'
asbag57
(g78
g59
NtRp2847
(dp2848
g62
(dp2849
sg71
g2834
sg64
(lp2850
g57
(g58
g59
NtRp2851
(dp2852
g62
(dp2853
g70
I3
ssg71
g2847
sg64
(lp2854
g1236
asbasbasbag57
(g73
g59
NtRp2855
(dp2856
g62
(dp2857
sg71
g2809
sg64
(lp2858
g57
(g78
g59
NtRp2859
(dp2860
g62
(dp2861
g82
g83
ssg71
g2855
sg64
(lp2862
S'HTTP_ACCEPT_LANGUAGE'
p2863
asbag57
(g78
g59
NtRp2864
(dp2865
g62
(dp2866
g89
g90
ssg71
g2855
sg64
(lp2867
S':'
asbag57
(g78
g59
NtRp2868
(dp2869
g62
(dp2870
sg71
g2855
sg64
(lp2871
g57
(g58
g59
NtRp2872
(dp2873
g62
(dp2874
g70
I3
ssg71
g2868
sg64
(lp2875
g1258
asbasbasbag57
(g73
g59
NtRp2876
(dp2877
g62
(dp2878
sg71
g2809
sg64
(lp2879
g57
(g78
g59
NtRp2880
(dp2881
g62
(dp2882
g82
g83
ssg71
g2876
sg64
(lp2883
S'HTTP_CACHE_CONTROL'
p2884
asbag57
(g78
g59
NtRp2885
(dp2886
g62
(dp2887
g89
g90
ssg71
g2876
sg64
(lp2888
S':'
asbag57
(g78
g59
NtRp2889
(dp2890
g62
(dp2891
sg71
g2876
sg64
(lp2892
g57
(g58
g59
NtRp2893
(dp2894
g62
(dp2895
g70
I3
ssg71
g2889
sg64
(lp2896
g1280
asbasbasbag57
(g73
g59
NtRp2897
(dp2898
g62
(dp2899
sg71
g2809
sg64
(lp2900
g57
(g78
g59
NtRp2901
(dp2902
g62
(dp2903
g82
g83
ssg71
g2897
sg64
(lp2904
S'HTTP_CONNECTION'
p2905
asbag57
(g78
g59
NtRp2906
(dp2907
g62
(dp2908
g89
g90
ssg71
g2897
sg64
(lp2909
S':'
asbag57
(g78
g59
NtRp2910
(dp2911
g62
(dp2912
sg71
g2897
sg64
(lp2913
g57
(g58
g59
NtRp2914
(dp2915
g62
(dp2916
g70
I3
ssg71
g2910
sg64
(lp2917
g1302
asbasbasbag57
(g73
g59
NtRp2918
(dp2919
g62
(dp2920
sg71
g2809
sg64
(lp2921
g57
(g78
g59
NtRp2922
(dp2923
g62
(dp2924
g82
g83
ssg71
g2918
sg64
(lp2925
S'HTTP_COOKIE'
p2926
asbag57
(g78
g59
NtRp2927
(dp2928
g62
(dp2929
g89
g90
ssg71
g2918
sg64
(lp2930
S':'
asbag57
(g78
g59
NtRp2931
(dp2932
g62
(dp2933
sg71
g2918
sg64
(lp2934
g57
(g58
g59
NtRp2935
(dp2936
g62
(dp2937
g70
I3
ssg71
g2931
sg64
(lp2938
g1324
asbasbasbag57
(g73
g59
NtRp2939
(dp2940
g62
(dp2941
sg71
g2809
sg64
(lp2942
g57
(g78
g59
NtRp2943
(dp2944
g62
(dp2945
g82
g83
ssg71
g2939
sg64
(lp2946
S'HTTP_HOST'
p2947
asbag57
(g78
g59
NtRp2948
(dp2949
g62
(dp2950
g89
g90
ssg71
g2939
sg64
(lp2951
S':'
asbag57
(g78
g59
NtRp2952
(dp2953
g62
(dp2954
sg71
g2939
sg64
(lp2955
g57
(g58
g59
NtRp2956
(dp2957
g62
(dp2958
g70
I3
ssg71
g2952
sg64
(lp2959
g1346
asbasbasbag57
(g73
g59
NtRp2960
(dp2961
g62
(dp2962
sg71
g2809
sg64
(lp2963
g57
(g78
g59
NtRp2964
(dp2965
g62
(dp2966
g82
g83
ssg71
g2960
sg64
(lp2967
S'HTTP_USER_AGENT'
p2968
asbag57
(g78
g59
NtRp2969
(dp2970
g62
(dp2971
g89
g90
ssg71
g2960
sg64
(lp2972
S':'
asbag57
(g78
g59
NtRp2973
(dp2974
g62
(dp2975
sg71
g2960
sg64
(lp2976
g57
(g58
g59
NtRp2977
(dp2978
g62
(dp2979
g70
I3
ssg71
g2973
sg64
(lp2980
g1368
asbasbasbag57
(g73
g59
NtRp2981
(dp2982
g62
(dp2983
sg71
g2809
sg64
(lp2984
g57
(g78
g59
NtRp2985
(dp2986
g62
(dp2987
g82
g83
ssg71
g2981
sg64
(lp2988
S'PATH_INFO'
p2989
asbag57
(g78
g59
NtRp2990
(dp2991
g62
(dp2992
g89
g90
ssg71
g2981
sg64
(lp2993
S':'
asbag57
(g78
g59
NtRp2994
(dp2995
g62
(dp2996
sg71
g2981
sg64
(lp2997
g57
(g58
g59
NtRp2998
(dp2999
g62
(dp3000
g70
I3
ssg71
g2994
sg64
(lp3001
g1522
asbasbasbag57
(g73
g59
NtRp3002
(dp3003
g62
(dp3004
sg71
g2809
sg64
(lp3005
g57
(g78
g59
NtRp3006
(dp3007
g62
(dp3008
g82
g83
ssg71
g3002
sg64
(lp3009
S'QUERY_STRING'
p3010
asbag57
(g78
g59
NtRp3011
(dp3012
g62
(dp3013
g89
g90
ssg71
g3002
sg64
(lp3014
S':'
asbag57
(g78
g59
NtRp3015
(dp3016
g62
(dp3017
sg71
g3002
sg64
(lp3018
g57
(g58
g59
NtRp3019
(dp3020
g62
(dp3021
g70
I3
ssg71
g3015
sg64
(lp3022
S''
asbasbasbag57
(g73
g59
NtRp3023
(dp3024
g62
(dp3025
sg71
g2809
sg64
(lp3026
g57
(g78
g59
NtRp3027
(dp3028
g62
(dp3029
g82
g83
ssg71
g3023
sg64
(lp3030
S'REMOTE_ADDR'
p3031
asbag57
(g78
g59
NtRp3032
(dp3033
g62
(dp3034
g89
g90
ssg71
g3023
sg64
(lp3035
S':'
asbag57
(g78
g59
NtRp3036
(dp3037
g62
(dp3038
sg71
g3023
sg64
(lp3039
g57
(g58
g59
NtRp3040
(dp3041
g62
(dp3042
g70
I3
ssg71
g3036
sg64
(lp3043
g212
asbasbasbag57
(g73
g59
NtRp3044
(dp3045
g62
(dp3046
sg71
g2809
sg64
(lp3047
g57
(g78
g59
NtRp3048
(dp3049
g62
(dp3050
g82
g83
ssg71
g3044
sg64
(lp3051
S'REMOTE_PORT'
p3052
asbag57
(g78
g59
NtRp3053
(dp3054
g62
(dp3055
g89
g90
ssg71
g3044
sg64
(lp3056
S':'
asbag57
(g78
g59
NtRp3057
(dp3058
g62
(dp3059
sg71
g3044
sg64
(lp3060
g57
(g58
g59
NtRp3061
(dp3062
g62
(dp3063
g70
I3
ssg71
g3057
sg64
(lp3064
g1586
asbasbasbag57
(g73
g59
NtRp3065
(dp3066
g62
(dp3067
sg71
g2809
sg64
(lp3068
g57
(g78
g59
NtRp3069
(dp3070
g62
(dp3071
g82
g83
ssg71
g3065
sg64
(lp3072
S'REQUEST_METHOD'
p3073
asbag57
(g78
g59
NtRp3074
(dp3075
g62
(dp3076
g89
g90
ssg71
g3065
sg64
(lp3077
S':'
asbag57
(g78
g59
NtRp3078
(dp3079
g62
(dp3080
sg71
g3065
sg64
(lp3081
g57
(g58
g59
NtRp3082
(dp3083
g62
(dp3084
g70
I3
ssg71
g3078
sg64
(lp3085
g1608
asbasbasbag57
(g73
g59
NtRp3086
(dp3087
g62
(dp3088
sg71
g2809
sg64
(lp3089
g57
(g78
g59
NtRp3090
(dp3091
g62
(dp3092
g82
g83
ssg71
g3086
sg64
(lp3093
S'REQUEST_URI'
p3094
asbag57
(g78
g59
NtRp3095
(dp3096
g62
(dp3097
g89
g90
ssg71
g3086
sg64
(lp3098
S':'
asbag57
(g78
g59
NtRp3099
(dp3100
g62
(dp3101
sg71
g3086
sg64
(lp3102
g57
(g58
g59
NtRp3103
(dp3104
g62
(dp3105
g70
I3
ssg71
g3099
sg64
(lp3106
g1522
asbasbasbag57
(g73
g59
NtRp3107
(dp3108
g62
(dp3109
sg71
g2809
sg64
(lp3110
g57
(g78
g59
NtRp3111
(dp3112
g62
(dp3113
g82
g83
ssg71
g3107
sg64
(lp3114
S'SCRIPT_NAME'
p3115
asbag57
(g78
g59
NtRp3116
(dp3117
g62
(dp3118
g89
g90
ssg71
g3107
sg64
(lp3119
S':'
asbag57
(g78
g59
NtRp3120
(dp3121
g62
(dp3122
sg71
g3107
sg64
(lp3123
g57
(g58
g59
NtRp3124
(dp3125
g62
(dp3126
g70
I3
ssg71
g3120
sg64
(lp3127
S''
asbasbasbag57
(g73
g59
NtRp3128
(dp3129
g62
(dp3130
sg71
g2809
sg64
(lp3131
g57
(g78
g59
NtRp3132
(dp3133
g62
(dp3134
g82
g83
ssg71
g3128
sg64
(lp3135
S'SERVER_NAME'
p3136
asbag57
(g78
g59
NtRp3137
(dp3138
g62
(dp3139
g89
g90
ssg71
g3128
sg64
(lp3140
S':'
asbag57
(g78
g59
NtRp3141
(dp3142
g62
(dp3143
sg71
g3128
sg64
(lp3144
g57
(g58
g59
NtRp3145
(dp3146
g62
(dp3147
g70
I3
ssg71
g3141
sg64
(lp3148
g1672
asbasbasbag57
(g73
g59
NtRp3149
(dp3150
g62
(dp3151
sg71
g2809
sg64
(lp3152
g57
(g78
g59
NtRp3153
(dp3154
g62
(dp3155
g82
g83
ssg71
g3149
sg64
(lp3156
S'SERVER_PORT'
p3157
asbag57
(g78
g59
NtRp3158
(dp3159
g62
(dp3160
g89
g90
ssg71
g3149
sg64
(lp3161
S':'
asbag57
(g78
g59
NtRp3162
(dp3163
g62
(dp3164
sg71
g3149
sg64
(lp3165
g57
(g58
g59
NtRp3166
(dp3167
g62
(dp3168
g70
I3
ssg71
g3162
sg64
(lp3169
g1694
asbasbasbag57
(g73
g59
NtRp3170
(dp3171
g62
(dp3172
sg71
g2809
sg64
(lp3173
g57
(g78
g59
NtRp3174
(dp3175
g62
(dp3176
g82
g83
ssg71
g3170
sg64
(lp3177
S'SERVER_PROTOCOL'
p3178
asbag57
(g78
g59
NtRp3179
(dp3180
g62
(dp3181
g89
g90
ssg71
g3170
sg64
(lp3182
S':'
asbag57
(g78
g59
NtRp3183
(dp3184
g62
(dp3185
sg71
g3170
sg64
(lp3186
g57
(g58
g59
NtRp3187
(dp3188
g62
(dp3189
g70
I3
ssg71
g3183
sg64
(lp3190
g1716
asbasbasbag57
(g73
g59
NtRp3191
(dp3192
g62
(dp3193
sg71
g2809
sg64
(lp3194
g57
(g78
g59
NtRp3195
(dp3196
g62
(dp3197
g82
g83
ssg71
g3191
sg64
(lp3198
S'SERVER_SOFTWARE'
p3199
asbag57
(g78
g59
NtRp3200
(dp3201
g62
(dp3202
g89
g90
ssg71
g3191
sg64
(lp3203
S':'
asbag57
(g78
g59
NtRp3204
(dp3205
g62
(dp3206
sg71
g3191
sg64
(lp3207
g57
(g58
g59
NtRp3208
(dp3209
g62
(dp3210
g70
I3
ssg71
g3204
sg64
(lp3211
g1738
asbasbasbag57
(g73
g59
NtRp3212
(dp3213
g62
(dp3214
sg71
g2809
sg64
(lp3215
g57
(g78
g59
NtRp3216
(dp3217
g62
(dp3218
g82
g83
ssg71
g3212
sg64
(lp3219
S'wsgi.errors'
p3220
asbag57
(g78
g59
NtRp3221
(dp3222
g62
(dp3223
g89
g90
ssg71
g3212
sg64
(lp3224
S':'
asbag57
(g78
g59
NtRp3225
(dp3226
g62
(dp3227
sg71
g3212
sg64
(lp3228
g57
(g58
g59
NtRp3229
(dp3230
g62
(dp3231
g70
I3
ssg71
g3225
sg64
(lp3232
S"<open file '<stderr>', mode 'w' at 0xb754b0d0>"
p3233
asbasbasbag57
(g73
g59
NtRp3234
(dp3235
g62
(dp3236
sg71
g2809
sg64
(lp3237
g57
(g78
g59
NtRp3238
(dp3239
g62
(dp3240
g82
g83
ssg71
g3234
sg64
(lp3241
S'wsgi.file_wrapper'
p3242
asbag57
(g78
g59
NtRp3243
(dp3244
g62
(dp3245
g89
g90
ssg71
g3234
sg64
(lp3246
S':'
asbag57
(g78
g59
NtRp3247
(dp3248
g62
(dp3249
sg71
g3234
sg64
(lp3250
g57
(g58
g59
NtRp3251
(dp3252
g62
(dp3253
g70
I3
ssg71
g3247
sg64
(lp3254
S'<class wsgiref.util.FileWrapper at 0xa3c42fc>'
p3255
asbasbasbag57
(g73
g59
NtRp3256
(dp3257
g62
(dp3258
sg71
g2809
sg64
(lp3259
g57
(g78
g59
NtRp3260
(dp3261
g62
(dp3262
g82
g83
ssg71
g3256
sg64
(lp3263
S'wsgi.input'
p3264
asbag57
(g78
g59
NtRp3265
(dp3266
g62
(dp3267
g89
g90
ssg71
g3256
sg64
(lp3268
S':'
asbag57
(g78
g59
NtRp3269
(dp3270
g62
(dp3271
sg71
g3256
sg64
(lp3272
g57
(g58
g59
NtRp3273
(dp3274
g62
(dp3275
g70
I3
ssg71
g3269
sg64
(lp3276
S'<cStringIO.StringO object at 0xabb25260>'
p3277
asbasbasbag57
(g73
g59
NtRp3278
(dp3279
g62
(dp3280
sg71
g2809
sg64
(lp3281
g57
(g78
g59
NtRp3282
(dp3283
g62
(dp3284
g82
g83
ssg71
g3278
sg64
(lp3285
S'wsgi.multiprocess'
p3286
asbag57
(g78
g59
NtRp3287
(dp3288
g62
(dp3289
g89
g90
ssg71
g3278
sg64
(lp3290
S':'
asbag57
(g78
g59
NtRp3291
(dp3292
g62
(dp3293
sg71
g3278
sg64
(lp3294
g57
(g58
g59
NtRp3295
(dp3296
g62
(dp3297
g70
I3
ssg71
g3291
sg64
(lp3298
g100
asbasbasbag57
(g73
g59
NtRp3299
(dp3300
g62
(dp3301
sg71
g2809
sg64
(lp3302
g57
(g78
g59
NtRp3303
(dp3304
g62
(dp3305
g82
g83
ssg71
g3299
sg64
(lp3306
S'wsgi.multithread'
p3307
asbag57
(g78
g59
NtRp3308
(dp3309
g62
(dp3310
g89
g90
ssg71
g3299
sg64
(lp3311
S':'
asbag57
(g78
g59
NtRp3312
(dp3313
g62
(dp3314
sg71
g3299
sg64
(lp3315
g57
(g58
g59
NtRp3316
(dp3317
g62
(dp3318
g70
I3
ssg71
g3312
sg64
(lp3319
g1955
asbasbasbag57
(g73
g59
NtRp3320
(dp3321
g62
(dp3322
sg71
g2809
sg64
(lp3323
g57
(g78
g59
NtRp3324
(dp3325
g62
(dp3326
g82
g83
ssg71
g3320
sg64
(lp3327
S'wsgi.run_once'
p3328
asbag57
(g78
g59
NtRp3329
(dp3330
g62
(dp3331
g89
g90
ssg71
g3320
sg64
(lp3332
S':'
asbag57
(g78
g59
NtRp3333
(dp3334
g62
(dp3335
sg71
g3320
sg64
(lp3336
g57
(g58
g59
NtRp3337
(dp3338
g62
(dp3339
g70
I3
ssg71
g3333
sg64
(lp3340
g100
asbasbasbag57
(g73
g59
NtRp3341
(dp3342
g62
(dp3343
sg71
g2809
sg64
(lp3344
g57
(g78
g59
NtRp3345
(dp3346
g62
(dp3347
g82
g83
ssg71
g3341
sg64
(lp3348
S'wsgi.url_scheme'
p3349
asbag57
(g78
g59
NtRp3350
(dp3351
g62
(dp3352
g89
g90
ssg71
g3341
sg64
(lp3353
S':'
asbag57
(g78
g59
NtRp3354
(dp3355
g62
(dp3356
sg71
g3341
sg64
(lp3357
g57
(g58
g59
NtRp3358
(dp3359
g62
(dp3360
g70
I3
ssg71
g3354
sg64
(lp3361
g1998
asbasbasbag57
(g73
g59
NtRp3362
(dp3363
g62
(dp3364
sg71
g2809
sg64
(lp3365
g57
(g78
g59
NtRp3366
(dp3367
g62
(dp3368
g82
g83
ssg71
g3362
sg64
(lp3369
S'wsgi.version'
p3370
asbag57
(g78
g59
NtRp3371
(dp3372
g62
(dp3373
g89
g90
ssg71
g3362
sg64
(lp3374
S':'
asbag57
(g78
g59
NtRp3375
(dp3376
g62
(dp3377
sg71
g3362
sg64
(lp3378
g57
(g58
g59
NtRp3379
(dp3380
g62
(dp3381
g70
I3
ssg71
g3375
sg64
(lp3382
S'1'
asbasbasbasbasbasbasbasbasbasbasbasbasbsS'frames'
p3383
(lp3384
(dp3385
S'file'
p3386
S'/home/wasuaje/Documentos/desarrollo/web2py5/gluon/restricted.py'
p3387
sS'dump'
p3388
(dp3389
S'environment'
p3390
S"{'A': <class 'gluon.html.A'>, 'Auth': <class 'gluon.tools.Auth'>, 'B': <class 'gluon.html.B'>, 'BEAUTIFY': <class 'gluon.html.BEAUTIFY'>, 'BODY': <class 'gluon.html.BODY'>, 'BR': <class 'gluon.html.BR'>, 'BUTTON': <class 'gluon.html.BUTTON'>, 'CAT': <class 'gluon.html.CAT'>, 'CENTER': <class 'gluon.html.CENTER'>, 'CLEANUP': <class 'gluon.validators.CLEANUP'>, ...}"
p3391
sS'ccode'
p3392
S'<code object <module> at 0xad890c80, file "/home...lications/flota/views/cobro2/index.html", line 1>'
p3393
ssS'lnum'
p3394
I212
sS'lines'
p3395
(dp3396
I207
S'    try:'
p3397
sI208
S'        if isinstance(code, types.CodeType):'
p3398
sI209
S'            ccode = code'
p3399
sI210
S'        else:'
p3400
sI211
S'            ccode = compile2(code, layer)'
p3401
sI212
S'        exec ccode in environment'
p3402
sI213
S'    except HTTP:'
p3403
sI214
S'        raise'
p3404
sI215
S'    except RestrictedError:'
p3405
sI216
S'        # do not encapsulate (obfuscate) the original RestrictedError'
p3406
ssS'call'
p3407
S'(code=\'response.write(\\\'<!DOCTYPE html PUBLIC "-//W3C//D...d footer -->\\\\n </body>\\\\n</html>\\\\n\\\', escape=False)\', environment={\'A\': <class \'gluon.html.A\'>, \'Auth\': <class \'gluon.tools.Auth\'>, \'B\': <class \'gluon.html.B\'>, \'BEAUTIFY\': <class \'gluon.html.BEAUTIFY\'>, \'BODY\': <class \'gluon.html.BODY\'>, \'BR\': <class \'gluon.html.BR\'>, \'BUTTON\': <class \'gluon.html.BUTTON\'>, \'CAT\': <class \'gluon.html.CAT\'>, \'CENTER\': <class \'gluon.html.CENTER\'>, \'CLEANUP\': <class \'gluon.validators.CLEANUP\'>, ...}, layer=\'/home/wasuaje/Documentos/desarrollo/web2py5/applications/flota/views/cobro2/index.html\')'
p3408
sS'func'
p3409
S'restricted'
p3410
sa(dp3411
g3386
S'/home/wasuaje/Documentos/desarrollo/web2py5/applications/flota/views/cobro2/index.html'
p3412
sg3388
(dp3413
sg3394
I51
sg3395
(dp3414
I42
S'except:pass'
p3415
sI43
S'response.write(\'\\n\\n  <div id="wrapper">\\n   <!-- start header -->\\n   <div id="logo">\\n    <h1>\\n     <!--\', escape=False)'
p3416
sI44
S'response.write(response.title or request.application)'
p3417
sI45
S'response.write(\'-->\\n\\t FLOTACONTROL\\n    </h1>\\n    <h2>\\n     Sistema de control de flota \\n    </h2>\\n   </div>\\n   <div id="header">\\n    <div id="menu">\\n     \', escape=False)'
p3418
sI46
S"response.write(MENU(response.menu,_class='web2py-menu'))"
p3419
sI47
S'response.write(\'\\n    <script>\\n      jQuery(document).ready(function(){jQuery(\\\'ul.web2py-menu\\\').superfish({delay:400});});\\n    </script>\\n    </div>\\n   </div>\\n   <!-- end header -->\\n  </div>\\n  <!-- start page -->\\n  <div id="page">\\n   <!-- start content -->\\n   <div id="content">\\n    <div class="flash">\', escape=False)'
p3420
sI48
S"response.write(response.flash or '')"
p3421
sI49
S"response.write('</div>\\n     \\n\\t ', escape=False)"
p3422
sI50
S"response.write('\\n\\n<h2>Cobros</h2>\\n<hr/>\\n</br>\\n', escape=False)"
p3423
sI51
S'response.write(plugin_jqgrid(db.fc_cobro,cold_width=[80,20,80,120]))'
p3424
sI52
S"response.write('\\n\\n', escape=False)"
p3425
sI53
S"if 'grid' in globals():"
p3426
sI54
S"    response.write('\\n', escape=False)"
p3427
sI55
S'    response.write(grid)'
p3428
sI56
S"    response.write('\\n\\n', escape=False)"
p3429
sI57
S'else:'
p3430
sI58
S"    response.write('\\n\\n', escape=False)"
p3431
sI59
S'    pass'
p3432
sI60
S"response.write('\\n', escape=False)"
p3433
sI61
S'response.write(\'\\n\\t \\n\\t\\n   </div>\\n   <!-- end content -->\\n   <!-- start sidebar -\\n   <div id="sidebar">\\n    <ul>\\n     <li id="search">\\n      <h2>\\n       Search\\n      </h2>\\n      <form method="get" action="">\\n       <fieldset>\\n        <input type="text" id="s" name="s" value="" />\\n        <input type="submit" id="x" value="Search" />\\n       </fieldset>\\n      </form>\\n     </li>\\n     <li>\\n      <h2>\\n       Lorem Ipsum\\n      </h2>\\n      <ul>\\n       <li>\\n        <a href="#">\\n         Fusce dui neque fringilla\\n        </a>\\n       </li>\\n       <li>\\n        <a href="#">\\n         Eget tempor eget nonummy\\n        </a>\\n       </li>\\n       <li>\\n        <a href="#">\\n         Magna lacus bibendum mauris\\n        </a>\\n       </li>\\n       <li>\\n        <a href="#">\\n         Nec metus sed donec\\n        </a>\\n       </li>\\n       <li>\\n        <a href="#">\\n         Magna lacus bibendum mauris\\n        </a>\\n       </li>\\n       <li>\\n        <a href="#">\\n         Velit semper nisi molestie\\n        </a>\\n       </li>\\n       <li>\\n        <a href="#">\\n         Eget tempor eget nonummy\\n        </a>\\n       </li>\\n      </ul>\\n     </li>\\n     <li>\\n      <h2>\\n       Volutpat Dolore\\n      </h2>\\n      <ul>\\n       <li>\\n        <a href="#">\\n         Nec metus sed donec\\n        </a>\\n       </li>\\n       <li>\\n        <a href="#">\\n         Magna lacus bibendum mauris\\n        </a>\\n       </li>\\n       <li>\\n        <a href="#">\\n         Velit semper nisi molestie\\n        </a>\\n       </li>\\n       <li>\\n        <a href="#">\\n         Eget tempor eget nonummy\\n        </a>\\n       </li>\\n       <li>\\n        <a href="#">\\n         Nec metus sed donec\\n        </a>\\n       </li>\\n       <li>\\n        <a href="#">\\n         Magna lacus bibendum mauris\\n        </a>\\n       </li>\\n       <li>\\n        <a href="#">\\n         Velit semper nisi molestie\\n        </a>\\n       </li>\\n      </ul>\\n     </li>\\n    </ul>\\n   </div>\\n    end sidebar -->\\n   <div style="clear: both;">\\n    &nbsp;\\n   </div>\\n  </div>\\n  <!-- end page -->\\n  <!-- start footer -->\\n  <div id="footer">\\n   <p id="legal">\\n    ( c ) 2008. All Rights Reserved.\\n    <a href="http://www.freecsstemplates.org/">\\n     Bestfriends\\n    </a>\\n    designed by\\n    <a href="http://www.freecsstemplates.org/">\\n     Free CSS Templates\\n    </a>\\n    .\\n   </p>\\n  </div>\\n  <!-- end footer -->\\n </body>\\n</html>\\n\', escape=False)'
p3434
ssg3407
S'()'
p3435
sg3409
S'<module>'
p3436
sasS'pyver'
p3437
S'Python 2.7.3: /usr/bin/python'
p3438
sS'session'
p3439
g57
(g58
g59
NtRp3440
(dp3441
g62
(dp3442
sg64
(lp3443
g57
(g66
g59
NtRp3444
(dp3445
g62
(dp3446
g70
I5
ssg71
Nsg64
(lp3447
g57
(g73
g59
NtRp3448
(dp3449
g62
(dp3450
sg71
g3444
sg64
(lp3451
g57
(g78
g59
NtRp3452
(dp3453
g62
(dp3454
g82
g83
ssg71
g3448
sg64
(lp3455
S'auth'
p3456
asbag57
(g78
g59
NtRp3457
(dp3458
g62
(dp3459
g89
g90
ssg71
g3448
sg64
(lp3460
S':'
asbag57
(g78
g59
NtRp3461
(dp3462
g62
(dp3463
sg71
g3448
sg64
(lp3464
g57
(g58
g59
NtRp3465
(dp3466
g62
(dp3467
g70
I5
ssg71
g3461
sg64
(lp3468
g57
(g66
g59
NtRp3469
(dp3470
g62
(dp3471
g70
I4
ssg71
Nsg64
(lp3472
g57
(g73
g59
NtRp3473
(dp3474
g62
(dp3475
sg71
g3469
sg64
(lp3476
g57
(g78
g59
NtRp3477
(dp3478
g62
(dp3479
g82
g83
ssg71
g3473
sg64
(lp3480
S'expiration'
p3481
asbag57
(g78
g59
NtRp3482
(dp3483
g62
(dp3484
g89
g90
ssg71
g3473
sg64
(lp3485
S':'
asbag57
(g78
g59
NtRp3486
(dp3487
g62
(dp3488
sg71
g3473
sg64
(lp3489
g57
(g58
g59
NtRp3490
(dp3491
g62
(dp3492
g70
I4
ssg71
g3486
sg64
(lp3493
S'3600'
p3494
asbasbasbag57
(g73
g59
NtRp3495
(dp3496
g62
(dp3497
sg71
g3469
sg64
(lp3498
g57
(g78
g59
NtRp3499
(dp3500
g62
(dp3501
g82
g83
ssg71
g3495
sg64
(lp3502
S'hmac_key'
p3503
asbag57
(g78
g59
NtRp3504
(dp3505
g62
(dp3506
g89
g90
ssg71
g3495
sg64
(lp3507
S':'
asbag57
(g78
g59
NtRp3508
(dp3509
g62
(dp3510
sg71
g3495
sg64
(lp3511
g57
(g58
g59
NtRp3512
(dp3513
g62
(dp3514
g70
I4
ssg71
g3508
sg64
(lp3515
S'059204bb-eb58-4383-b415-61021c7d1468'
p3516
asbasbasbag57
(g73
g59
NtRp3517
(dp3518
g62
(dp3519
sg71
g3469
sg64
(lp3520
g57
(g78
g59
NtRp3521
(dp3522
g62
(dp3523
g82
g83
ssg71
g3517
sg64
(lp3524
S'last_visit'
p3525
asbag57
(g78
g59
NtRp3526
(dp3527
g62
(dp3528
g89
g90
ssg71
g3517
sg64
(lp3529
S':'
asbag57
(g78
g59
NtRp3530
(dp3531
g62
(dp3532
sg71
g3517
sg64
(lp3533
g57
(g58
g59
NtRp3534
(dp3535
g62
(dp3536
g70
I4
ssg71
g3530
sg64
(lp3537
S'datetime.datetime(2013, 2, 7, 12, 9, 2, 823365)'
p3538
asbasbasbag57
(g73
g59
NtRp3539
(dp3540
g62
(dp3541
sg71
g3469
sg64
(lp3542
g57
(g78
g59
NtRp3543
(dp3544
g62
(dp3545
g82
g83
ssg71
g3539
sg64
(lp3546
S'remember'
p3547
asbag57
(g78
g59
NtRp3548
(dp3549
g62
(dp3550
g89
g90
ssg71
g3539
sg64
(lp3551
S':'
asbag57
(g78
g59
NtRp3552
(dp3553
g62
(dp3554
sg71
g3539
sg64
(lp3555
g57
(g58
g59
NtRp3556
(dp3557
g62
(dp3558
g70
I4
ssg71
g3552
sg64
(lp3559
g100
asbasbasbag57
(g73
g59
NtRp3560
(dp3561
g62
(dp3562
sg71
g3469
sg64
(lp3563
g57
(g78
g59
NtRp3564
(dp3565
g62
(dp3566
g82
g83
ssg71
g3560
sg64
(lp3567
S'user'
p3568
asbag57
(g78
g59
NtRp3569
(dp3570
g62
(dp3571
g89
g90
ssg71
g3560
sg64
(lp3572
S':'
asbag57
(g78
g59
NtRp3573
(dp3574
g62
(dp3575
sg71
g3560
sg64
(lp3576
g57
(g58
g59
NtRp3577
(dp3578
g62
(dp3579
g70
I4
ssg71
g3573
sg64
(lp3580
g57
(g66
g59
NtRp3581
(dp3582
g62
(dp3583
g70
I3
ssg71
Nsg64
(lp3584
g57
(g73
g59
NtRp3585
(dp3586
g62
(dp3587
sg71
g3581
sg64
(lp3588
g57
(g78
g59
NtRp3589
(dp3590
g62
(dp3591
g82
g83
ssg71
g3585
sg64
(lp3592
S'created_on'
p3593
asbag57
(g78
g59
NtRp3594
(dp3595
g62
(dp3596
g89
g90
ssg71
g3585
sg64
(lp3597
S':'
asbag57
(g78
g59
NtRp3598
(dp3599
g62
(dp3600
sg71
g3585
sg64
(lp3601
g57
(g58
g59
NtRp3602
(dp3603
g62
(dp3604
g70
I3
ssg71
g3598
sg64
(lp3605
S'datetime.datetime(2011, 12, 7, 8, 57, 36)'
p3606
asbasbasbag57
(g73
g59
NtRp3607
(dp3608
g62
(dp3609
sg71
g3581
sg64
(lp3610
g57
(g78
g59
NtRp3611
(dp3612
g62
(dp3613
g82
g83
ssg71
g3607
sg64
(lp3614
S'email'
p3615
asbag57
(g78
g59
NtRp3616
(dp3617
g62
(dp3618
g89
g90
ssg71
g3607
sg64
(lp3619
S':'
asbag57
(g78
g59
NtRp3620
(dp3621
g62
(dp3622
sg71
g3607
sg64
(lp3623
g57
(g58
g59
NtRp3624
(dp3625
g62
(dp3626
g70
I3
ssg71
g3620
sg64
(lp3627
S'wasuaje@yahoo.com'
p3628
asbasbasbag57
(g73
g59
NtRp3629
(dp3630
g62
(dp3631
sg71
g3581
sg64
(lp3632
g57
(g78
g59
NtRp3633
(dp3634
g62
(dp3635
g82
g83
ssg71
g3629
sg64
(lp3636
S'first_name'
p3637
asbag57
(g78
g59
NtRp3638
(dp3639
g62
(dp3640
g89
g90
ssg71
g3629
sg64
(lp3641
S':'
asbag57
(g78
g59
NtRp3642
(dp3643
g62
(dp3644
sg71
g3629
sg64
(lp3645
g57
(g58
g59
NtRp3646
(dp3647
g62
(dp3648
g70
I3
ssg71
g3642
sg64
(lp3649
S'Alexis'
p3650
asbasbasbag57
(g73
g59
NtRp3651
(dp3652
g62
(dp3653
sg71
g3581
sg64
(lp3654
g57
(g78
g59
NtRp3655
(dp3656
g62
(dp3657
g82
g83
ssg71
g3651
sg64
(lp3658
S'id'
p3659
asbag57
(g78
g59
NtRp3660
(dp3661
g62
(dp3662
g89
g90
ssg71
g3651
sg64
(lp3663
S':'
asbag57
(g78
g59
NtRp3664
(dp3665
g62
(dp3666
sg71
g3651
sg64
(lp3667
g57
(g58
g59
NtRp3668
(dp3669
g62
(dp3670
g70
I3
ssg71
g3664
sg64
(lp3671
S'2'
asbasbasbag57
(g73
g59
NtRp3672
(dp3673
g62
(dp3674
sg71
g3581
sg64
(lp3675
g57
(g78
g59
NtRp3676
(dp3677
g62
(dp3678
g82
g83
ssg71
g3672
sg64
(lp3679
S'last_name'
p3680
asbag57
(g78
g59
NtRp3681
(dp3682
g62
(dp3683
g89
g90
ssg71
g3672
sg64
(lp3684
S':'
asbag57
(g78
g59
NtRp3685
(dp3686
g62
(dp3687
sg71
g3672
sg64
(lp3688
g57
(g58
g59
NtRp3689
(dp3690
g62
(dp3691
g70
I3
ssg71
g3685
sg64
(lp3692
S'Asuaje'
p3693
asbasbasbag57
(g73
g59
NtRp3694
(dp3695
g62
(dp3696
sg71
g3581
sg64
(lp3697
g57
(g78
g59
NtRp3698
(dp3699
g62
(dp3700
g82
g83
ssg71
g3694
sg64
(lp3701
S'modified_on'
p3702
asbag57
(g78
g59
NtRp3703
(dp3704
g62
(dp3705
g89
g90
ssg71
g3694
sg64
(lp3706
S':'
asbag57
(g78
g59
NtRp3707
(dp3708
g62
(dp3709
sg71
g3694
sg64
(lp3710
g57
(g58
g59
NtRp3711
(dp3712
g62
(dp3713
g70
I3
ssg71
g3707
sg64
(lp3714
S'datetime.datetime(2011, 12, 7, 8, 57, 54)'
p3715
asbasbasbag57
(g73
g59
NtRp3716
(dp3717
g62
(dp3718
sg71
g3581
sg64
(lp3719
g57
(g78
g59
NtRp3720
(dp3721
g62
(dp3722
g82
g83
ssg71
g3716
sg64
(lp3723
S'registration_id'
p3724
asbag57
(g78
g59
NtRp3725
(dp3726
g62
(dp3727
g89
g90
ssg71
g3716
sg64
(lp3728
S':'
asbag57
(g78
g59
NtRp3729
(dp3730
g62
(dp3731
sg71
g3716
sg64
(lp3732
g57
(g58
g59
NtRp3733
(dp3734
g62
(dp3735
g70
I3
ssg71
g3729
sg64
(lp3736
S''
asbasbasbag57
(g73
g59
NtRp3737
(dp3738
g62
(dp3739
sg71
g3581
sg64
(lp3740
g57
(g78
g59
NtRp3741
(dp3742
g62
(dp3743
g82
g83
ssg71
g3737
sg64
(lp3744
S'registration_key'
p3745
asbag57
(g78
g59
NtRp3746
(dp3747
g62
(dp3748
g89
g90
ssg71
g3737
sg64
(lp3749
S':'
asbag57
(g78
g59
NtRp3750
(dp3751
g62
(dp3752
sg71
g3737
sg64
(lp3753
g57
(g58
g59
NtRp3754
(dp3755
g62
(dp3756
g70
I3
ssg71
g3750
sg64
(lp3757
S''
asbasbasbag57
(g73
g59
NtRp3758
(dp3759
g62
(dp3760
sg71
g3581
sg64
(lp3761
g57
(g78
g59
NtRp3762
(dp3763
g62
(dp3764
g82
g83
ssg71
g3758
sg64
(lp3765
S'reset_password_key'
p3766
asbag57
(g78
g59
NtRp3767
(dp3768
g62
(dp3769
g89
g90
ssg71
g3758
sg64
(lp3770
S':'
asbag57
(g78
g59
NtRp3771
(dp3772
g62
(dp3773
sg71
g3758
sg64
(lp3774
g57
(g58
g59
NtRp3775
(dp3776
g62
(dp3777
g70
I3
ssg71
g3771
sg64
(lp3778
S''
asbasbasbag57
(g73
g59
NtRp3779
(dp3780
g62
(dp3781
sg71
g3581
sg64
(lp3782
g57
(g78
g59
NtRp3783
(dp3784
g62
(dp3785
g82
g83
ssg71
g3779
sg64
(lp3786
S'username'
p3787
asbag57
(g78
g59
NtRp3788
(dp3789
g62
(dp3790
g89
g90
ssg71
g3779
sg64
(lp3791
S':'
asbag57
(g78
g59
NtRp3792
(dp3793
g62
(dp3794
sg71
g3779
sg64
(lp3795
g57
(g58
g59
NtRp3796
(dp3797
g62
(dp3798
g70
I3
ssg71
g3792
sg64
(lp3799
S'alexis'
p3800
asbasbasbasbasbasbasbag57
(g73
g59
NtRp3801
(dp3802
g62
(dp3803
sg71
g3469
sg64
(lp3804
g57
(g78
g59
NtRp3805
(dp3806
g62
(dp3807
g82
g83
ssg71
g3801
sg64
(lp3808
S'user_groups'
p3809
asbag57
(g78
g59
NtRp3810
(dp3811
g62
(dp3812
g89
g90
ssg71
g3801
sg64
(lp3813
S':'
asbag57
(g78
g59
NtRp3814
(dp3815
g62
(dp3816
sg71
g3801
sg64
(lp3817
g57
(g58
g59
NtRp3818
(dp3819
g62
(dp3820
g70
I4
ssg71
g3814
sg64
(lp3821
g57
(g66
g59
NtRp3822
(dp3823
g62
(dp3824
g70
I3
ssg71
Nsg64
(lp3825
g57
(g73
g59
NtRp3826
(dp3827
g62
(dp3828
sg71
g3822
sg64
(lp3829
g57
(g78
g59
NtRp3830
(dp3831
g62
(dp3832
g82
g83
ssg71
g3826
sg64
(lp3833
S'2'
asbag57
(g78
g59
NtRp3834
(dp3835
g62
(dp3836
g89
g90
ssg71
g3826
sg64
(lp3837
S':'
asbag57
(g78
g59
NtRp3838
(dp3839
g62
(dp3840
sg71
g3826
sg64
(lp3841
g57
(g58
g59
NtRp3842
(dp3843
g62
(dp3844
g70
I3
ssg71
g3838
sg64
(lp3845
S'Operator'
p3846
asbasbasbasbasbasbasbasbasbasbasbag57
(g73
g59
NtRp3847
(dp3848
g62
(dp3849
sg71
g3444
sg64
(lp3850
g57
(g78
g59
NtRp3851
(dp3852
g62
(dp3853
g82
g83
ssg71
g3847
sg64
(lp3854
S'flash'
p3855
asbag57
(g78
g59
NtRp3856
(dp3857
g62
(dp3858
g89
g90
ssg71
g3847
sg64
(lp3859
S':'
asbag57
(g78
g59
NtRp3860
(dp3861
g62
(dp3862
sg71
g3847
sg64
(lp3863
g57
(g58
g59
NtRp3864
(dp3865
g62
(dp3866
g70
I5
ssg71
g3860
sg64
(lp3867
S'None'
p3868
asbasbasbasbasbsS'etype'
p3869
S"<type 'exceptions.TypeError'>"
p3870
sS'date'
p3871
S'Thu Feb  7 12:09:02 2013'
p3872
sS'response'
p3873
g57
(g58
g59
NtRp3874
(dp3875
g62
(dp3876
sg64
(lp3877
g57
(g66
g59
NtRp3878
(dp3879
g62
(dp3880
g70
I5
ssg71
Nsg64
(lp3881
g57
(g73
g59
NtRp3882
(dp3883
g62
(dp3884
sg71
g3878
sg64
(lp3885
g57
(g78
g59
NtRp3886
(dp3887
g62
(dp3888
g82
g83
ssg71
g3882
sg64
(lp3889
g155
asbag57
(g78
g59
NtRp3890
(dp3891
g62
(dp3892
g89
g90
ssg71
g3882
sg64
(lp3893
S':'
asbag57
(g78
g59
NtRp3894
(dp3895
g62
(dp3896
sg71
g3882
sg64
(lp3897
g57
(g58
g59
NtRp3898
(dp3899
g62
(dp3900
g70
I5
ssg71
g3894
sg64
(lp3901
S'<cStringIO.StringO object at 0xada76900>'
p3902
asbasbasbag57
(g73
g59
NtRp3903
(dp3904
g62
(dp3905
sg71
g3878
sg64
(lp3906
g57
(g78
g59
NtRp3907
(dp3908
g62
(dp3909
g82
g83
ssg71
g3903
sg64
(lp3910
g243
asbag57
(g78
g59
NtRp3911
(dp3912
g62
(dp3913
g89
g90
ssg71
g3903
sg64
(lp3914
S':'
asbag57
(g78
g59
NtRp3915
(dp3916
g62
(dp3917
sg71
g3903
sg64
(lp3918
g57
(g58
g59
NtRp3919
(dp3920
g62
(dp3921
g70
I5
ssg71
g3915
sg64
(lp3922
g57
(g66
g59
NtRp3923
(dp3924
g62
(dp3925
g70
I4
ssg71
Nsg64
(lp3926
g57
(g73
g59
NtRp3927
(dp3928
g62
(dp3929
sg71
g3923
sg64
(lp3930
g57
(g78
g59
NtRp3931
(dp3932
g62
(dp3933
g82
g83
ssg71
g3927
sg64
(lp3934
S'session_id_flota'
p3935
asbag57
(g78
g59
NtRp3936
(dp3937
g62
(dp3938
g89
g90
ssg71
g3927
sg64
(lp3939
S':'
asbag57
(g78
g59
NtRp3940
(dp3941
g62
(dp3942
sg71
g3927
sg64
(lp3943
g57
(g58
g59
NtRp3944
(dp3945
g62
(dp3946
g70
I4
ssg71
g3940
sg64
(lp3947
g475
ag57
(g66
g59
NtRp3948
(dp3949
g62
(dp3950
g70
I3
ssg71
Nsg64
(lp3951
g57
(g73
g59
NtRp3952
(dp3953
g62
(dp3954
sg71
g3948
sg64
(lp3955
g57
(g78
g59
NtRp3956
(dp3957
g62
(dp3958
g82
g83
ssg71
g3952
sg64
(lp3959
g294
asbag57
(g78
g59
NtRp3960
(dp3961
g62
(dp3962
g89
g90
ssg71
g3952
sg64
(lp3963
S':'
asbag57
(g78
g59
NtRp3964
(dp3965
g62
(dp3966
sg71
g3952
sg64
(lp3967
g57
(g58
g59
NtRp3968
(dp3969
g62
(dp3970
g70
I3
ssg71
g3964
sg64
(lp3971
S''
asbasbasbag57
(g73
g59
NtRp3972
(dp3973
g62
(dp3974
sg71
g3948
sg64
(lp3975
g57
(g78
g59
NtRp3976
(dp3977
g62
(dp3978
g82
g83
ssg71
g3972
sg64
(lp3979
g315
asbag57
(g78
g59
NtRp3980
(dp3981
g62
(dp3982
g89
g90
ssg71
g3972
sg64
(lp3983
S':'
asbag57
(g78
g59
NtRp3984
(dp3985
g62
(dp3986
sg71
g3972
sg64
(lp3987
g57
(g58
g59
NtRp3988
(dp3989
g62
(dp3990
g70
I3
ssg71
g3984
sg64
(lp3991
S''
asbasbasbag57
(g73
g59
NtRp3992
(dp3993
g62
(dp3994
sg71
g3948
sg64
(lp3995
g57
(g78
g59
NtRp3996
(dp3997
g62
(dp3998
g82
g83
ssg71
g3992
sg64
(lp3999
g336
asbag57
(g78
g59
NtRp4000
(dp4001
g62
(dp4002
g89
g90
ssg71
g3992
sg64
(lp4003
S':'
asbag57
(g78
g59
NtRp4004
(dp4005
g62
(dp4006
sg71
g3992
sg64
(lp4007
g57
(g58
g59
NtRp4008
(dp4009
g62
(dp4010
g70
I3
ssg71
g4004
sg64
(lp4011
S''
asbasbasbag57
(g73
g59
NtRp4012
(dp4013
g62
(dp4014
sg71
g3948
sg64
(lp4015
g57
(g78
g59
NtRp4016
(dp4017
g62
(dp4018
g82
g83
ssg71
g4012
sg64
(lp4019
g357
asbag57
(g78
g59
NtRp4020
(dp4021
g62
(dp4022
g89
g90
ssg71
g4012
sg64
(lp4023
S':'
asbag57
(g78
g59
NtRp4024
(dp4025
g62
(dp4026
sg71
g4012
sg64
(lp4027
g57
(g58
g59
NtRp4028
(dp4029
g62
(dp4030
g70
I3
ssg71
g4024
sg64
(lp4031
S''
asbasbasbag57
(g73
g59
NtRp4032
(dp4033
g62
(dp4034
sg71
g3948
sg64
(lp4035
g57
(g78
g59
NtRp4036
(dp4037
g62
(dp4038
g82
g83
ssg71
g4032
sg64
(lp4039
g378
asbag57
(g78
g59
NtRp4040
(dp4041
g62
(dp4042
g89
g90
ssg71
g4032
sg64
(lp4043
S':'
asbag57
(g78
g59
NtRp4044
(dp4045
g62
(dp4046
sg71
g4032
sg64
(lp4047
g57
(g58
g59
NtRp4048
(dp4049
g62
(dp4050
g70
I3
ssg71
g4044
sg64
(lp4051
S''
asbasbasbag57
(g73
g59
NtRp4052
(dp4053
g62
(dp4054
sg71
g3948
sg64
(lp4055
g57
(g78
g59
NtRp4056
(dp4057
g62
(dp4058
g82
g83
ssg71
g4052
sg64
(lp4059
g399
asbag57
(g78
g59
NtRp4060
(dp4061
g62
(dp4062
g89
g90
ssg71
g4052
sg64
(lp4063
S':'
asbag57
(g78
g59
NtRp4064
(dp4065
g62
(dp4066
sg71
g4052
sg64
(lp4067
g57
(g58
g59
NtRp4068
(dp4069
g62
(dp4070
g70
I3
ssg71
g4064
sg64
(lp4071
S'/'
asbasbasbag57
(g73
g59
NtRp4072
(dp4073
g62
(dp4074
sg71
g3948
sg64
(lp4075
g57
(g78
g59
NtRp4076
(dp4077
g62
(dp4078
g82
g83
ssg71
g4072
sg64
(lp4079
g420
asbag57
(g78
g59
NtRp4080
(dp4081
g62
(dp4082
g89
g90
ssg71
g4072
sg64
(lp4083
S':'
asbag57
(g78
g59
NtRp4084
(dp4085
g62
(dp4086
sg71
g4072
sg64
(lp4087
g57
(g58
g59
NtRp4088
(dp4089
g62
(dp4090
g70
I3
ssg71
g4084
sg64
(lp4091
S''
asbasbasbag57
(g73
g59
NtRp4092
(dp4093
g62
(dp4094
sg71
g3948
sg64
(lp4095
g57
(g78
g59
NtRp4096
(dp4097
g62
(dp4098
g82
g83
ssg71
g4092
sg64
(lp4099
g441
asbag57
(g78
g59
NtRp4100
(dp4101
g62
(dp4102
g89
g90
ssg71
g4092
sg64
(lp4103
S':'
asbag57
(g78
g59
NtRp4104
(dp4105
g62
(dp4106
sg71
g4092
sg64
(lp4107
g57
(g58
g59
NtRp4108
(dp4109
g62
(dp4110
g70
I3
ssg71
g4104
sg64
(lp4111
S''
asbasbasbasbasbasbasbasbasbasbasbag57
(g73
g59
NtRp4112
(dp4113
g62
(dp4114
sg71
g3878
sg64
(lp4115
g57
(g78
g59
NtRp4116
(dp4117
g62
(dp4118
g82
g83
ssg71
g4112
sg64
(lp4119
S'delimiters'
p4120
asbag57
(g78
g59
NtRp4121
(dp4122
g62
(dp4123
g89
g90
ssg71
g4112
sg64
(lp4124
S':'
asbag57
(g78
g59
NtRp4125
(dp4126
g62
(dp4127
sg71
g4112
sg64
(lp4128
g57
(g58
g59
NtRp4129
(dp4130
g62
(dp4131
g70
I5
ssg71
g4125
sg64
(lp4132
g57
(g66
g59
NtRp4133
(dp4134
g62
(dp4135
g70
I4
ssg71
Nsg64
(lp4136
g57
(g73
g59
NtRp4137
(dp4138
g62
(dp4139
sg71
g4133
sg64
(lp4140
g57
(g78
g59
NtRp4141
(dp4142
g62
(dp4143
sg71
g4137
sg64
(lp4144
g57
(g58
g59
NtRp4145
(dp4146
g62
(dp4147
g70
I4
ssg71
g4141
sg64
(lp4148
S'{{'
p4149
asbasbasbag57
(g73
g59
NtRp4150
(dp4151
g62
(dp4152
sg71
g4133
sg64
(lp4153
g57
(g78
g59
NtRp4154
(dp4155
g62
(dp4156
sg71
g4150
sg64
(lp4157
g57
(g58
g59
NtRp4158
(dp4159
g62
(dp4160
g70
I4
ssg71
g4154
sg64
(lp4161
S'}}'
p4162
asbasbasbasbasbasbasbag57
(g73
g59
NtRp4163
(dp4164
g62
(dp4165
sg71
g3878
sg64
(lp4166
g57
(g78
g59
NtRp4167
(dp4168
g62
(dp4169
g82
g83
ssg71
g4163
sg64
(lp4170
S'files'
p4171
asbag57
(g78
g59
NtRp4172
(dp4173
g62
(dp4174
g89
g90
ssg71
g4163
sg64
(lp4175
S':'
asbag57
(g78
g59
NtRp4176
(dp4177
g62
(dp4178
sg71
g4163
sg64
(lp4179
g57
(g58
g59
NtRp4180
(dp4181
g62
(dp4182
g70
I5
ssg71
g4176
sg64
(lp4183
g57
(g66
g59
NtRp4184
(dp4185
g62
(dp4186
g70
I4
ssg71
Nsg64
(lp4187
g57
(g73
g59
NtRp4188
(dp4189
g62
(dp4190
sg71
g4184
sg64
(lp4191
g57
(g78
g59
NtRp4192
(dp4193
g62
(dp4194
sg71
g4188
sg64
(lp4195
g57
(g58
g59
NtRp4196
(dp4197
g62
(dp4198
g70
I4
ssg71
g4192
sg64
(lp4199
S'/flota/static/js/jquery.js'
p4200
asbasbasbag57
(g73
g59
NtRp4201
(dp4202
g62
(dp4203
sg71
g4184
sg64
(lp4204
g57
(g78
g59
NtRp4205
(dp4206
g62
(dp4207
sg71
g4201
sg64
(lp4208
g57
(g58
g59
NtRp4209
(dp4210
g62
(dp4211
g70
I4
ssg71
g4205
sg64
(lp4212
S'/flota/static/css/calendar.css'
p4213
asbasbasbag57
(g73
g59
NtRp4214
(dp4215
g62
(dp4216
sg71
g4184
sg64
(lp4217
g57
(g78
g59
NtRp4218
(dp4219
g62
(dp4220
sg71
g4214
sg64
(lp4221
g57
(g58
g59
NtRp4222
(dp4223
g62
(dp4224
g70
I4
ssg71
g4218
sg64
(lp4225
S'/flota/static/js/calendar.js'
p4226
asbasbasbag57
(g73
g59
NtRp4227
(dp4228
g62
(dp4229
sg71
g4184
sg64
(lp4230
g57
(g78
g59
NtRp4231
(dp4232
g62
(dp4233
sg71
g4227
sg64
(lp4234
g57
(g58
g59
NtRp4235
(dp4236
g62
(dp4237
g70
I4
ssg71
g4231
sg64
(lp4238
S'/flota/static/jquery-autocomplete/jquery.autocomplete.js'
p4239
asbasbasbag57
(g73
g59
NtRp4240
(dp4241
g62
(dp4242
sg71
g4184
sg64
(lp4243
g57
(g78
g59
NtRp4244
(dp4245
g62
(dp4246
sg71
g4240
sg64
(lp4247
g57
(g58
g59
NtRp4248
(dp4249
g62
(dp4250
g70
I4
ssg71
g4244
sg64
(lp4251
S'/flota/static/jquery-autocomplete/jquery.autocomplete.css'
p4252
asbasbasbag57
(g73
g59
NtRp4253
(dp4254
g62
(dp4255
sg71
g4184
sg64
(lp4256
g57
(g78
g59
NtRp4257
(dp4258
g62
(dp4259
sg71
g4253
sg64
(lp4260
g57
(g58
g59
NtRp4261
(dp4262
g62
(dp4263
g70
I4
ssg71
g4257
sg64
(lp4264
S'/flota/static/plugin_datatable/jquery.dataTables.min.js'
p4265
asbasbasbag57
(g73
g59
NtRp4266
(dp4267
g62
(dp4268
sg71
g4184
sg64
(lp4269
g57
(g78
g59
NtRp4270
(dp4271
g62
(dp4272
sg71
g4266
sg64
(lp4273
g57
(g58
g59
NtRp4274
(dp4275
g62
(dp4276
g70
I4
ssg71
g4270
sg64
(lp4277
S'/flota/static/plugin_datatable/jquery.dataTables.css'
p4278
asbasbasbag57
(g73
g59
NtRp4279
(dp4280
g62
(dp4281
sg71
g4184
sg64
(lp4282
g57
(g78
g59
NtRp4283
(dp4284
g62
(dp4285
sg71
g4279
sg64
(lp4286
g57
(g58
g59
NtRp4287
(dp4288
g62
(dp4289
g70
I4
ssg71
g4283
sg64
(lp4290
S'/flota/static/plugin_jqgrid/ui.jqgrid.css'
p4291
asbasbasbag57
(g73
g59
NtRp4292
(dp4293
g62
(dp4294
sg71
g4184
sg64
(lp4295
g57
(g78
g59
NtRp4296
(dp4297
g62
(dp4298
sg71
g4292
sg64
(lp4299
g57
(g58
g59
NtRp4300
(dp4301
g62
(dp4302
g70
I4
ssg71
g4296
sg64
(lp4303
S'/flota/static/plugin_jqgrid/ui-darkness/jquery-ui-1.8.1.custom.css'
p4304
asbasbasbag57
(g73
g59
NtRp4305
(dp4306
g62
(dp4307
sg71
g4184
sg64
(lp4308
g57
(g78
g59
NtRp4309
(dp4310
g62
(dp4311
sg71
g4305
sg64
(lp4312
g57
(g58
g59
NtRp4313
(dp4314
g62
(dp4315
g70
I4
ssg71
g4309
sg64
(lp4316
S'/flota/static/plugin_jqgrid/jquery-ui-1.7.2.custom.min.js'
p4317
asbasbasbag57
(g73
g59
NtRp4318
(dp4319
g62
(dp4320
sg71
g4184
sg64
(lp4321
g57
(g78
g59
NtRp4322
(dp4323
g62
(dp4324
sg71
g4318
sg64
(lp4325
g57
(g58
g59
NtRp4326
(dp4327
g62
(dp4328
g70
I4
ssg71
g4322
sg64
(lp4329
S'/flota/static/plugin_jqgrid/i18n/grid.locale-en.js'
p4330
asbasbasbag57
(g73
g59
NtRp4331
(dp4332
g62
(dp4333
sg71
g4184
sg64
(lp4334
g57
(g78
g59
NtRp4335
(dp4336
g62
(dp4337
sg71
g4331
sg64
(lp4338
g57
(g58
g59
NtRp4339
(dp4340
g62
(dp4341
g70
I4
ssg71
g4335
sg64
(lp4342
S'/flota/static/plugin_jqgrid/jquery.jqGrid.min.js'
p4343
asbasbasbag57
(g73
g59
NtRp4344
(dp4345
g62
(dp4346
sg71
g4184
sg64
(lp4347
g57
(g78
g59
NtRp4348
(dp4349
g62
(dp4350
sg71
g4344
sg64
(lp4351
g57
(g58
g59
NtRp4352
(dp4353
g62
(dp4354
g70
I4
ssg71
g4348
sg64
(lp4355
S'/flota/static/plugin_jqgrid/ui.jqgrid.css'
p4356
asbasbasbag57
(g73
g59
NtRp4357
(dp4358
g62
(dp4359
sg71
g4184
sg64
(lp4360
g57
(g78
g59
NtRp4361
(dp4362
g62
(dp4363
sg71
g4357
sg64
(lp4364
g57
(g58
g59
NtRp4365
(dp4366
g62
(dp4367
g70
I4
ssg71
g4361
sg64
(lp4368
S'/flota/static/plugin_jqgrid/ui-darkness/jquery-ui-1.8.1.custom.css'
p4369
asbasbasbag57
(g73
g59
NtRp4370
(dp4371
g62
(dp4372
sg71
g4184
sg64
(lp4373
g57
(g78
g59
NtRp4374
(dp4375
g62
(dp4376
sg71
g4370
sg64
(lp4377
g57
(g58
g59
NtRp4378
(dp4379
g62
(dp4380
g70
I4
ssg71
g4374
sg64
(lp4381
S'/flota/static/plugin_jqgrid/jquery-ui-1.7.2.custom.min.js'
p4382
asbasbasbag57
(g73
g59
NtRp4383
(dp4384
g62
(dp4385
sg71
g4184
sg64
(lp4386
g57
(g78
g59
NtRp4387
(dp4388
g62
(dp4389
sg71
g4383
sg64
(lp4390
g57
(g58
g59
NtRp4391
(dp4392
g62
(dp4393
g70
I4
ssg71
g4387
sg64
(lp4394
S'/flota/static/plugin_jqgrid/i18n/grid.locale-en.js'
p4395
asbasbasbag57
(g73
g59
NtRp4396
(dp4397
g62
(dp4398
sg71
g4184
sg64
(lp4399
g57
(g78
g59
NtRp4400
(dp4401
g62
(dp4402
sg71
g4396
sg64
(lp4403
g57
(g58
g59
NtRp4404
(dp4405
g62
(dp4406
g70
I4
ssg71
g4400
sg64
(lp4407
S'/flota/static/plugin_jqgrid/jquery.jqGrid.min.js'
p4408
asbasbasbag57
(g73
g59
NtRp4409
(dp4410
g62
(dp4411
sg71
g4184
sg64
(lp4412
g57
(g78
g59
NtRp4413
(dp4414
g62
(dp4415
sg71
g4409
sg64
(lp4416
g57
(g58
g59
NtRp4417
(dp4418
g62
(dp4419
g70
I4
ssg71
g4413
sg64
(lp4420
S'/flota/static/plugin_layouts/layouts/Squarely/default.css'
p4421
asbasbasbag57
(g73
g59
NtRp4422
(dp4423
g62
(dp4424
sg71
g4184
sg64
(lp4425
g57
(g78
g59
NtRp4426
(dp4427
g62
(dp4428
sg71
g4422
sg64
(lp4429
g57
(g58
g59
NtRp4430
(dp4431
g62
(dp4432
g70
I4
ssg71
g4426
sg64
(lp4433
S'/flota/static/plugin_layouts/superfish.js'
p4434
asbasbasbasbasbasbasbag57
(g73
g59
NtRp4435
(dp4436
g62
(dp4437
sg71
g3878
sg64
(lp4438
g57
(g78
g59
NtRp4439
(dp4440
g62
(dp4441
g82
g83
ssg71
g4435
sg64
(lp4442
S'flash'
p4443
asbag57
(g78
g59
NtRp4444
(dp4445
g62
(dp4446
g89
g90
ssg71
g4435
sg64
(lp4447
S':'
asbag57
(g78
g59
NtRp4448
(dp4449
g62
(dp4450
sg71
g4435
sg64
(lp4451
g57
(g58
g59
NtRp4452
(dp4453
g62
(dp4454
g70
I5
ssg71
g4448
sg64
(lp4455
S''
asbasbasbag57
(g73
g59
NtRp4456
(dp4457
g62
(dp4458
sg71
g3878
sg64
(lp4459
g57
(g78
g59
NtRp4460
(dp4461
g62
(dp4462
g82
g83
ssg71
g4456
sg64
(lp4463
S'generic_patterns'
p4464
asbag57
(g78
g59
NtRp4465
(dp4466
g62
(dp4467
g89
g90
ssg71
g4456
sg64
(lp4468
S':'
asbag57
(g78
g59
NtRp4469
(dp4470
g62
(dp4471
sg71
g4456
sg64
(lp4472
g57
(g58
g59
NtRp4473
(dp4474
g62
(dp4475
g70
I5
ssg71
g4469
sg64
(lp4476
g57
(g66
g59
NtRp4477
(dp4478
g62
(dp4479
g70
I4
ssg71
Nsg64
(lp4480
g57
(g73
g59
NtRp4481
(dp4482
g62
(dp4483
sg71
g4477
sg64
(lp4484
g57
(g78
g59
NtRp4485
(dp4486
g62
(dp4487
sg71
g4481
sg64
(lp4488
g57
(g58
g59
NtRp4489
(dp4490
g62
(dp4491
g70
I4
ssg71
g4485
sg64
(lp4492
S'*'
asbasbasbasbasbasbasbag57
(g73
g59
NtRp4493
(dp4494
g62
(dp4495
sg71
g3878
sg64
(lp4496
g57
(g78
g59
NtRp4497
(dp4498
g62
(dp4499
g82
g83
ssg71
g4493
sg64
(lp4500
S'headers'
p4501
asbag57
(g78
g59
NtRp4502
(dp4503
g62
(dp4504
g89
g90
ssg71
g4493
sg64
(lp4505
S':'
asbag57
(g78
g59
NtRp4506
(dp4507
g62
(dp4508
sg71
g4493
sg64
(lp4509
g57
(g58
g59
NtRp4510
(dp4511
g62
(dp4512
g70
I5
ssg71
g4506
sg64
(lp4513
g57
(g66
g59
NtRp4514
(dp4515
g62
(dp4516
g70
I4
ssg71
Nsg64
(lp4517
g57
(g73
g59
NtRp4518
(dp4519
g62
(dp4520
sg71
g4514
sg64
(lp4521
g57
(g78
g59
NtRp4522
(dp4523
g62
(dp4524
g82
g83
ssg71
g4518
sg64
(lp4525
S'X-Powered-By'
p4526
asbag57
(g78
g59
NtRp4527
(dp4528
g62
(dp4529
g89
g90
ssg71
g4518
sg64
(lp4530
S':'
asbag57
(g78
g59
NtRp4531
(dp4532
g62
(dp4533
sg71
g4518
sg64
(lp4534
g57
(g58
g59
NtRp4535
(dp4536
g62
(dp4537
g70
I4
ssg71
g4531
sg64
(lp4538
S'web2py'
p4539
asbasbasbasbasbasbasbag57
(g73
g59
NtRp4540
(dp4541
g62
(dp4542
sg71
g3878
sg64
(lp4543
g57
(g78
g59
NtRp4544
(dp4545
g62
(dp4546
g82
g83
ssg71
g4540
sg64
(lp4547
S'menu'
p4548
asbag57
(g78
g59
NtRp4549
(dp4550
g62
(dp4551
g89
g90
ssg71
g4540
sg64
(lp4552
S':'
asbag57
(g78
g59
NtRp4553
(dp4554
g62
(dp4555
sg71
g4540
sg64
(lp4556
g57
(g58
g59
NtRp4557
(dp4558
g62
(dp4559
g70
I5
ssg71
g4553
sg64
(lp4560
g57
(g66
g59
NtRp4561
(dp4562
g62
(dp4563
g70
I4
ssg71
Nsg64
(lp4564
g57
(g73
g59
NtRp4565
(dp4566
g62
(dp4567
sg71
g4561
sg64
(lp4568
g57
(g78
g59
NtRp4569
(dp4570
g62
(dp4571
sg71
g4565
sg64
(lp4572
g57
(g58
g59
NtRp4573
(dp4574
g62
(dp4575
g70
I4
ssg71
g4569
sg64
(lp4576
g57
(g66
g59
NtRp4577
(dp4578
g62
(dp4579
g70
I3
ssg71
Nsg64
(lp4580
g57
(g73
g59
NtRp4581
(dp4582
g62
(dp4583
sg71
g4577
sg64
(lp4584
g57
(g78
g59
NtRp4585
(dp4586
g62
(dp4587
sg71
g4581
sg64
(lp4588
g57
(g58
g59
NtRp4589
(dp4590
g62
(dp4591
g70
I3
ssg71
g4585
sg64
(lp4592
cgluon.languages
lazyT_unpickle
p4593
(S's\x06\x00\x00\x00Inicio'
tRp4594
asbasbasbag57
(g73
g59
NtRp4595
(dp4596
g62
(dp4597
sg71
g4577
sg64
(lp4598
g57
(g78
g59
NtRp4599
(dp4600
g62
(dp4601
sg71
g4595
sg64
(lp4602
g57
(g58
g59
NtRp4603
(dp4604
g62
(dp4605
g70
I3
ssg71
g4599
sg64
(lp4606
g100
asbasbasbag57
(g73
g59
NtRp4607
(dp4608
g62
(dp4609
sg71
g4577
sg64
(lp4610
g57
(g78
g59
NtRp4611
(dp4612
g62
(dp4613
sg71
g4607
sg64
(lp4614
g57
(g58
g59
NtRp4615
(dp4616
g62
(dp4617
g70
I3
ssg71
g4611
sg64
(lp4618
S'/flota/default/index'
p4619
asbasbasbag57
(g73
g59
NtRp4620
(dp4621
g62
(dp4622
sg71
g4577
sg64
(lp4623
g57
(g78
g59
NtRp4624
(dp4625
g62
(dp4626
sg71
g4620
sg64
(lp4627
g57
(g58
g59
NtRp4628
(dp4629
g62
(dp4630
g70
I3
ssg71
g4624
sg64
(lp4631
g57
(g66
g59
NtRp4632
(dp4633
g62
(dp4634
g70
I2
ssg71
Nsg64
(lp4635
sbasbasbasbasbasbasbasbag57
(g73
g59
NtRp4636
(dp4637
g62
(dp4638
sg71
g4561
sg64
(lp4639
g57
(g78
g59
NtRp4640
(dp4641
g62
(dp4642
sg71
g4636
sg64
(lp4643
g57
(g58
g59
NtRp4644
(dp4645
g62
(dp4646
g70
I4
ssg71
g4640
sg64
(lp4647
g57
(g66
g59
NtRp4648
(dp4649
g62
(dp4650
g70
I3
ssg71
Nsg64
(lp4651
g57
(g73
g59
NtRp4652
(dp4653
g62
(dp4654
sg71
g4648
sg64
(lp4655
g57
(g78
g59
NtRp4656
(dp4657
g62
(dp4658
sg71
g4652
sg64
(lp4659
g57
(g58
g59
NtRp4660
(dp4661
g62
(dp4662
g70
I3
ssg71
g4656
sg64
(lp4663
g4593
(S's\r\x00\x00\x00Configuracion'
tRp4664
asbasbasbag57
(g73
g59
NtRp4665
(dp4666
g62
(dp4667
sg71
g4648
sg64
(lp4668
g57
(g78
g59
NtRp4669
(dp4670
g62
(dp4671
sg71
g4665
sg64
(lp4672
g57
(g58
g59
NtRp4673
(dp4674
g62
(dp4675
g70
I3
ssg71
g4669
sg64
(lp4676
g100
asbasbasbag57
(g73
g59
NtRp4677
(dp4678
g62
(dp4679
sg71
g4648
sg64
(lp4680
g57
(g78
g59
NtRp4681
(dp4682
g62
(dp4683
sg71
g4677
sg64
(lp4684
g57
(g58
g59
NtRp4685
(dp4686
g62
(dp4687
g70
I3
ssg71
g4681
sg64
(lp4688
S'/flota/default/index'
p4689
asbasbasbag57
(g73
g59
NtRp4690
(dp4691
g62
(dp4692
sg71
g4648
sg64
(lp4693
g57
(g78
g59
NtRp4694
(dp4695
g62
(dp4696
sg71
g4690
sg64
(lp4697
g57
(g58
g59
NtRp4698
(dp4699
g62
(dp4700
g70
I3
ssg71
g4694
sg64
(lp4701
g57
(g66
g59
NtRp4702
(dp4703
g62
(dp4704
g70
I2
ssg71
Nsg64
(lp4705
g57
(g73
g59
NtRp4706
(dp4707
g62
(dp4708
sg71
g4702
sg64
(lp4709
g57
(g78
g59
NtRp4710
(dp4711
g62
(dp4712
sg71
g4706
sg64
(lp4713
g57
(g58
g59
NtRp4714
(dp4715
g62
(dp4716
g70
I2
ssg71
g4710
sg64
(lp4717
g57
(g66
g59
NtRp4718
(dp4719
g62
(dp4720
g70
I1
ssg71
Nsg64
(lp4721
g57
(g73
g59
NtRp4722
(dp4723
g62
(dp4724
sg71
g4718
sg64
(lp4725
g57
(g78
g59
NtRp4726
(dp4727
g62
(dp4728
sg71
g4722
sg64
(lp4729
g57
(g58
g59
NtRp4730
(dp4731
g62
(dp4732
g70
I1
ssg71
g4726
sg64
(lp4733
g4593
(S's\x06\x00\x00\x00Tablas'
tRp4734
asbasbasbag57
(g73
g59
NtRp4735
(dp4736
g62
(dp4737
sg71
g4718
sg64
(lp4738
g57
(g78
g59
NtRp4739
(dp4740
g62
(dp4741
sg71
g4735
sg64
(lp4742
g57
(g58
g59
NtRp4743
(dp4744
g62
(dp4745
g70
I1
ssg71
g4739
sg64
(lp4746
I00
asbasbasbag57
(g73
g59
NtRp4747
(dp4748
g62
(dp4749
sg71
g4718
sg64
(lp4750
g57
(g78
g59
NtRp4751
(dp4752
g62
(dp4753
sg71
g4747
sg64
(lp4754
g57
(g58
g59
NtRp4755
(dp4756
g62
(dp4757
g70
I1
ssg71
g4751
sg64
(lp4758
S'/flota/tablas/index'
p4759
asbasbasbasbasbasbasbag57
(g73
g59
NtRp4760
(dp4761
g62
(dp4762
sg71
g4702
sg64
(lp4763
g57
(g78
g59
NtRp4764
(dp4765
g62
(dp4766
sg71
g4760
sg64
(lp4767
g57
(g58
g59
NtRp4768
(dp4769
g62
(dp4770
g70
I2
ssg71
g4764
sg64
(lp4771
g57
(g66
g59
NtRp4772
(dp4773
g62
(dp4774
g70
I1
ssg71
Nsg64
(lp4775
g57
(g73
g59
NtRp4776
(dp4777
g62
(dp4778
sg71
g4772
sg64
(lp4779
g57
(g78
g59
NtRp4780
(dp4781
g62
(dp4782
sg71
g4776
sg64
(lp4783
g57
(g58
g59
NtRp4784
(dp4785
g62
(dp4786
g70
I1
ssg71
g4780
sg64
(lp4787
g4593
(S's\x08\x00\x00\x00Maestros'
tRp4788
asbasbasbag57
(g73
g59
NtRp4789
(dp4790
g62
(dp4791
sg71
g4772
sg64
(lp4792
g57
(g78
g59
NtRp4793
(dp4794
g62
(dp4795
sg71
g4789
sg64
(lp4796
g57
(g58
g59
NtRp4797
(dp4798
g62
(dp4799
g70
I1
ssg71
g4793
sg64
(lp4800
I00
asbasbasbag57
(g73
g59
NtRp4801
(dp4802
g62
(dp4803
sg71
g4772
sg64
(lp4804
g57
(g78
g59
NtRp4805
(dp4806
g62
(dp4807
sg71
g4801
sg64
(lp4808
g57
(g58
g59
NtRp4809
(dp4810
g62
(dp4811
g70
I1
ssg71
g4805
sg64
(lp4812
S'/flota/maestros/index'
p4813
asbasbasbasbasbasbasbasbasbasbasbasbasbasbasbag57
(g73
g59
NtRp4814
(dp4815
g62
(dp4816
sg71
g4561
sg64
(lp4817
g57
(g78
g59
NtRp4818
(dp4819
g62
(dp4820
sg71
g4814
sg64
(lp4821
g57
(g58
g59
NtRp4822
(dp4823
g62
(dp4824
g70
I4
ssg71
g4818
sg64
(lp4825
g57
(g66
g59
NtRp4826
(dp4827
g62
(dp4828
g70
I3
ssg71
Nsg64
(lp4829
g57
(g73
g59
NtRp4830
(dp4831
g62
(dp4832
sg71
g4826
sg64
(lp4833
g57
(g78
g59
NtRp4834
(dp4835
g62
(dp4836
sg71
g4830
sg64
(lp4837
g57
(g58
g59
NtRp4838
(dp4839
g62
(dp4840
g70
I3
ssg71
g4834
sg64
(lp4841
g4593
(S's\x06\x00\x00\x00Gastos'
tRp4842
asbasbasbag57
(g73
g59
NtRp4843
(dp4844
g62
(dp4845
sg71
g4826
sg64
(lp4846
g57
(g78
g59
NtRp4847
(dp4848
g62
(dp4849
sg71
g4843
sg64
(lp4850
g57
(g58
g59
NtRp4851
(dp4852
g62
(dp4853
g70
I3
ssg71
g4847
sg64
(lp4854
g100
asbasbasbag57
(g73
g59
NtRp4855
(dp4856
g62
(dp4857
sg71
g4826
sg64
(lp4858
g57
(g78
g59
NtRp4859
(dp4860
g62
(dp4861
sg71
g4855
sg64
(lp4862
g57
(g58
g59
NtRp4863
(dp4864
g62
(dp4865
g70
I3
ssg71
g4859
sg64
(lp4866
S'/flota/default/index'
p4867
asbasbasbag57
(g73
g59
NtRp4868
(dp4869
g62
(dp4870
sg71
g4826
sg64
(lp4871
g57
(g78
g59
NtRp4872
(dp4873
g62
(dp4874
sg71
g4868
sg64
(lp4875
g57
(g58
g59
NtRp4876
(dp4877
g62
(dp4878
g70
I3
ssg71
g4872
sg64
(lp4879
g57
(g66
g59
NtRp4880
(dp4881
g62
(dp4882
g70
I2
ssg71
Nsg64
(lp4883
g57
(g73
g59
NtRp4884
(dp4885
g62
(dp4886
sg71
g4880
sg64
(lp4887
g57
(g78
g59
NtRp4888
(dp4889
g62
(dp4890
sg71
g4884
sg64
(lp4891
g57
(g58
g59
NtRp4892
(dp4893
g62
(dp4894
g70
I2
ssg71
g4888
sg64
(lp4895
g57
(g66
g59
NtRp4896
(dp4897
g62
(dp4898
g70
I1
ssg71
Nsg64
(lp4899
g57
(g73
g59
NtRp4900
(dp4901
g62
(dp4902
sg71
g4896
sg64
(lp4903
g57
(g78
g59
NtRp4904
(dp4905
g62
(dp4906
sg71
g4900
sg64
(lp4907
g57
(g58
g59
NtRp4908
(dp4909
g62
(dp4910
g70
I1
ssg71
g4904
sg64
(lp4911
g4593
(S's\x08\x00\x00\x00Choferes'
tRp4912
asbasbasbag57
(g73
g59
NtRp4913
(dp4914
g62
(dp4915
sg71
g4896
sg64
(lp4916
g57
(g78
g59
NtRp4917
(dp4918
g62
(dp4919
sg71
g4913
sg64
(lp4920
g57
(g58
g59
NtRp4921
(dp4922
g62
(dp4923
g70
I1
ssg71
g4917
sg64
(lp4924
I00
asbasbasbag57
(g73
g59
NtRp4925
(dp4926
g62
(dp4927
sg71
g4896
sg64
(lp4928
g57
(g78
g59
NtRp4929
(dp4930
g62
(dp4931
sg71
g4925
sg64
(lp4932
g57
(g58
g59
NtRp4933
(dp4934
g62
(dp4935
g70
I1
ssg71
g4929
sg64
(lp4936
S'/flota/chofer/index'
p4937
asbasbasbasbasbasbasbag57
(g73
g59
NtRp4938
(dp4939
g62
(dp4940
sg71
g4880
sg64
(lp4941
g57
(g78
g59
NtRp4942
(dp4943
g62
(dp4944
sg71
g4938
sg64
(lp4945
g57
(g58
g59
NtRp4946
(dp4947
g62
(dp4948
g70
I2
ssg71
g4942
sg64
(lp4949
g57
(g66
g59
NtRp4950
(dp4951
g62
(dp4952
g70
I1
ssg71
Nsg64
(lp4953
g57
(g73
g59
NtRp4954
(dp4955
g62
(dp4956
sg71
g4950
sg64
(lp4957
g57
(g78
g59
NtRp4958
(dp4959
g62
(dp4960
sg71
g4954
sg64
(lp4961
g57
(g58
g59
NtRp4962
(dp4963
g62
(dp4964
g70
I1
ssg71
g4958
sg64
(lp4965
g4593
(S's\t\x00\x00\x00Vehiculos'
tRp4966
asbasbasbag57
(g73
g59
NtRp4967
(dp4968
g62
(dp4969
sg71
g4950
sg64
(lp4970
g57
(g78
g59
NtRp4971
(dp4972
g62
(dp4973
sg71
g4967
sg64
(lp4974
g57
(g58
g59
NtRp4975
(dp4976
g62
(dp4977
g70
I1
ssg71
g4971
sg64
(lp4978
I00
asbasbasbag57
(g73
g59
NtRp4979
(dp4980
g62
(dp4981
sg71
g4950
sg64
(lp4982
g57
(g78
g59
NtRp4983
(dp4984
g62
(dp4985
sg71
g4979
sg64
(lp4986
g57
(g58
g59
NtRp4987
(dp4988
g62
(dp4989
g70
I1
ssg71
g4983
sg64
(lp4990
S'/flota/vehiculo/index'
p4991
asbasbasbasbasbasbasbag57
(g73
g59
NtRp4992
(dp4993
g62
(dp4994
sg71
g4880
sg64
(lp4995
g57
(g78
g59
NtRp4996
(dp4997
g62
(dp4998
sg71
g4992
sg64
(lp4999
g57
(g58
g59
NtRp5000
(dp5001
g62
(dp5002
g70
I2
ssg71
g4996
sg64
(lp5003
g57
(g66
g59
NtRp5004
(dp5005
g62
(dp5006
g70
I1
ssg71
Nsg64
(lp5007
g57
(g73
g59
NtRp5008
(dp5009
g62
(dp5010
sg71
g5004
sg64
(lp5011
g57
(g78
g59
NtRp5012
(dp5013
g62
(dp5014
sg71
g5008
sg64
(lp5015
g57
(g58
g59
NtRp5016
(dp5017
g62
(dp5018
g70
I1
ssg71
g5012
sg64
(lp5019
g4593
(S's\x13\x00\x00\x00Solicitud de Viajes'
tRp5020
asbasbasbag57
(g73
g59
NtRp5021
(dp5022
g62
(dp5023
sg71
g5004
sg64
(lp5024
g57
(g78
g59
NtRp5025
(dp5026
g62
(dp5027
sg71
g5021
sg64
(lp5028
g57
(g58
g59
NtRp5029
(dp5030
g62
(dp5031
g70
I1
ssg71
g5025
sg64
(lp5032
I00
asbasbasbag57
(g73
g59
NtRp5033
(dp5034
g62
(dp5035
sg71
g5004
sg64
(lp5036
g57
(g78
g59
NtRp5037
(dp5038
g62
(dp5039
sg71
g5033
sg64
(lp5040
g57
(g58
g59
NtRp5041
(dp5042
g62
(dp5043
g70
I1
ssg71
g5037
sg64
(lp5044
S'/flota/viaje/index'
p5045
asbasbasbasbasbasbasbag57
(g73
g59
NtRp5046
(dp5047
g62
(dp5048
sg71
g4880
sg64
(lp5049
g57
(g78
g59
NtRp5050
(dp5051
g62
(dp5052
sg71
g5046
sg64
(lp5053
g57
(g58
g59
NtRp5054
(dp5055
g62
(dp5056
g70
I2
ssg71
g5050
sg64
(lp5057
g57
(g66
g59
NtRp5058
(dp5059
g62
(dp5060
g70
I1
ssg71
Nsg64
(lp5061
g57
(g73
g59
NtRp5062
(dp5063
g62
(dp5064
sg71
g5058
sg64
(lp5065
g57
(g78
g59
NtRp5066
(dp5067
g62
(dp5068
sg71
g5062
sg64
(lp5069
g57
(g58
g59
NtRp5070
(dp5071
g62
(dp5072
g70
I1
ssg71
g5066
sg64
(lp5073
g4593
(S's\x14\x00\x00\x00Asignacion de Viajes'
tRp5074
asbasbasbag57
(g73
g59
NtRp5075
(dp5076
g62
(dp5077
sg71
g5058
sg64
(lp5078
g57
(g78
g59
NtRp5079
(dp5080
g62
(dp5081
sg71
g5075
sg64
(lp5082
g57
(g58
g59
NtRp5083
(dp5084
g62
(dp5085
g70
I1
ssg71
g5079
sg64
(lp5086
I00
asbasbasbag57
(g73
g59
NtRp5087
(dp5088
g62
(dp5089
sg71
g5058
sg64
(lp5090
g57
(g78
g59
NtRp5091
(dp5092
g62
(dp5093
sg71
g5087
sg64
(lp5094
g57
(g58
g59
NtRp5095
(dp5096
g62
(dp5097
g70
I1
ssg71
g5091
sg64
(lp5098
S'/flota/asignacion/index'
p5099
asbasbasbasbasbasbasbasbasbasbasbasbasbasbasbag57
(g73
g59
NtRp5100
(dp5101
g62
(dp5102
sg71
g4561
sg64
(lp5103
g57
(g78
g59
NtRp5104
(dp5105
g62
(dp5106
sg71
g5100
sg64
(lp5107
g57
(g58
g59
NtRp5108
(dp5109
g62
(dp5110
g70
I4
ssg71
g5104
sg64
(lp5111
g57
(g66
g59
NtRp5112
(dp5113
g62
(dp5114
g70
I3
ssg71
Nsg64
(lp5115
g57
(g73
g59
NtRp5116
(dp5117
g62
(dp5118
sg71
g5112
sg64
(lp5119
g57
(g78
g59
NtRp5120
(dp5121
g62
(dp5122
sg71
g5116
sg64
(lp5123
g57
(g58
g59
NtRp5124
(dp5125
g62
(dp5126
g70
I3
ssg71
g5120
sg64
(lp5127
g4593
(S's\t\x00\x00\x00Traslados'
tRp5128
asbasbasbag57
(g73
g59
NtRp5129
(dp5130
g62
(dp5131
sg71
g5112
sg64
(lp5132
g57
(g78
g59
NtRp5133
(dp5134
g62
(dp5135
sg71
g5129
sg64
(lp5136
g57
(g58
g59
NtRp5137
(dp5138
g62
(dp5139
g70
I3
ssg71
g5133
sg64
(lp5140
g100
asbasbasbag57
(g73
g59
NtRp5141
(dp5142
g62
(dp5143
sg71
g5112
sg64
(lp5144
g57
(g78
g59
NtRp5145
(dp5146
g62
(dp5147
sg71
g5141
sg64
(lp5148
g57
(g58
g59
NtRp5149
(dp5150
g62
(dp5151
g70
I3
ssg71
g5145
sg64
(lp5152
S'/flota/default/index'
p5153
asbasbasbag57
(g73
g59
NtRp5154
(dp5155
g62
(dp5156
sg71
g5112
sg64
(lp5157
g57
(g78
g59
NtRp5158
(dp5159
g62
(dp5160
sg71
g5154
sg64
(lp5161
g57
(g58
g59
NtRp5162
(dp5163
g62
(dp5164
g70
I3
ssg71
g5158
sg64
(lp5165
g57
(g66
g59
NtRp5166
(dp5167
g62
(dp5168
g70
I2
ssg71
Nsg64
(lp5169
g57
(g73
g59
NtRp5170
(dp5171
g62
(dp5172
sg71
g5166
sg64
(lp5173
g57
(g78
g59
NtRp5174
(dp5175
g62
(dp5176
sg71
g5170
sg64
(lp5177
g57
(g58
g59
NtRp5178
(dp5179
g62
(dp5180
g70
I2
ssg71
g5174
sg64
(lp5181
g57
(g66
g59
NtRp5182
(dp5183
g62
(dp5184
g70
I1
ssg71
Nsg64
(lp5185
g57
(g73
g59
NtRp5186
(dp5187
g62
(dp5188
sg71
g5182
sg64
(lp5189
g57
(g78
g59
NtRp5190
(dp5191
g62
(dp5192
sg71
g5186
sg64
(lp5193
g57
(g58
g59
NtRp5194
(dp5195
g62
(dp5196
g70
I1
ssg71
g5190
sg64
(lp5197
g4593
(S's\x08\x00\x00\x00Choferes'
tRp5198
asbasbasbag57
(g73
g59
NtRp5199
(dp5200
g62
(dp5201
sg71
g5182
sg64
(lp5202
g57
(g78
g59
NtRp5203
(dp5204
g62
(dp5205
sg71
g5199
sg64
(lp5206
g57
(g58
g59
NtRp5207
(dp5208
g62
(dp5209
g70
I1
ssg71
g5203
sg64
(lp5210
I00
asbasbasbag57
(g73
g59
NtRp5211
(dp5212
g62
(dp5213
sg71
g5182
sg64
(lp5214
g57
(g78
g59
NtRp5215
(dp5216
g62
(dp5217
sg71
g5211
sg64
(lp5218
g57
(g58
g59
NtRp5219
(dp5220
g62
(dp5221
g70
I1
ssg71
g5215
sg64
(lp5222
S'/flota/chofer/index'
p5223
asbasbasbasbasbasbasbag57
(g73
g59
NtRp5224
(dp5225
g62
(dp5226
sg71
g5166
sg64
(lp5227
g57
(g78
g59
NtRp5228
(dp5229
g62
(dp5230
sg71
g5224
sg64
(lp5231
g57
(g58
g59
NtRp5232
(dp5233
g62
(dp5234
g70
I2
ssg71
g5228
sg64
(lp5235
g57
(g66
g59
NtRp5236
(dp5237
g62
(dp5238
g70
I1
ssg71
Nsg64
(lp5239
g57
(g73
g59
NtRp5240
(dp5241
g62
(dp5242
sg71
g5236
sg64
(lp5243
g57
(g78
g59
NtRp5244
(dp5245
g62
(dp5246
sg71
g5240
sg64
(lp5247
g57
(g58
g59
NtRp5248
(dp5249
g62
(dp5250
g70
I1
ssg71
g5244
sg64
(lp5251
g4593
(S's\t\x00\x00\x00Vehiculos'
tRp5252
asbasbasbag57
(g73
g59
NtRp5253
(dp5254
g62
(dp5255
sg71
g5236
sg64
(lp5256
g57
(g78
g59
NtRp5257
(dp5258
g62
(dp5259
sg71
g5253
sg64
(lp5260
g57
(g58
g59
NtRp5261
(dp5262
g62
(dp5263
g70
I1
ssg71
g5257
sg64
(lp5264
I00
asbasbasbag57
(g73
g59
NtRp5265
(dp5266
g62
(dp5267
sg71
g5236
sg64
(lp5268
g57
(g78
g59
NtRp5269
(dp5270
g62
(dp5271
sg71
g5265
sg64
(lp5272
g57
(g58
g59
NtRp5273
(dp5274
g62
(dp5275
g70
I1
ssg71
g5269
sg64
(lp5276
S'/flota/vehiculo/index'
p5277
asbasbasbasbasbasbasbag57
(g73
g59
NtRp5278
(dp5279
g62
(dp5280
sg71
g5166
sg64
(lp5281
g57
(g78
g59
NtRp5282
(dp5283
g62
(dp5284
sg71
g5278
sg64
(lp5285
g57
(g58
g59
NtRp5286
(dp5287
g62
(dp5288
g70
I2
ssg71
g5282
sg64
(lp5289
g57
(g66
g59
NtRp5290
(dp5291
g62
(dp5292
g70
I1
ssg71
Nsg64
(lp5293
g57
(g73
g59
NtRp5294
(dp5295
g62
(dp5296
sg71
g5290
sg64
(lp5297
g57
(g78
g59
NtRp5298
(dp5299
g62
(dp5300
sg71
g5294
sg64
(lp5301
g57
(g58
g59
NtRp5302
(dp5303
g62
(dp5304
g70
I1
ssg71
g5298
sg64
(lp5305
g4593
(S's\x13\x00\x00\x00Solicitud de Viajes'
tRp5306
asbasbasbag57
(g73
g59
NtRp5307
(dp5308
g62
(dp5309
sg71
g5290
sg64
(lp5310
g57
(g78
g59
NtRp5311
(dp5312
g62
(dp5313
sg71
g5307
sg64
(lp5314
g57
(g58
g59
NtRp5315
(dp5316
g62
(dp5317
g70
I1
ssg71
g5311
sg64
(lp5318
I00
asbasbasbag57
(g73
g59
NtRp5319
(dp5320
g62
(dp5321
sg71
g5290
sg64
(lp5322
g57
(g78
g59
NtRp5323
(dp5324
g62
(dp5325
sg71
g5319
sg64
(lp5326
g57
(g58
g59
NtRp5327
(dp5328
g62
(dp5329
g70
I1
ssg71
g5323
sg64
(lp5330
S'/flota/viaje/index'
p5331
asbasbasbasbasbasbasbag57
(g73
g59
NtRp5332
(dp5333
g62
(dp5334
sg71
g5166
sg64
(lp5335
g57
(g78
g59
NtRp5336
(dp5337
g62
(dp5338
sg71
g5332
sg64
(lp5339
g57
(g58
g59
NtRp5340
(dp5341
g62
(dp5342
g70
I2
ssg71
g5336
sg64
(lp5343
g57
(g66
g59
NtRp5344
(dp5345
g62
(dp5346
g70
I1
ssg71
Nsg64
(lp5347
g57
(g73
g59
NtRp5348
(dp5349
g62
(dp5350
sg71
g5344
sg64
(lp5351
g57
(g78
g59
NtRp5352
(dp5353
g62
(dp5354
sg71
g5348
sg64
(lp5355
g57
(g58
g59
NtRp5356
(dp5357
g62
(dp5358
g70
I1
ssg71
g5352
sg64
(lp5359
g4593
(S's\x14\x00\x00\x00Asignacion de Viajes'
tRp5360
asbasbasbag57
(g73
g59
NtRp5361
(dp5362
g62
(dp5363
sg71
g5344
sg64
(lp5364
g57
(g78
g59
NtRp5365
(dp5366
g62
(dp5367
sg71
g5361
sg64
(lp5368
g57
(g58
g59
NtRp5369
(dp5370
g62
(dp5371
g70
I1
ssg71
g5365
sg64
(lp5372
I00
asbasbasbag57
(g73
g59
NtRp5373
(dp5374
g62
(dp5375
sg71
g5344
sg64
(lp5376
g57
(g78
g59
NtRp5377
(dp5378
g62
(dp5379
sg71
g5373
sg64
(lp5380
g57
(g58
g59
NtRp5381
(dp5382
g62
(dp5383
g70
I1
ssg71
g5377
sg64
(lp5384
S'/flota/asignacion/index'
p5385
asbasbasbasbasbasbasbasbasbasbasbasbasbasbasbag57
(g73
g59
NtRp5386
(dp5387
g62
(dp5388
sg71
g4561
sg64
(lp5389
g57
(g78
g59
NtRp5390
(dp5391
g62
(dp5392
sg71
g5386
sg64
(lp5393
g57
(g58
g59
NtRp5394
(dp5395
g62
(dp5396
g70
I4
ssg71
g5390
sg64
(lp5397
g57
(g66
g59
NtRp5398
(dp5399
g62
(dp5400
g70
I3
ssg71
Nsg64
(lp5401
g57
(g73
g59
NtRp5402
(dp5403
g62
(dp5404
sg71
g5398
sg64
(lp5405
g57
(g78
g59
NtRp5406
(dp5407
g62
(dp5408
sg71
g5402
sg64
(lp5409
g57
(g58
g59
NtRp5410
(dp5411
g62
(dp5412
g70
I3
ssg71
g5406
sg64
(lp5413
g4593
(S's\x0b\x00\x00\x00Facturacion'
tRp5414
asbasbasbag57
(g73
g59
NtRp5415
(dp5416
g62
(dp5417
sg71
g5398
sg64
(lp5418
g57
(g78
g59
NtRp5419
(dp5420
g62
(dp5421
sg71
g5415
sg64
(lp5422
g57
(g58
g59
NtRp5423
(dp5424
g62
(dp5425
g70
I3
ssg71
g5419
sg64
(lp5426
g100
asbasbasbag57
(g73
g59
NtRp5427
(dp5428
g62
(dp5429
sg71
g5398
sg64
(lp5430
g57
(g78
g59
NtRp5431
(dp5432
g62
(dp5433
sg71
g5427
sg64
(lp5434
g57
(g58
g59
NtRp5435
(dp5436
g62
(dp5437
g70
I3
ssg71
g5431
sg64
(lp5438
S'/admin/default/design/flota'
p5439
asbasbasbag57
(g73
g59
NtRp5440
(dp5441
g62
(dp5442
sg71
g5398
sg64
(lp5443
g57
(g78
g59
NtRp5444
(dp5445
g62
(dp5446
sg71
g5440
sg64
(lp5447
g57
(g58
g59
NtRp5448
(dp5449
g62
(dp5450
g70
I3
ssg71
g5444
sg64
(lp5451
g57
(g66
g59
NtRp5452
(dp5453
g62
(dp5454
g70
I2
ssg71
Nsg64
(lp5455
g57
(g73
g59
NtRp5456
(dp5457
g62
(dp5458
sg71
g5452
sg64
(lp5459
g57
(g78
g59
NtRp5460
(dp5461
g62
(dp5462
sg71
g5456
sg64
(lp5463
g57
(g58
g59
NtRp5464
(dp5465
g62
(dp5466
g70
I2
ssg71
g5460
sg64
(lp5467
g57
(g66
g59
NtRp5468
(dp5469
g62
(dp5470
g70
I1
ssg71
Nsg64
(lp5471
g57
(g73
g59
NtRp5472
(dp5473
g62
(dp5474
sg71
g5468
sg64
(lp5475
g57
(g78
g59
NtRp5476
(dp5477
g62
(dp5478
sg71
g5472
sg64
(lp5479
g57
(g58
g59
NtRp5480
(dp5481
g62
(dp5482
g70
I1
ssg71
g5476
sg64
(lp5483
g4593
(S's\x12\x00\x00\x00Tipos de documento'
tRp5484
asbasbasbag57
(g73
g59
NtRp5485
(dp5486
g62
(dp5487
sg71
g5468
sg64
(lp5488
g57
(g78
g59
NtRp5489
(dp5490
g62
(dp5491
sg71
g5485
sg64
(lp5492
g57
(g58
g59
NtRp5493
(dp5494
g62
(dp5495
g70
I1
ssg71
g5489
sg64
(lp5496
I00
asbasbasbag57
(g73
g59
NtRp5497
(dp5498
g62
(dp5499
sg71
g5468
sg64
(lp5500
g57
(g78
g59
NtRp5501
(dp5502
g62
(dp5503
sg71
g5497
sg64
(lp5504
g57
(g58
g59
NtRp5505
(dp5506
g62
(dp5507
g70
I1
ssg71
g5501
sg64
(lp5508
S'/flota/tipodoc/index'
p5509
asbasbasbasbasbasbasbag57
(g73
g59
NtRp5510
(dp5511
g62
(dp5512
sg71
g5452
sg64
(lp5513
g57
(g78
g59
NtRp5514
(dp5515
g62
(dp5516
sg71
g5510
sg64
(lp5517
g57
(g58
g59
NtRp5518
(dp5519
g62
(dp5520
g70
I2
ssg71
g5514
sg64
(lp5521
g57
(g66
g59
NtRp5522
(dp5523
g62
(dp5524
g70
I1
ssg71
Nsg64
(lp5525
g57
(g73
g59
NtRp5526
(dp5527
g62
(dp5528
sg71
g5522
sg64
(lp5529
g57
(g78
g59
NtRp5530
(dp5531
g62
(dp5532
sg71
g5526
sg64
(lp5533
g57
(g58
g59
NtRp5534
(dp5535
g62
(dp5536
g70
I1
ssg71
g5530
sg64
(lp5537
g4593
(S's\x06\x00\x00\x00Bancos'
tRp5538
asbasbasbag57
(g73
g59
NtRp5539
(dp5540
g62
(dp5541
sg71
g5522
sg64
(lp5542
g57
(g78
g59
NtRp5543
(dp5544
g62
(dp5545
sg71
g5539
sg64
(lp5546
g57
(g58
g59
NtRp5547
(dp5548
g62
(dp5549
g70
I1
ssg71
g5543
sg64
(lp5550
I00
asbasbasbag57
(g73
g59
NtRp5551
(dp5552
g62
(dp5553
sg71
g5522
sg64
(lp5554
g57
(g78
g59
NtRp5555
(dp5556
g62
(dp5557
sg71
g5551
sg64
(lp5558
g57
(g58
g59
NtRp5559
(dp5560
g62
(dp5561
g70
I1
ssg71
g5555
sg64
(lp5562
S'/flota/banco/index'
p5563
asbasbasbasbasbasbasbag57
(g73
g59
NtRp5564
(dp5565
g62
(dp5566
sg71
g5452
sg64
(lp5567
g57
(g78
g59
NtRp5568
(dp5569
g62
(dp5570
sg71
g5564
sg64
(lp5571
g57
(g58
g59
NtRp5572
(dp5573
g62
(dp5574
g70
I2
ssg71
g5568
sg64
(lp5575
g57
(g66
g59
NtRp5576
(dp5577
g62
(dp5578
g70
I1
ssg71
Nsg64
(lp5579
g57
(g73
g59
NtRp5580
(dp5581
g62
(dp5582
sg71
g5576
sg64
(lp5583
g57
(g78
g59
NtRp5584
(dp5585
g62
(dp5586
sg71
g5580
sg64
(lp5587
g57
(g58
g59
NtRp5588
(dp5589
g62
(dp5590
g70
I1
ssg71
g5584
sg64
(lp5591
g4593
(S's\x0e\x00\x00\x00Formas de pago'
tRp5592
asbasbasbag57
(g73
g59
NtRp5593
(dp5594
g62
(dp5595
sg71
g5576
sg64
(lp5596
g57
(g78
g59
NtRp5597
(dp5598
g62
(dp5599
sg71
g5593
sg64
(lp5600
g57
(g58
g59
NtRp5601
(dp5602
g62
(dp5603
g70
I1
ssg71
g5597
sg64
(lp5604
I00
asbasbasbag57
(g73
g59
NtRp5605
(dp5606
g62
(dp5607
sg71
g5576
sg64
(lp5608
g57
(g78
g59
NtRp5609
(dp5610
g62
(dp5611
sg71
g5605
sg64
(lp5612
g57
(g58
g59
NtRp5613
(dp5614
g62
(dp5615
g70
I1
ssg71
g5609
sg64
(lp5616
S'/flota/formapago/index'
p5617
asbasbasbasbasbasbasbag57
(g73
g59
NtRp5618
(dp5619
g62
(dp5620
sg71
g5452
sg64
(lp5621
g57
(g78
g59
NtRp5622
(dp5623
g62
(dp5624
sg71
g5618
sg64
(lp5625
g57
(g58
g59
NtRp5626
(dp5627
g62
(dp5628
g70
I2
ssg71
g5622
sg64
(lp5629
g57
(g66
g59
NtRp5630
(dp5631
g62
(dp5632
g70
I1
ssg71
Nsg64
(lp5633
g57
(g73
g59
NtRp5634
(dp5635
g62
(dp5636
sg71
g5630
sg64
(lp5637
g57
(g78
g59
NtRp5638
(dp5639
g62
(dp5640
sg71
g5634
sg64
(lp5641
g57
(g58
g59
NtRp5642
(dp5643
g62
(dp5644
g70
I1
ssg71
g5638
sg64
(lp5645
g4593
(S's\x15\x00\x00\x00Tarifas por servicios'
tRp5646
asbasbasbag57
(g73
g59
NtRp5647
(dp5648
g62
(dp5649
sg71
g5630
sg64
(lp5650
g57
(g78
g59
NtRp5651
(dp5652
g62
(dp5653
sg71
g5647
sg64
(lp5654
g57
(g58
g59
NtRp5655
(dp5656
g62
(dp5657
g70
I1
ssg71
g5651
sg64
(lp5658
I00
asbasbasbag57
(g73
g59
NtRp5659
(dp5660
g62
(dp5661
sg71
g5630
sg64
(lp5662
g57
(g78
g59
NtRp5663
(dp5664
g62
(dp5665
sg71
g5659
sg64
(lp5666
g57
(g58
g59
NtRp5667
(dp5668
g62
(dp5669
g70
I1
ssg71
g5663
sg64
(lp5670
S'/flota/servicio/index'
p5671
asbasbasbasbasbasbasbag57
(g73
g59
NtRp5672
(dp5673
g62
(dp5674
sg71
g5452
sg64
(lp5675
g57
(g78
g59
NtRp5676
(dp5677
g62
(dp5678
sg71
g5672
sg64
(lp5679
g57
(g58
g59
NtRp5680
(dp5681
g62
(dp5682
g70
I2
ssg71
g5676
sg64
(lp5683
g57
(g66
g59
NtRp5684
(dp5685
g62
(dp5686
g70
I1
ssg71
Nsg64
(lp5687
g57
(g73
g59
NtRp5688
(dp5689
g62
(dp5690
sg71
g5684
sg64
(lp5691
g57
(g78
g59
NtRp5692
(dp5693
g62
(dp5694
sg71
g5688
sg64
(lp5695
g57
(g58
g59
NtRp5696
(dp5697
g62
(dp5698
g70
I1
ssg71
g5692
sg64
(lp5699
g4593
(S's\x0c\x00\x00\x00Presupuestos'
tRp5700
asbasbasbag57
(g73
g59
NtRp5701
(dp5702
g62
(dp5703
sg71
g5684
sg64
(lp5704
g57
(g78
g59
NtRp5705
(dp5706
g62
(dp5707
sg71
g5701
sg64
(lp5708
g57
(g58
g59
NtRp5709
(dp5710
g62
(dp5711
g70
I1
ssg71
g5705
sg64
(lp5712
I00
asbasbasbag57
(g73
g59
NtRp5713
(dp5714
g62
(dp5715
sg71
g5684
sg64
(lp5716
g57
(g78
g59
NtRp5717
(dp5718
g62
(dp5719
sg71
g5713
sg64
(lp5720
g57
(g58
g59
NtRp5721
(dp5722
g62
(dp5723
g70
I1
ssg71
g5717
sg64
(lp5724
S'/flota/presupuesto/index'
p5725
asbasbasbasbasbasbasbag57
(g73
g59
NtRp5726
(dp5727
g62
(dp5728
sg71
g5452
sg64
(lp5729
g57
(g78
g59
NtRp5730
(dp5731
g62
(dp5732
sg71
g5726
sg64
(lp5733
g57
(g58
g59
NtRp5734
(dp5735
g62
(dp5736
g70
I2
ssg71
g5730
sg64
(lp5737
g57
(g66
g59
NtRp5738
(dp5739
g62
(dp5740
g70
I1
ssg71
Nsg64
(lp5741
g57
(g73
g59
NtRp5742
(dp5743
g62
(dp5744
sg71
g5738
sg64
(lp5745
g57
(g78
g59
NtRp5746
(dp5747
g62
(dp5748
sg71
g5742
sg64
(lp5749
g57
(g58
g59
NtRp5750
(dp5751
g62
(dp5752
g70
I1
ssg71
g5746
sg64
(lp5753
g4593
(S's\x15\x00\x00\x00Facturar Presupuestos'
tRp5754
asbasbasbag57
(g73
g59
NtRp5755
(dp5756
g62
(dp5757
sg71
g5738
sg64
(lp5758
g57
(g78
g59
NtRp5759
(dp5760
g62
(dp5761
sg71
g5755
sg64
(lp5762
g57
(g58
g59
NtRp5763
(dp5764
g62
(dp5765
g70
I1
ssg71
g5759
sg64
(lp5766
I00
asbasbasbag57
(g73
g59
NtRp5767
(dp5768
g62
(dp5769
sg71
g5738
sg64
(lp5770
g57
(g78
g59
NtRp5771
(dp5772
g62
(dp5773
sg71
g5767
sg64
(lp5774
g57
(g58
g59
NtRp5775
(dp5776
g62
(dp5777
g70
I1
ssg71
g5771
sg64
(lp5778
S'/flota/facturar/index'
p5779
asbasbasbasbasbasbasbag57
(g73
g59
NtRp5780
(dp5781
g62
(dp5782
sg71
g5452
sg64
(lp5783
g57
(g78
g59
NtRp5784
(dp5785
g62
(dp5786
sg71
g5780
sg64
(lp5787
g57
(g58
g59
NtRp5788
(dp5789
g62
(dp5790
g70
I2
ssg71
g5784
sg64
(lp5791
g57
(g66
g59
NtRp5792
(dp5793
g62
(dp5794
g70
I1
ssg71
Nsg64
(lp5795
g57
(g73
g59
NtRp5796
(dp5797
g62
(dp5798
sg71
g5792
sg64
(lp5799
g57
(g78
g59
NtRp5800
(dp5801
g62
(dp5802
sg71
g5796
sg64
(lp5803
g57
(g58
g59
NtRp5804
(dp5805
g62
(dp5806
g70
I1
ssg71
g5800
sg64
(lp5807
g4593
(S's\x08\x00\x00\x00Facturas'
tRp5808
asbasbasbag57
(g73
g59
NtRp5809
(dp5810
g62
(dp5811
sg71
g5792
sg64
(lp5812
g57
(g78
g59
NtRp5813
(dp5814
g62
(dp5815
sg71
g5809
sg64
(lp5816
g57
(g58
g59
NtRp5817
(dp5818
g62
(dp5819
g70
I1
ssg71
g5813
sg64
(lp5820
I00
asbasbasbag57
(g73
g59
NtRp5821
(dp5822
g62
(dp5823
sg71
g5792
sg64
(lp5824
g57
(g78
g59
NtRp5825
(dp5826
g62
(dp5827
sg71
g5821
sg64
(lp5828
g57
(g58
g59
NtRp5829
(dp5830
g62
(dp5831
g70
I1
ssg71
g5825
sg64
(lp5832
S'/flota/factura/index'
p5833
asbasbasbasbasbasbasbag57
(g73
g59
NtRp5834
(dp5835
g62
(dp5836
sg71
g5452
sg64
(lp5837
g57
(g78
g59
NtRp5838
(dp5839
g62
(dp5840
sg71
g5834
sg64
(lp5841
g57
(g58
g59
NtRp5842
(dp5843
g62
(dp5844
g70
I2
ssg71
g5838
sg64
(lp5845
g57
(g66
g59
NtRp5846
(dp5847
g62
(dp5848
g70
I1
ssg71
Nsg64
(lp5849
g57
(g73
g59
NtRp5850
(dp5851
g62
(dp5852
sg71
g5846
sg64
(lp5853
g57
(g78
g59
NtRp5854
(dp5855
g62
(dp5856
sg71
g5850
sg64
(lp5857
g57
(g58
g59
NtRp5858
(dp5859
g62
(dp5860
g70
I1
ssg71
g5854
sg64
(lp5861
g4593
(S's\x06\x00\x00\x00Cobros'
tRp5862
asbasbasbag57
(g73
g59
NtRp5863
(dp5864
g62
(dp5865
sg71
g5846
sg64
(lp5866
g57
(g78
g59
NtRp5867
(dp5868
g62
(dp5869
sg71
g5863
sg64
(lp5870
g57
(g58
g59
NtRp5871
(dp5872
g62
(dp5873
g70
I1
ssg71
g5867
sg64
(lp5874
I00
asbasbasbag57
(g73
g59
NtRp5875
(dp5876
g62
(dp5877
sg71
g5846
sg64
(lp5878
g57
(g78
g59
NtRp5879
(dp5880
g62
(dp5881
sg71
g5875
sg64
(lp5882
g57
(g58
g59
NtRp5883
(dp5884
g62
(dp5885
g70
I1
ssg71
g5879
sg64
(lp5886
S'/flota/cobro/index'
p5887
asbasbasbasbasbasbasbag57
(g73
g59
NtRp5888
(dp5889
g62
(dp5890
sg71
g5452
sg64
(lp5891
g57
(g78
g59
NtRp5892
(dp5893
g62
(dp5894
sg71
g5888
sg64
(lp5895
g57
(g58
g59
NtRp5896
(dp5897
g62
(dp5898
g70
I2
ssg71
g5892
sg64
(lp5899
g57
(g66
g59
NtRp5900
(dp5901
g62
(dp5902
g70
I1
ssg71
Nsg64
(lp5903
g57
(g73
g59
NtRp5904
(dp5905
g62
(dp5906
sg71
g5900
sg64
(lp5907
g57
(g78
g59
NtRp5908
(dp5909
g62
(dp5910
sg71
g5904
sg64
(lp5911
g57
(g58
g59
NtRp5912
(dp5913
g62
(dp5914
g70
I1
ssg71
g5908
sg64
(lp5915
g4593
(S's\x05\x00\x00\x00Pagos'
tRp5916
asbasbasbag57
(g73
g59
NtRp5917
(dp5918
g62
(dp5919
sg71
g5900
sg64
(lp5920
g57
(g78
g59
NtRp5921
(dp5922
g62
(dp5923
sg71
g5917
sg64
(lp5924
g57
(g58
g59
NtRp5925
(dp5926
g62
(dp5927
g70
I1
ssg71
g5921
sg64
(lp5928
I00
asbasbasbag57
(g73
g59
NtRp5929
(dp5930
g62
(dp5931
sg71
g5900
sg64
(lp5932
g57
(g78
g59
NtRp5933
(dp5934
g62
(dp5935
sg71
g5929
sg64
(lp5936
g57
(g58
g59
NtRp5937
(dp5938
g62
(dp5939
g70
I1
ssg71
g5933
sg64
(lp5940
S'/flota/pago/index'
p5941
asbasbasbasbasbasbasbasbasbasbasbasbasbasbasbag57
(g73
g59
NtRp5942
(dp5943
g62
(dp5944
sg71
g4561
sg64
(lp5945
g57
(g78
g59
NtRp5946
(dp5947
g62
(dp5948
sg71
g5942
sg64
(lp5949
g57
(g58
g59
NtRp5950
(dp5951
g62
(dp5952
g70
I4
ssg71
g5946
sg64
(lp5953
g57
(g66
g59
NtRp5954
(dp5955
g62
(dp5956
g70
I3
ssg71
Nsg64
(lp5957
g57
(g73
g59
NtRp5958
(dp5959
g62
(dp5960
sg71
g5954
sg64
(lp5961
g57
(g78
g59
NtRp5962
(dp5963
g62
(dp5964
sg71
g5958
sg64
(lp5965
g57
(g58
g59
NtRp5966
(dp5967
g62
(dp5968
g70
I3
ssg71
g5962
sg64
(lp5969
g4593
(S's\x08\x00\x00\x00Reportes'
tRp5970
asbasbasbag57
(g73
g59
NtRp5971
(dp5972
g62
(dp5973
sg71
g5954
sg64
(lp5974
g57
(g78
g59
NtRp5975
(dp5976
g62
(dp5977
sg71
g5971
sg64
(lp5978
g57
(g58
g59
NtRp5979
(dp5980
g62
(dp5981
g70
I3
ssg71
g5975
sg64
(lp5982
g100
asbasbasbag57
(g73
g59
NtRp5983
(dp5984
g62
(dp5985
sg71
g5954
sg64
(lp5986
g57
(g78
g59
NtRp5987
(dp5988
g62
(dp5989
sg71
g5983
sg64
(lp5990
g57
(g58
g59
NtRp5991
(dp5992
g62
(dp5993
g70
I3
ssg71
g5987
sg64
(lp5994
S'/flota/reportes/index'
p5995
asbasbasbag57
(g73
g59
NtRp5996
(dp5997
g62
(dp5998
sg71
g5954
sg64
(lp5999
g57
(g78
g59
NtRp6000
(dp6001
g62
(dp6002
sg71
g5996
sg64
(lp6003
g57
(g58
g59
NtRp6004
(dp6005
g62
(dp6006
g70
I3
ssg71
g6000
sg64
(lp6007
g57
(g66
g59
NtRp6008
(dp6009
g62
(dp6010
g70
I2
ssg71
Nsg64
(lp6011
g57
(g73
g59
NtRp6012
(dp6013
g62
(dp6014
sg71
g6008
sg64
(lp6015
g57
(g78
g59
NtRp6016
(dp6017
g62
(dp6018
sg71
g6012
sg64
(lp6019
g57
(g58
g59
NtRp6020
(dp6021
g62
(dp6022
g70
I2
ssg71
g6016
sg64
(lp6023
g57
(g66
g59
NtRp6024
(dp6025
g62
(dp6026
g70
I1
ssg71
Nsg64
(lp6027
g57
(g73
g59
NtRp6028
(dp6029
g62
(dp6030
sg71
g6024
sg64
(lp6031
g57
(g78
g59
NtRp6032
(dp6033
g62
(dp6034
sg71
g6028
sg64
(lp6035
g57
(g58
g59
NtRp6036
(dp6037
g62
(dp6038
g70
I1
ssg71
g6032
sg64
(lp6039
g4593
(S's\r\x00\x00\x00Configuracion'
tRp6040
asbasbasbag57
(g73
g59
NtRp6041
(dp6042
g62
(dp6043
sg71
g6024
sg64
(lp6044
g57
(g78
g59
NtRp6045
(dp6046
g62
(dp6047
sg71
g6041
sg64
(lp6048
g57
(g58
g59
NtRp6049
(dp6050
g62
(dp6051
g70
I1
ssg71
g6045
sg64
(lp6052
I00
asbasbasbag57
(g73
g59
NtRp6053
(dp6054
g62
(dp6055
sg71
g6024
sg64
(lp6056
g57
(g78
g59
NtRp6057
(dp6058
g62
(dp6059
sg71
g6053
sg64
(lp6060
g57
(g58
g59
NtRp6061
(dp6062
g62
(dp6063
g70
I1
ssg71
g6057
sg64
(lp6064
S'/flota/reportes/configs'
p6065
asbasbasbasbasbasbasbag57
(g73
g59
NtRp6066
(dp6067
g62
(dp6068
sg71
g6008
sg64
(lp6069
g57
(g78
g59
NtRp6070
(dp6071
g62
(dp6072
sg71
g6066
sg64
(lp6073
g57
(g58
g59
NtRp6074
(dp6075
g62
(dp6076
g70
I2
ssg71
g6070
sg64
(lp6077
g57
(g66
g59
NtRp6078
(dp6079
g62
(dp6080
g70
I1
ssg71
Nsg64
(lp6081
g57
(g73
g59
NtRp6082
(dp6083
g62
(dp6084
sg71
g6078
sg64
(lp6085
g57
(g78
g59
NtRp6086
(dp6087
g62
(dp6088
sg71
g6082
sg64
(lp6089
g57
(g58
g59
NtRp6090
(dp6091
g62
(dp6092
g70
I1
ssg71
g6086
sg64
(lp6093
g4593
(S's\x08\x00\x00\x00Maestros'
tRp6094
asbasbasbag57
(g73
g59
NtRp6095
(dp6096
g62
(dp6097
sg71
g6078
sg64
(lp6098
g57
(g78
g59
NtRp6099
(dp6100
g62
(dp6101
sg71
g6095
sg64
(lp6102
g57
(g58
g59
NtRp6103
(dp6104
g62
(dp6105
g70
I1
ssg71
g6099
sg64
(lp6106
I00
asbasbasbag57
(g73
g59
NtRp6107
(dp6108
g62
(dp6109
sg71
g6078
sg64
(lp6110
g57
(g78
g59
NtRp6111
(dp6112
g62
(dp6113
sg71
g6107
sg64
(lp6114
g57
(g58
g59
NtRp6115
(dp6116
g62
(dp6117
g70
I1
ssg71
g6111
sg64
(lp6118
S'/flota/reportes/maestros'
p6119
asbasbasbasbasbasbasbag57
(g73
g59
NtRp6120
(dp6121
g62
(dp6122
sg71
g6008
sg64
(lp6123
g57
(g78
g59
NtRp6124
(dp6125
g62
(dp6126
sg71
g6120
sg64
(lp6127
g57
(g58
g59
NtRp6128
(dp6129
g62
(dp6130
g70
I2
ssg71
g6124
sg64
(lp6131
g57
(g66
g59
NtRp6132
(dp6133
g62
(dp6134
g70
I1
ssg71
Nsg64
(lp6135
g57
(g73
g59
NtRp6136
(dp6137
g62
(dp6138
sg71
g6132
sg64
(lp6139
g57
(g78
g59
NtRp6140
(dp6141
g62
(dp6142
sg71
g6136
sg64
(lp6143
g57
(g58
g59
NtRp6144
(dp6145
g62
(dp6146
g70
I1
ssg71
g6140
sg64
(lp6147
g4593
(S's\x0c\x00\x00\x00Presupuestos'
tRp6148
asbasbasbag57
(g73
g59
NtRp6149
(dp6150
g62
(dp6151
sg71
g6132
sg64
(lp6152
g57
(g78
g59
NtRp6153
(dp6154
g62
(dp6155
sg71
g6149
sg64
(lp6156
g57
(g58
g59
NtRp6157
(dp6158
g62
(dp6159
g70
I1
ssg71
g6153
sg64
(lp6160
I00
asbasbasbag57
(g73
g59
NtRp6161
(dp6162
g62
(dp6163
sg71
g6132
sg64
(lp6164
g57
(g78
g59
NtRp6165
(dp6166
g62
(dp6167
sg71
g6161
sg64
(lp6168
g57
(g58
g59
NtRp6169
(dp6170
g62
(dp6171
g70
I1
ssg71
g6165
sg64
(lp6172
S'/flota/cobro2/index'
p6173
asbasbasbag57
(g73
g59
NtRp6174
(dp6175
g62
(dp6176
sg71
g6132
sg64
(lp6177
g57
(g78
g59
NtRp6178
(dp6179
g62
(dp6180
sg71
g6174
sg64
(lp6181
g57
(g58
g59
NtRp6182
(dp6183
g62
(dp6184
g70
I1
ssg71
g6178
sg64
(lp6185
(lp6186
(g4593
(S's\x15\x00\x00\x00Todos los presupestos'
tRp6187
I00
S'/flota/reportes/presupuestos/todos'
tp6188
aasbasbasbasbasbasbasbag57
(g73
g59
NtRp6189
(dp6190
g62
(dp6191
sg71
g6008
sg64
(lp6192
g57
(g78
g59
NtRp6193
(dp6194
g62
(dp6195
sg71
g6189
sg64
(lp6196
g57
(g58
g59
NtRp6197
(dp6198
g62
(dp6199
g70
I2
ssg71
g6193
sg64
(lp6200
g57
(g66
g59
NtRp6201
(dp6202
g62
(dp6203
g70
I1
ssg71
Nsg64
(lp6204
g57
(g73
g59
NtRp6205
(dp6206
g62
(dp6207
sg71
g6201
sg64
(lp6208
g57
(g78
g59
NtRp6209
(dp6210
g62
(dp6211
sg71
g6205
sg64
(lp6212
g57
(g58
g59
NtRp6213
(dp6214
g62
(dp6215
g70
I1
ssg71
g6209
sg64
(lp6216
g4593
(S's\x0b\x00\x00\x00Facturacion'
tRp6217
asbasbasbag57
(g73
g59
NtRp6218
(dp6219
g62
(dp6220
sg71
g6201
sg64
(lp6221
g57
(g78
g59
NtRp6222
(dp6223
g62
(dp6224
sg71
g6218
sg64
(lp6225
g57
(g58
g59
NtRp6226
(dp6227
g62
(dp6228
g70
I1
ssg71
g6222
sg64
(lp6229
I00
asbasbasbag57
(g73
g59
NtRp6230
(dp6231
g62
(dp6232
sg71
g6201
sg64
(lp6233
g57
(g78
g59
NtRp6234
(dp6235
g62
(dp6236
sg71
g6230
sg64
(lp6237
g57
(g58
g59
NtRp6238
(dp6239
g62
(dp6240
g70
I1
ssg71
g6234
sg64
(lp6241
S'/flota/cobro2/index'
p6242
asbasbasbag57
(g73
g59
NtRp6243
(dp6244
g62
(dp6245
sg71
g6201
sg64
(lp6246
g57
(g78
g59
NtRp6247
(dp6248
g62
(dp6249
sg71
g6243
sg64
(lp6250
g57
(g58
g59
NtRp6251
(dp6252
g62
(dp6253
g70
I1
ssg71
g6247
sg64
(lp6254
(lp6255
(g4593
(S's\x12\x00\x00\x00Cuentas por cobrar'
tRp6256
I00
S'/flota/reportes/porcobrar/todos'
tp6257
aasbasbasbasbasbasbasbag57
(g73
g59
NtRp6258
(dp6259
g62
(dp6260
sg71
g6008
sg64
(lp6261
g57
(g78
g59
NtRp6262
(dp6263
g62
(dp6264
sg71
g6258
sg64
(lp6265
g57
(g58
g59
NtRp6266
(dp6267
g62
(dp6268
g70
I2
ssg71
g6262
sg64
(lp6269
g57
(g66
g59
NtRp6270
(dp6271
g62
(dp6272
g70
I1
ssg71
Nsg64
(lp6273
g57
(g73
g59
NtRp6274
(dp6275
g62
(dp6276
sg71
g6270
sg64
(lp6277
g57
(g78
g59
NtRp6278
(dp6279
g62
(dp6280
sg71
g6274
sg64
(lp6281
g57
(g58
g59
NtRp6282
(dp6283
g62
(dp6284
g70
I1
ssg71
g6278
sg64
(lp6285
g4593
(S's\x0b\x00\x00\x00Movimientos'
tRp6286
asbasbasbag57
(g73
g59
NtRp6287
(dp6288
g62
(dp6289
sg71
g6270
sg64
(lp6290
g57
(g78
g59
NtRp6291
(dp6292
g62
(dp6293
sg71
g6287
sg64
(lp6294
g57
(g58
g59
NtRp6295
(dp6296
g62
(dp6297
g70
I1
ssg71
g6291
sg64
(lp6298
I00
asbasbasbag57
(g73
g59
NtRp6299
(dp6300
g62
(dp6301
sg71
g6270
sg64
(lp6302
g57
(g78
g59
NtRp6303
(dp6304
g62
(dp6305
sg71
g6299
sg64
(lp6306
g57
(g58
g59
NtRp6307
(dp6308
g62
(dp6309
g70
I1
ssg71
g6303
sg64
(lp6310
S'/flota/reportes/movitos'
p6311
asbasbasbasbasbasbasbag57
(g73
g59
NtRp6312
(dp6313
g62
(dp6314
sg71
g6008
sg64
(lp6315
g57
(g78
g59
NtRp6316
(dp6317
g62
(dp6318
sg71
g6312
sg64
(lp6319
g57
(g58
g59
NtRp6320
(dp6321
g62
(dp6322
g70
I2
ssg71
g6316
sg64
(lp6323
g57
(g66
g59
NtRp6324
(dp6325
g62
(dp6326
g70
I1
ssg71
Nsg64
(lp6327
g57
(g73
g59
NtRp6328
(dp6329
g62
(dp6330
sg71
g6324
sg64
(lp6331
g57
(g78
g59
NtRp6332
(dp6333
g62
(dp6334
sg71
g6328
sg64
(lp6335
g57
(g58
g59
NtRp6336
(dp6337
g62
(dp6338
g70
I1
ssg71
g6332
sg64
(lp6339
g4593
(S's\x06\x00\x00\x00Gastos'
tRp6340
asbasbasbag57
(g73
g59
NtRp6341
(dp6342
g62
(dp6343
sg71
g6324
sg64
(lp6344
g57
(g78
g59
NtRp6345
(dp6346
g62
(dp6347
sg71
g6341
sg64
(lp6348
g57
(g58
g59
NtRp6349
(dp6350
g62
(dp6351
g70
I1
ssg71
g6345
sg64
(lp6352
I00
asbasbasbag57
(g73
g59
NtRp6353
(dp6354
g62
(dp6355
sg71
g6324
sg64
(lp6356
g57
(g78
g59
NtRp6357
(dp6358
g62
(dp6359
sg71
g6353
sg64
(lp6360
g57
(g58
g59
NtRp6361
(dp6362
g62
(dp6363
g70
I1
ssg71
g6357
sg64
(lp6364
S'/flota/reportes/gastos'
p6365
asbasbasbasbasbasbasbasbasbasbasbasbasbasbasbasbasbasbasbag57
(g73
g59
NtRp6366
(dp6367
g62
(dp6368
sg71
g3878
sg64
(lp6369
g57
(g78
g59
NtRp6370
(dp6371
g62
(dp6372
g82
g83
ssg71
g6366
sg64
(lp6373
S'meta'
p6374
asbag57
(g78
g59
NtRp6375
(dp6376
g62
(dp6377
g89
g90
ssg71
g6366
sg64
(lp6378
S':'
asbag57
(g78
g59
NtRp6379
(dp6380
g62
(dp6381
sg71
g6366
sg64
(lp6382
g57
(g58
g59
NtRp6383
(dp6384
g62
(dp6385
g70
I5
ssg71
g6379
sg64
(lp6386
g57
(g66
g59
NtRp6387
(dp6388
g62
(dp6389
g70
I4
ssg71
Nsg64
(lp6390
g57
(g73
g59
NtRp6391
(dp6392
g62
(dp6393
sg71
g6387
sg64
(lp6394
g57
(g78
g59
NtRp6395
(dp6396
g62
(dp6397
g82
g83
ssg71
g6391
sg64
(lp6398
S'author'
p6399
asbag57
(g78
g59
NtRp6400
(dp6401
g62
(dp6402
g89
g90
ssg71
g6391
sg64
(lp6403
S':'
asbag57
(g78
g59
NtRp6404
(dp6405
g62
(dp6406
sg71
g6391
sg64
(lp6407
g57
(g58
g59
NtRp6408
(dp6409
g62
(dp6410
g70
I4
ssg71
g6404
sg64
(lp6411
S'Wuelfhis Asuaje'
p6412
asbasbasbag57
(g73
g59
NtRp6413
(dp6414
g62
(dp6415
sg71
g6387
sg64
(lp6416
g57
(g78
g59
NtRp6417
(dp6418
g62
(dp6419
g82
g83
ssg71
g6413
sg64
(lp6420
S'copyright'
p6421
asbag57
(g78
g59
NtRp6422
(dp6423
g62
(dp6424
g89
g90
ssg71
g6413
sg64
(lp6425
S':'
asbag57
(g78
g59
NtRp6426
(dp6427
g62
(dp6428
sg71
g6413
sg64
(lp6429
g57
(g58
g59
NtRp6430
(dp6431
g62
(dp6432
g70
I4
ssg71
g6426
sg64
(lp6433
S'Copyright 2007-2012'
p6434
asbasbasbag57
(g73
g59
NtRp6435
(dp6436
g62
(dp6437
sg71
g6387
sg64
(lp6438
g57
(g78
g59
NtRp6439
(dp6440
g62
(dp6441
g82
g83
ssg71
g6435
sg64
(lp6442
S'description'
p6443
asbag57
(g78
g59
NtRp6444
(dp6445
g62
(dp6446
g89
g90
ssg71
g6435
sg64
(lp6447
S':'
asbag57
(g78
g59
NtRp6448
(dp6449
g62
(dp6450
sg71
g6435
sg64
(lp6451
g57
(g58
g59
NtRp6452
(dp6453
g62
(dp6454
g70
I4
ssg71
g6448
sg64
(lp6455
S'Free and open source full-stack enterprise framework for agile development of fast, scalable, secure and portable database-driven web-based applications. Written and programmable in Python'
p6456
asbasbasbag57
(g73
g59
NtRp6457
(dp6458
g62
(dp6459
sg71
g6387
sg64
(lp6460
g57
(g78
g59
NtRp6461
(dp6462
g62
(dp6463
g82
g83
ssg71
g6457
sg64
(lp6464
S'generator'
p6465
asbag57
(g78
g59
NtRp6466
(dp6467
g62
(dp6468
g89
g90
ssg71
g6457
sg64
(lp6469
S':'
asbag57
(g78
g59
NtRp6470
(dp6471
g62
(dp6472
sg71
g6457
sg64
(lp6473
g57
(g58
g59
NtRp6474
(dp6475
g62
(dp6476
g70
I4
ssg71
g6470
sg64
(lp6477
S'Web2py Enterprise Framework'
p6478
asbasbasbag57
(g73
g59
NtRp6479
(dp6480
g62
(dp6481
sg71
g6387
sg64
(lp6482
g57
(g78
g59
NtRp6483
(dp6484
g62
(dp6485
g82
g83
ssg71
g6479
sg64
(lp6486
S'keywords'
p6487
asbag57
(g78
g59
NtRp6488
(dp6489
g62
(dp6490
g89
g90
ssg71
g6479
sg64
(lp6491
S':'
asbag57
(g78
g59
NtRp6492
(dp6493
g62
(dp6494
sg71
g6479
sg64
(lp6495
g57
(g58
g59
NtRp6496
(dp6497
g62
(dp6498
g70
I4
ssg71
g6492
sg64
(lp6499
S'web2py, python, framework'
p6500
asbasbasbasbasbasbasbag57
(g73
g59
NtRp6501
(dp6502
g62
(dp6503
sg71
g3878
sg64
(lp6504
g57
(g78
g59
NtRp6505
(dp6506
g62
(dp6507
g82
g83
ssg71
g6501
sg64
(lp6508
S'models_to_run'
p6509
asbag57
(g78
g59
NtRp6510
(dp6511
g62
(dp6512
g89
g90
ssg71
g6501
sg64
(lp6513
S':'
asbag57
(g78
g59
NtRp6514
(dp6515
g62
(dp6516
sg71
g6501
sg64
(lp6517
g57
(g58
g59
NtRp6518
(dp6519
g62
(dp6520
g70
I5
ssg71
g6514
sg64
(lp6521
g57
(g66
g59
NtRp6522
(dp6523
g62
(dp6524
g70
I4
ssg71
Nsg64
(lp6525
g57
(g73
g59
NtRp6526
(dp6527
g62
(dp6528
sg71
g6522
sg64
(lp6529
g57
(g78
g59
NtRp6530
(dp6531
g62
(dp6532
sg71
g6526
sg64
(lp6533
g57
(g58
g59
NtRp6534
(dp6535
g62
(dp6536
g70
I4
ssg71
g6530
sg64
(lp6537
S'^\\w+\\.py$'
p6538
asbasbasbag57
(g73
g59
NtRp6539
(dp6540
g62
(dp6541
sg71
g6522
sg64
(lp6542
g57
(g78
g59
NtRp6543
(dp6544
g62
(dp6545
sg71
g6539
sg64
(lp6546
g57
(g58
g59
NtRp6547
(dp6548
g62
(dp6549
g70
I4
ssg71
g6543
sg64
(lp6550
S'^cobro2/\\w+\\.py$'
p6551
asbasbasbag57
(g73
g59
NtRp6552
(dp6553
g62
(dp6554
sg71
g6522
sg64
(lp6555
g57
(g78
g59
NtRp6556
(dp6557
g62
(dp6558
sg71
g6552
sg64
(lp6559
g57
(g58
g59
NtRp6560
(dp6561
g62
(dp6562
g70
I4
ssg71
g6556
sg64
(lp6563
S'^cobro2/index/\\w+\\.py$'
p6564
asbasbasbasbasbasbasbag57
(g73
g59
NtRp6565
(dp6566
g62
(dp6567
sg71
g3878
sg64
(lp6568
g57
(g78
g59
NtRp6569
(dp6570
g62
(dp6571
g82
g83
ssg71
g6565
sg64
(lp6572
S'postprocessing'
p6573
asbag57
(g78
g59
NtRp6574
(dp6575
g62
(dp6576
g89
g90
ssg71
g6565
sg64
(lp6577
S':'
asbag57
(g78
g59
NtRp6578
(dp6579
g62
(dp6580
sg71
g6565
sg64
(lp6581
g57
(g58
g59
NtRp6582
(dp6583
g62
(dp6584
g70
I5
ssg71
g6578
sg64
(lp6585
g57
(g66
g59
NtRp6586
(dp6587
g62
(dp6588
g70
I4
ssg71
Nsg64
(lp6589
sbasbasbasbag57
(g73
g59
NtRp6590
(dp6591
g62
(dp6592
sg71
g3878
sg64
(lp6593
g57
(g78
g59
NtRp6594
(dp6595
g62
(dp6596
g82
g83
ssg71
g6590
sg64
(lp6597
S'session_cookie_expires'
p6598
asbag57
(g78
g59
NtRp6599
(dp6600
g62
(dp6601
g89
g90
ssg71
g6590
sg64
(lp6602
S':'
asbag57
(g78
g59
NtRp6603
(dp6604
g62
(dp6605
sg71
g6590
sg64
(lp6606
g57
(g58
g59
NtRp6607
(dp6608
g62
(dp6609
g70
I5
ssg71
g6603
sg64
(lp6610
S'None'
p6611
asbasbasbag57
(g73
g59
NtRp6612
(dp6613
g62
(dp6614
sg71
g3878
sg64
(lp6615
g57
(g78
g59
NtRp6616
(dp6617
g62
(dp6618
g82
g83
ssg71
g6612
sg64
(lp6619
S'session_data_name'
p6620
asbag57
(g78
g59
NtRp6621
(dp6622
g62
(dp6623
g89
g90
ssg71
g6612
sg64
(lp6624
S':'
asbag57
(g78
g59
NtRp6625
(dp6626
g62
(dp6627
sg71
g6612
sg64
(lp6628
g57
(g58
g59
NtRp6629
(dp6630
g62
(dp6631
g70
I5
ssg71
g6625
sg64
(lp6632
S'session_data_flota'
p6633
asbasbasbag57
(g73
g59
NtRp6634
(dp6635
g62
(dp6636
sg71
g3878
sg64
(lp6637
g57
(g78
g59
NtRp6638
(dp6639
g62
(dp6640
g82
g83
ssg71
g6634
sg64
(lp6641
S'session_file'
p6642
asbag57
(g78
g59
NtRp6643
(dp6644
g62
(dp6645
g89
g90
ssg71
g6634
sg64
(lp6646
S':'
asbag57
(g78
g59
NtRp6647
(dp6648
g62
(dp6649
sg71
g6634
sg64
(lp6650
g57
(g58
g59
NtRp6651
(dp6652
g62
(dp6653
g70
I5
ssg71
g6647
sg64
(lp6654
S"<open file '/home/wasuaje/Documentos/desarrollo/web2py5/applications/flota/sessions/127.0.0.1-2318b8f8-1fb4-4280-8d04-88c459a3d745', mode 'rb+' at 0xac55cb78>"
p6655
asbasbasbag57
(g73
g59
NtRp6656
(dp6657
g62
(dp6658
sg71
g3878
sg64
(lp6659
g57
(g78
g59
NtRp6660
(dp6661
g62
(dp6662
g82
g83
ssg71
g6656
sg64
(lp6663
S'session_filename'
p6664
asbag57
(g78
g59
NtRp6665
(dp6666
g62
(dp6667
g89
g90
ssg71
g6656
sg64
(lp6668
S':'
asbag57
(g78
g59
NtRp6669
(dp6670
g62
(dp6671
sg71
g6656
sg64
(lp6672
g57
(g58
g59
NtRp6673
(dp6674
g62
(dp6675
g70
I5
ssg71
g6669
sg64
(lp6676
S'/home/wasuaje/Documentos/desarrollo/web2py5/applications/flota/sessions/127.0.0.1-2318b8f8-1fb4-4280-8d04-88c459a3d745'
p6677
asbasbasbag57
(g73
g59
NtRp6678
(dp6679
g62
(dp6680
sg71
g3878
sg64
(lp6681
g57
(g78
g59
NtRp6682
(dp6683
g62
(dp6684
g82
g83
ssg71
g6678
sg64
(lp6685
S'session_id'
p6686
asbag57
(g78
g59
NtRp6687
(dp6688
g62
(dp6689
g89
g90
ssg71
g6678
sg64
(lp6690
S':'
asbag57
(g78
g59
NtRp6691
(dp6692
g62
(dp6693
sg71
g6678
sg64
(lp6694
g57
(g58
g59
NtRp6695
(dp6696
g62
(dp6697
g70
I5
ssg71
g6691
sg64
(lp6698
g475
asbasbasbag57
(g73
g59
NtRp6699
(dp6700
g62
(dp6701
sg71
g3878
sg64
(lp6702
g57
(g78
g59
NtRp6703
(dp6704
g62
(dp6705
g82
g83
ssg71
g6699
sg64
(lp6706
S'session_id_name'
p6707
asbag57
(g78
g59
NtRp6708
(dp6709
g62
(dp6710
g89
g90
ssg71
g6699
sg64
(lp6711
S':'
asbag57
(g78
g59
NtRp6712
(dp6713
g62
(dp6714
sg71
g6699
sg64
(lp6715
g57
(g58
g59
NtRp6716
(dp6717
g62
(dp6718
g70
I5
ssg71
g6712
sg64
(lp6719
g3935
asbasbasbag57
(g73
g59
NtRp6720
(dp6721
g62
(dp6722
sg71
g3878
sg64
(lp6723
g57
(g78
g59
NtRp6724
(dp6725
g62
(dp6726
g82
g83
ssg71
g6720
sg64
(lp6727
S'session_locked'
p6728
asbag57
(g78
g59
NtRp6729
(dp6730
g62
(dp6731
g89
g90
ssg71
g6720
sg64
(lp6732
S':'
asbag57
(g78
g59
NtRp6733
(dp6734
g62
(dp6735
sg71
g6720
sg64
(lp6736
g57
(g58
g59
NtRp6737
(dp6738
g62
(dp6739
g70
I5
ssg71
g6733
sg64
(lp6740
g1955
asbasbasbag57
(g73
g59
NtRp6741
(dp6742
g62
(dp6743
sg71
g3878
sg64
(lp6744
g57
(g78
g59
NtRp6745
(dp6746
g62
(dp6747
g82
g83
ssg71
g6741
sg64
(lp6748
S'session_new'
p6749
asbag57
(g78
g59
NtRp6750
(dp6751
g62
(dp6752
g89
g90
ssg71
g6741
sg64
(lp6753
S':'
asbag57
(g78
g59
NtRp6754
(dp6755
g62
(dp6756
sg71
g6741
sg64
(lp6757
g57
(g58
g59
NtRp6758
(dp6759
g62
(dp6760
g70
I5
ssg71
g6754
sg64
(lp6761
g100
asbasbasbag57
(g73
g59
NtRp6762
(dp6763
g62
(dp6764
sg71
g3878
sg64
(lp6765
g57
(g78
g59
NtRp6766
(dp6767
g62
(dp6768
g82
g83
ssg71
g6762
sg64
(lp6769
S'session_storage_type'
p6770
asbag57
(g78
g59
NtRp6771
(dp6772
g62
(dp6773
g89
g90
ssg71
g6762
sg64
(lp6774
S':'
asbag57
(g78
g59
NtRp6775
(dp6776
g62
(dp6777
sg71
g6762
sg64
(lp6778
g57
(g58
g59
NtRp6779
(dp6780
g62
(dp6781
g70
I5
ssg71
g6775
sg64
(lp6782
g3386
asbasbasbag57
(g73
g59
NtRp6783
(dp6784
g62
(dp6785
sg71
g3878
sg64
(lp6786
g57
(g78
g59
NtRp6787
(dp6788
g62
(dp6789
g82
g83
ssg71
g6783
sg64
(lp6790
S'status'
p6791
asbag57
(g78
g59
NtRp6792
(dp6793
g62
(dp6794
g89
g90
ssg71
g6783
sg64
(lp6795
S':'
asbag57
(g78
g59
NtRp6796
(dp6797
g62
(dp6798
sg71
g6783
sg64
(lp6799
g57
(g58
g59
NtRp6800
(dp6801
g62
(dp6802
g70
I5
ssg71
g6796
sg64
(lp6803
S'200'
p6804
asbasbasbag57
(g73
g59
NtRp6805
(dp6806
g62
(dp6807
sg71
g3878
sg64
(lp6808
g57
(g78
g59
NtRp6809
(dp6810
g62
(dp6811
g82
g83
ssg71
g6805
sg64
(lp6812
S'subtitle'
p6813
asbag57
(g78
g59
NtRp6814
(dp6815
g62
(dp6816
g89
g90
ssg71
g6805
sg64
(lp6817
S':'
asbag57
(g78
g59
NtRp6818
(dp6819
g62
(dp6820
sg71
g6805
sg64
(lp6821
g57
(g58
g59
NtRp6822
(dp6823
g62
(dp6824
g70
I5
ssg71
g6818
sg64
(lp6825
g4593
(S's\t\x00\x00\x00Adaptame!'
tRp6826
asbasbasbag57
(g73
g59
NtRp6827
(dp6828
g62
(dp6829
sg71
g3878
sg64
(lp6830
g57
(g78
g59
NtRp6831
(dp6832
g62
(dp6833
g82
g83
ssg71
g6827
sg64
(lp6834
S'title'
p6835
asbag57
(g78
g59
NtRp6836
(dp6837
g62
(dp6838
g89
g90
ssg71
g6827
sg64
(lp6839
S':'
asbag57
(g78
g59
NtRp6840
(dp6841
g62
(dp6842
sg71
g6827
sg64
(lp6843
g57
(g58
g59
NtRp6844
(dp6845
g62
(dp6846
g70
I5
ssg71
g6840
sg64
(lp6847
g122
asbasbasbag57
(g73
g59
NtRp6848
(dp6849
g62
(dp6850
sg71
g3878
sg64
(lp6851
g57
(g78
g59
NtRp6852
(dp6853
g62
(dp6854
g82
g83
ssg71
g6848
sg64
(lp6855
S'view'
p6856
asbag57
(g78
g59
NtRp6857
(dp6858
g62
(dp6859
g89
g90
ssg71
g6848
sg64
(lp6860
S':'
asbag57
(g78
g59
NtRp6861
(dp6862
g62
(dp6863
sg71
g6848
sg64
(lp6864
g57
(g58
g59
NtRp6865
(dp6866
g62
(dp6867
g70
I5
ssg71
g6861
sg64
(lp6868
S'cobro2/index.html'
p6869
asbasbasbasbasbsS'locals'
p6870
(dp6871
S'Service'
p6872
S"<class 'gluon.tools.Service'>"
p6873
sS'OBJECT'
p6874
S"<class 'gluon.html.OBJECT'>"
p6875
sS'_file'
p6876
S"'/flota/static/plugin_layouts/superfish.js'"
p6877
sS'SQLDB'
p6878
S"<class 'gluon.dal.DAL'>"
p6879
sg3439
S"<Storage {'_formkey[fc_cobro/3]': '9cba5e1f-6683...'', 'id': 2}>, 'user_groups': {2: 'Operator'}}>}>"
p6880
sS'LINK'
p6881
S"<class 'gluon.html.LINK'>"
p6882
sS'attrs'
p6883
S'<function attrs>'
p6884
sS'BR'
p6885
S"<class 'gluon.html.BR'>"
p6886
sS'local_import'
p6887
S'<function <lambda>>'
p6888
sS'OPTGROUP'
p6889
S"<class 'gluon.html.OPTGROUP'>"
p6890
sS'get_tarifa_from_id'
p6891
S'<function get_tarifa_from_id>'
p6892
sS'__package__'
p6893
S'None'
p6894
sS'PRE'
p6895
S"<class 'gluon.html.PRE'>"
p6896
sS'IS_INT_IN_RANGE'
p6897
S"<class 'gluon.validators.IS_INT_IN_RANGE'>"
p6898
sS'IS_LOWER'
p6899
S"<class 'gluon.validators.IS_LOWER'>"
p6900
sS'IS_STRONG'
p6901
S"<class 'gluon.validators.IS_STRONG'>"
p6902
sS'get_tarifa_chofer'
p6903
S'<function get_tarifa_chofer>'
p6904
sS'get_correlativo'
p6905
S'<function get_correlativo>'
p6906
sS'IS_IN_DB'
p6907
S"<class 'gluon.validators.IS_IN_DB'>"
p6908
sS'TAG'
p6909
S'<gluon.html.__TAG__ object>'
p6910
sS'_k'
p6911
S'18'
p6912
sS'SQLField'
p6913
S"<class 'gluon.dal.Field'>"
p6914
sS'mail'
p6915
S'<gluon.tools.Mail object>'
p6916
sS'BODY'
p6917
S"<class 'gluon.html.BODY'>"
p6918
sS'IS_DATE_IN_RANGE'
p6919
S"<class 'gluon.validators.IS_DATE_IN_RANGE'>"
p6920
sS'IFRAME'
p6921
S"<class 'gluon.html.IFRAME'>"
p6922
sS'URL'
p6923
S'<function URL>'
p6924
sS'__file__'
p6925
S"'/home/wasuaje/Documentos/desarrollo/web2py5/applications/flota/views/cobro2/index.html'"
p6926
sS'db'
p6927
S'<DAL uri="mysql://******:www4214@localhost/dbflota">'
p6928
sS'webgrid'
p6929
S"<module 'applications.flota.modules.webgrid' from 'applications/flota/modules/webgrid.pyc'>"
p6930
sS'auth'
p6931
S'<gluon.tools.Auth object>'
p6932
sS'P'
S"<class 'gluon.html.P'>"
p6933
sS'build_query'
p6934
S'<function build_query>'
p6935
sS'TFOOT'
p6936
S"<class 'gluon.html.TFOOT'>"
p6937
sS'XHTML'
p6938
S"<class 'gluon.html.XHTML'>"
p6939
sS'ON'
p6940
g1955
sS'OL'
p6941
S"<class 'gluon.html.OL'>"
p6942
sS'TEXTAREA'
p6943
S"<class 'gluon.html.TEXTAREA'>"
p6944
sS'settings'
p6945
S"<Storage {'subtitle': 'powered by web2py', 'desc...[], 'keywords': '', 'email_server': 'localhost'}>"
p6946
sS'MENU'
p6947
S"<class 'gluon.html.MENU'>"
p6948
sS'_file0'
p6949
S"'/flota/static/plugin_layouts/superfish.js'"
p6950
sS'IS_IMAGE'
p6951
S"<class 'gluon.validators.IS_IMAGE'>"
p6952
sS'EM'
p6953
S"<class 'gluon.html.EM'>"
p6954
sS'CODE'
p6955
S"<class 'gluon.html.CODE'>"
p6956
sS'HTTP'
p6957
S"<class 'gluon.http.HTTP'>"
p6958
sS'HR'
p6959
S"<class 'gluon.html.HR'>"
p6960
sS'IS_DATETIME'
p6961
S"<class 'gluon.validators.IS_DATETIME'>"
p6962
sS'Storage'
p6963
S"<class 'gluon.storage.Storage'>"
p6964
sS'STYLE'
p6965
S"<class 'gluon.html.STYLE'>"
p6966
sS'LABEL'
p6967
S"<class 'gluon.html.LABEL'>"
p6968
sS'CascadingSelect'
p6969
S"<class '__restricted__.CascadingSelect'>"
p6970
sS'CLEANUP'
p6971
S"<class 'gluon.validators.CLEANUP'>"
p6972
sS'plugins'
p6973
S'<gluon.tools.PluginManager object>'
p6974
sS'SELECT'
p6975
S"<class 'gluon.html.SELECT'>"
p6976
sS'use_janrain'
p6977
S'<function use_janrain>'
p6978
sS'CENTER'
p6979
S"<class 'gluon.html.CENTER'>"
p6980
sS'prettydate'
p6981
S'<function prettydate>'
p6982
sS'Crud'
p6983
S"<class 'gluon.tools.Crud'>"
p6984
sS'Auth'
p6985
S"<class 'gluon.tools.Auth'>"
p6986
sS'plugin_datatable'
p6987
S'<function plugin_datatable>'
p6988
sS'__builtins__'
p6989
S"{'ArithmeticError': <type 'exceptions.ArithmeticError'>, 'AssertionError': <type 'exceptions.AssertionError'>, 'AttributeError': <type 'exceptions.AttributeError'>, 'BaseException': <type 'exceptions.BaseException'>, 'BufferError': <type 'exceptions.BufferError'>, 'BytesWarning': <type 'exceptions.BytesWarning'>, 'DeprecationWarning': <type 'exceptions.DeprecationWarning'>, 'EOFError': <type 'exceptions.EOFError'>, 'Ellipsis': Ellipsis, 'EnvironmentError': <type 'exceptions.EnvironmentError'>, ...}"
p6990
sS'HTML'
p6991
S"<class 'gluon.html.HTML'>"
p6992
sS'SQLFORM'
p6993
S"<class 'gluon.sqlhtml.SQLFORM'>"
p6994
sS'_item'
p6995
S"'author'"
p6996
sS'LOAD'
p6997
S'<function LOAD>'
p6998
sS'redirect'
p6999
S'<function redirect>'
p7000
sS'FIELDSET'
p7001
S"<class 'gluon.html.FIELDSET'>"
p7002
sS'IS_EQUAL_TO'
p7003
S"<class 'gluon.validators.IS_EQUAL_TO'>"
p7004
sS'embed64'
p7005
S'<function embed64>'
p7006
sS'IS_LIST_OF'
p7007
S"<class 'gluon.validators.IS_LIST_OF'>"
p7008
sS'MyFPDF'
p7009
S"<class '__restricted__.MyFPDF'>"
p7010
sS'__name__'
p7011
S"'__restricted__'"
p7012
sS'EMBED'
p7013
S"<class 'gluon.html.EMBED'>"
p7014
sS'H2'
p7015
S"<class 'gluon.html.H2'>"
p7016
sS'H3'
p7017
S"<class 'gluon.html.H3'>"
p7018
sS'BUTTON'
p7019
S"<class 'gluon.html.BUTTON'>"
p7020
sS'H1'
p7021
S"<class 'gluon.html.H1'>"
p7022
sS'H6'
p7023
S"<class 'gluon.html.H6'>"
p7024
sS'H4'
p7025
S"<class 'gluon.html.H4'>"
p7026
sS'H5'
p7027
S"<class 'gluon.html.H5'>"
p7028
sS'UL'
p7029
S"<class 'gluon.html.UL'>"
p7030
sS'IS_UPPER'
p7031
S"<class 'gluon.validators.IS_UPPER'>"
p7032
sS'xmlescape'
p7033
S'<function xmlescape>'
p7034
sS'IS_TIME'
p7035
S"<class 'gluon.validators.IS_TIME'>"
p7036
sS'cache'
p7037
S'<gluon.cache.Cache object>'
p7038
sS'OPTION'
p7039
S"<class 'gluon.html.OPTION'>"
p7040
sS'TITLE'
p7041
S"<class 'gluon.html.TITLE'>"
p7042
sS'CRYPT'
p7043
S"<class 'gluon.validators.CRYPT'>"
p7044
sS'IS_EMPTY_OR'
p7045
S"<class 'gluon.validators.IS_EMPTY_OR'>"
p7046
sS'MARKMIN'
p7047
S"<class 'gluon.html.MARKMIN'>"
p7048
sS'INPUT'
p7049
S"<class 'gluon.html.INPUT'>"
p7050
sS'IS_DATE'
p7051
S"<class 'gluon.validators.IS_DATE'>"
p7052
sS'STRONG'
p7053
S"<class 'gluon.html.STRONG'>"
p7054
sS'COL'
p7055
S"<class 'gluon.html.COL'>"
p7056
sS'service'
p7057
S'<gluon.tools.Service object>'
p7058
sS'SCRIPT'
p7059
S"<class 'gluon.html.SCRIPT'>"
p7060
sS'TABLE'
p7061
S"<class 'gluon.html.TABLE'>"
p7062
sS'IS_IPV4'
p7063
S"<class 'gluon.validators.IS_IPV4'>"
p7064
sS'IS_LENGTH'
p7065
S"<class 'gluon.validators.IS_LENGTH'>"
p7066
sS'XML'
p7067
S"<class 'gluon.html.XML'>"
p7068
sS'B'
S"<class 'gluon.html.B'>"
p7069
sS'IMG'
p7070
S"<class 'gluon.html.IMG'>"
p7071
sS'SQLTABLE'
p7072
S"<class 'gluon.sqlhtml.SQLTABLE'>"
p7073
sS'IS_MATCH'
p7074
S"<class 'gluon.validators.IS_MATCH'>"
p7075
sS'IS_ALPHANUMERIC'
p7076
S"<class 'gluon.validators.IS_ALPHANUMERIC'>"
p7077
sS'_f'
p7078
S"'plugin_jqgrid/jquery.jqGrid.min.js'"
p7079
sS'cascade2'
p7080
S'<__restricted__.CascadingSelect object>'
p7081
sS'get_tarifa'
p7082
S'<function get_tarifa>'
p7083
sS'SPAN'
p7084
S"<class 'gluon.html.SPAN'>"
p7085
sS'IS_SLUG'
p7086
S"<class 'gluon.validators.IS_SLUG'>"
p7087
sS'BEAUTIFY'
p7088
S"<class 'gluon.html.BEAUTIFY'>"
p7089
sS'META'
p7090
S"<class 'gluon.html.META'>"
p7091
sS'dynamic_search'
p7092
S'<function dynamic_search>'
p7093
sS'HTMLMixin'
p7094
S"<class 'gluon.contrib.fpdf.html.HTMLMixin'>"
p7095
sS'FPDF'
p7096
S"<class 'gluon.contrib.fpdf.fpdf.FPDF'>"
p7097
sS'IS_EMAIL'
p7098
S"<class 'gluon.validators.IS_EMAIL'>"
p7099
sS'IS_NOT_EMPTY'
p7100
S"<class 'gluon.validators.IS_NOT_EMPTY'>"
p7101
sS'IS_FLOAT_IN_RANGE'
p7102
S"<class 'gluon.validators.IS_FLOAT_IN_RANGE'>"
p7103
sS'TBODY'
p7104
S"<class 'gluon.html.TBODY'>"
p7105
sS'CAT'
p7106
S"<class 'gluon.html.CAT'>"
p7107
sS'Field'
p7108
S"<class 'gluon.dal.Field'>"
p7109
sS'Mail'
p7110
S"<class 'gluon.tools.Mail'>"
p7111
sS'DIV'
p7112
S"<class 'gluon.html.DIV'>"
p7113
sS'LEGEND'
p7114
S"<class 'gluon.html.LEGEND'>"
p7115
sS'get_tarifa_ser'
p7116
S'<function get_tarifa_ser>'
p7117
sS'DAL'
p7118
S"<class 'gluon.dal.DAL'>"
p7119
sS'TT'
p7120
S"<class 'gluon.html.TT'>"
p7121
sS'TR'
p7122
S"<class 'gluon.html.TR'>"
p7123
sS'LI'
p7124
S"<class 'gluon.html.LI'>"
p7125
sS'autocomplete_widget'
p7126
S'<function autocomplete_widget>'
p7127
sS'TH'
p7128
S"<class 'gluon.html.TH'>"
p7129
sS'TD'
p7130
S"<class 'gluon.html.TD'>"
p7131
sS'PluginManager'
p7132
S"<class 'gluon.tools.PluginManager'>"
p7133
sS'IS_URL'
p7134
S"<class 'gluon.validators.IS_URL'>"
p7135
sS'plugin_datatable_include'
p7136
S'<function plugin_datatable_include>'
p7137
sS'A'
S"<class 'gluon.html.A'>"
p7138
sS'HEAD'
p7139
S"<class 'gluon.html.HEAD'>"
p7140
sS'IS_DATETIME_IN_RANGE'
p7141
S"<class 'gluon.validators.IS_DATETIME_IN_RANGE'>"
p7142
sS'FORM'
p7143
S"<class 'gluon.html.FORM'>"
p7144
sS'I'
S"<class 'gluon.html.I'>"
p7145
sS'crud'
p7146
S'<gluon.tools.Crud object>'
p7147
sS'IS_NOT_IN_DB'
p7148
S"<class 'gluon.validators.IS_NOT_IN_DB'>"
p7149
sS'plugin_jqgrid'
p7150
S'<function plugin_jqgrid>'
p7151
sg3873
S"<Storage {'body': <cStringIO.StringO object at 0...da> at 0xace78534>, 'view': 'cobro2/index.html'}>"
p7152
sS'THEAD'
p7153
S"<class 'gluon.html.THEAD'>"
p7154
sS'IS_NULL_OR'
p7155
S"<class 'gluon.validators.IS_EMPTY_OR'>"
p7156
sS'au__tocomplete_widget'
p7157
S'<function au__tocomplete_widget>'
p7158
sS'legacy_db'
p7159
S'<DAL uri="mysql://******:www4214@localhost/dbflota">'
p7160
sS'COLGROUP'
p7161
S"<class 'gluon.html.COLGROUP'>"
p7162
sg56
S"<Storage {'function': 'index', 'body': <cStringI...applications/flota/', 'post_vars': <Storage {}>}>"
p7163
sS'IS_EXPR'
p7164
S"<class 'gluon.validators.IS_EXPR'>"
p7165
sS'T'
S'<gluon.languages.translator object>'
p7166
sS'cascade'
p7167
S'<__restricted__.CascadingSelect object>'
p7168
sS'IS_IN_SET'
p7169
S"<class 'gluon.validators.IS_IN_SET'>"
p7170
sS'IS_UPLOAD_FILENAME'
p7171
S"<class 'gluon.validators.IS_UPLOAD_FILENAME'>"
p7172
sS'IS_DECIMAL_IN_RANGE'
p7173
S"<class 'gluon.validators.IS_DECIMAL_IN_RANGE'>"
p7174
sssS'traceback'
p7175
S'Traceback (most recent call last):\n  File "/home/wasuaje/Documentos/desarrollo/web2py5/gluon/restricted.py", line 212, in restricted\n    exec ccode in environment\n  File "/home/wasuaje/Documentos/desarrollo/web2py5/applications/flota/views/cobro2/index.html", line 51, in <module>\nTypeError: plugin_jqgrid() got an unexpected keyword argument \'cold_width\'\n'
p7176
s.