(dp1
S'output'
p2
S"<type 'exceptions.SyntaxError'> invalid syntax (index.html, line 51)"
p3
sS'layer'
p4
S'/home/wasuaje/Documentos/desarrollo/web2py5/applications/flota/views/cobro2/index.html'
p5
sS'code'
p6
S'response.write(\'<!DOCTYPE html PUBLIC "-//W3C//DTD XHTML 1.0 Strict//EN" "http://www.w3.org/TR/xhtml1/DTD/xhtml1-strict.dtd">\\n<!--\\n\\nDesign by Free CSS Templates\\nhttp://www.freecsstemplates.org\\nReleased for free under a Creative Commons Attribution 2.5 License\\n\\nTitle      : Squarely\\nVersion    : 1.0\\nReleased   : 20080519\\nDescription: A two-column, fixed-width and lightweight template ideal for 1024x768 resolutions. Suitable for blogs and small websites.\\n\\n-->\\n<html xmlns="http://www.w3.org/1999/xhtml">\\n <head>\\n  <title>\\n   .:Control de Flota:.\\n  </title>\\n  \', escape=False)\nresponse.files.append(URL(request.application,\'static\',\'plugin_layouts/layouts/Squarely/default.css\'))\nresponse.write(\'\\n  \', escape=False)\nresponse.files.append(URL(\'static\',\'plugin_layouts/superfish.js\'))\nresponse.write(\'\\n  \', escape=False)\nresponse.files.insert(0,URL(\'static\',\'js/jquery.js\'))\nresponse.files.insert(1,URL(\'static\',\'css/calendar.css\'))\nresponse.files.insert(2,URL(\'static\',\'js/calendar.js\'))\nfor _item in response.meta or []:\n    response.write(\'\\n     <meta name="\', escape=False)\n    response.write(_item)\n    response.write(\'" content="\', escape=False)\n    response.write(response.meta[_item])\n    response.write(\'" />\', escape=False)\n    pass\nfor _k,_file in enumerate(response.files or []):\n    if _file in response.files[:_k]:\n        continue\n    _file0=_file.lower().split(\'?\')[0]\n    if _file0.endswith(\'.css\'):\n        response.write(\'\\n     <link href="\', escape=False)\n        response.write(_file)\n        response.write(\'" rel="stylesheet" type="text/css" />\', escape=False)\n    elif _file0.endswith(\'.js\'):\n        response.write(\'\\n     <script src="\', escape=False)\n        response.write(_file)\n        response.write(\'" type="text/javascript"></script>\', escape=False)\n        pass\n    pass\nresponse.write(\'\\n    <script type="text/javascript"><!--\\n    // These variables are used by the web2py_ajax_init function in web2py_ajax.js (which is loaded below).\\n    var w2p_ajax_confirm_message = "\', escape=False)\nresponse.write(T(\'Are you sure you want to delete this object?\'))\nresponse.write(\'";\\n    var w2p_ajax_date_format = "\', escape=False)\nresponse.write(T(\'%Y-%m-%d\'))\nresponse.write(\'";\\n    var w2p_ajax_datetime_format = "\', escape=False)\nresponse.write(T(\'%Y-%m-%d %H:%M:%S\'))\nresponse.write(\'";\\n    //--></script>\\n    <script src="\', escape=False)\nresponse.write(URL(\'static\',\'js/web2py_ajax.js\'))\nresponse.write(\'" type="text/javascript"></script>\\n\', escape=False)\nresponse.write(\'\\n  <style>\\nul.web2py-menu-vertical { width: 150px; position: relative; top:1em; left:1em;  z-index:30; border:0; margin:0; padding: 0; list-style: none; text-decoration: none;}\\nul.web2py-menu-vertical li { margin:0; padding:0; border:0; width: 150px; background: black; text-align:left;}\\nul.web2py-menu-vertical li a { margin:0; padding: 1px 3px 1px 3px; border:0; width: 144px; color: white; font-size:12px;}\\ndiv.flash { position: fixed; float: right; padding: 10px; top: 10px; right: 30px; opacity: 0.75; margin: 10px 10px 10px 10px; text-align: center; clear: both; color: #fff; font-size: 11pt; text-align: center; vertical-align: middle; cursor: pointer; background: black; border: 2px solid #fff; -moz-border-radius: 5px; -webkit-border-radius: 5px; z-index: 2; }\\ndiv.error { background-color: red; color: white; padding: 3px; }\\n.auth_navbar { text-align:right; z-index:20; position: absolute; top: 2px; right:30px; border:0; padding:0 }\\n  </style>\\n </head>\\n <body>\\n  <!-- start header -->\\n  \', escape=False)\ntry:\n    response.write(auth.navbar(action=URL(\'default\',\'user\')))\nexcept:pass\nresponse.write(\'\\n\\n  <div id="wrapper">\\n   <!-- start header -->\\n   <div id="logo">\\n    <h1>\\n     <!--\', escape=False)\nresponse.write(response.title or request.application)\nresponse.write(\'-->\\n\\t FLOTACONTROL\\n    </h1>\\n    <h2>\\n     Sistema de control de flota \\n    </h2>\\n   </div>\\n   <div id="header">\\n    <div id="menu">\\n     \', escape=False)\nresponse.write(MENU(response.menu,_class=\'web2py-menu\'))\nresponse.write(\'\\n    <script>\\n      jQuery(document).ready(function(){jQuery(\\\'ul.web2py-menu\\\').superfish({delay:400});});\\n    </script>\\n    </div>\\n   </div>\\n   <!-- end header -->\\n  </div>\\n  <!-- start page -->\\n  <div id="page">\\n   <!-- start content -->\\n   <div id="content">\\n    <div class="flash">\', escape=False)\nresponse.write(response.flash or \'\')\nresponse.write(\'</div>\\n     \\n\\t \', escape=False)\nresponse.write(\'\\n\\n<h2>Cobros</h2>\\n<hr/>\\n</br>\\n\', escape=False)\nresponse.write(plugin_jqgrid(db.fc_cobro,columns=cold_width=[80,20,80,120]))\nresponse.write(\'\\n\\n\', escape=False)\nif \'grid\' in globals():\n    response.write(\'\\n\', escape=False)\n    response.write(grid)\n    response.write(\'\\n\\n\', escape=False)\nelse:\n    response.write(\'\\n\\n\', escape=False)\n    pass\nresponse.write(\'\\n\', escape=False)\nresponse.write(\'\\n\\t \\n\\t\\n   </div>\\n   <!-- end content -->\\n   <!-- start sidebar -\\n   <div id="sidebar">\\n    <ul>\\n     <li id="search">\\n      <h2>\\n       Search\\n      </h2>\\n      <form method="get" action="">\\n       <fieldset>\\n        <input type="text" id="s" name="s" value="" />\\n        <input type="submit" id="x" value="Search" />\\n       </fieldset>\\n      </form>\\n     </li>\\n     <li>\\n      <h2>\\n       Lorem Ipsum\\n      </h2>\\n      <ul>\\n       <li>\\n        <a href="#">\\n         Fusce dui neque fringilla\\n        </a>\\n       </li>\\n       <li>\\n        <a href="#">\\n         Eget tempor eget nonummy\\n        </a>\\n       </li>\\n       <li>\\n        <a href="#">\\n         Magna lacus bibendum mauris\\n        </a>\\n       </li>\\n       <li>\\n        <a href="#">\\n         Nec metus sed donec\\n        </a>\\n       </li>\\n       <li>\\n        <a href="#">\\n         Magna lacus bibendum mauris\\n        </a>\\n       </li>\\n       <li>\\n        <a href="#">\\n         Velit semper nisi molestie\\n        </a>\\n       </li>\\n       <li>\\n        <a href="#">\\n         Eget tempor eget nonummy\\n        </a>\\n       </li>\\n      </ul>\\n     </li>\\n     <li>\\n      <h2>\\n       Volutpat Dolore\\n      </h2>\\n      <ul>\\n       <li>\\n        <a href="#">\\n         Nec metus sed donec\\n        </a>\\n       </li>\\n       <li>\\n        <a href="#">\\n         Magna lacus bibendum mauris\\n        </a>\\n       </li>\\n       <li>\\n        <a href="#">\\n         Velit semper nisi molestie\\n        </a>\\n       </li>\\n       <li>\\n        <a href="#">\\n         Eget tempor eget nonummy\\n        </a>\\n       </li>\\n       <li>\\n        <a href="#">\\n         Nec metus sed donec\\n        </a>\\n       </li>\\n       <li>\\n        <a href="#">\\n         Magna lacus bibendum mauris\\n        </a>\\n       </li>\\n       <li>\\n        <a href="#">\\n         Velit semper nisi molestie\\n        </a>\\n       </li>\\n      </ul>\\n     </li>\\n    </ul>\\n   </div>\\n    end sidebar -->\\n   <div style="clear: both;">\\n    &nbsp;\\n   </div>\\n  </div>\\n  <!-- end page -->\\n  <!-- start footer -->\\n  <div id="footer">\\n   <p id="legal">\\n    ( c ) 2008. All Rights Reserved.\\n    <a href="http://www.freecsstemplates.org/">\\n     Bestfriends\\n    </a>\\n    designed by\\n    <a href="http://www.freecsstemplates.org/">\\n     Free CSS Templates\\n    </a>\\n    .\\n   </p>\\n  </div>\\n  <!-- end footer -->\\n </body>\\n</html>\\n\', escape=False)'
p7
sS'snapshot'
p8
(dp9
S'exception'
p10
(dp11
S'__getslice__'
p12
S"<method-wrapper '__getslice__' of exceptions.SyntaxError object>"
p13
sS'text'
p14
S"'response.write(plugin_jqgrid(db.fc_cobro,columns=cold_width=[80,20,80,120]))\\n'"
p15
sS'__str__'
p16
S"<method-wrapper '__str__' of exceptions.SyntaxError object>"
p17
sS'__reduce__'
p18
S'<built-in method __reduce__ of exceptions.SyntaxError object>'
p19
sS'__dict__'
p20
S'{}'
p21
sS'__sizeof__'
p22
S'<built-in method __sizeof__ of exceptions.SyntaxError object>'
p23
sS'__init__'
p24
S"<method-wrapper '__init__' of exceptions.SyntaxError object>"
p25
sS'__setattr__'
p26
S"<method-wrapper '__setattr__' of exceptions.SyntaxError object>"
p27
sS'__reduce_ex__'
p28
S'<built-in method __reduce_ex__ of exceptions.SyntaxError object>'
p29
sS'__new__'
p30
S'<built-in method __new__ of type object>'
p31
sS'__format__'
p32
S'<built-in method __format__ of exceptions.SyntaxError object>'
p33
sS'__class__'
p34
S"<type 'exceptions.SyntaxError'>"
p35
sS'filename'
p36
S"'/home/wasuaje/Documentos/desarrollo/web2py5/applications/flota/views/cobro2/index.html'"
p37
sS'lineno'
p38
S'51'
p39
sS'msg'
p40
S"'invalid syntax'"
p41
sS'__doc__'
p42
S"'Invalid syntax.'"
p43
sS'__getitem__'
p44
S"<method-wrapper '__getitem__' of exceptions.SyntaxError object>"
p45
sS'__setstate__'
p46
S'<built-in method __setstate__ of exceptions.SyntaxError object>'
p47
sS'__getattribute__'
p48
S"<method-wrapper '__getattribute__' of exceptions.SyntaxError object>"
p49
sS'print_file_and_line'
p50
S'None'
p51
sS'args'
p52
S"('invalid syntax', ('/home/wasuaje/Documentos/desarrollo/web2py5/applications/flota/views/cobro2/index.html', 51, 60, 'response.write(plugin_jqgrid(db.fc_cobro,columns=cold_width=[80,20,80,120]))\\n'))"
p53
sS'__subclasshook__'
p54
S'<built-in method __subclasshook__ of type object>'
p55
sS'offset'
p56
S'60'
p57
sS'__unicode__'
p58
S'<built-in method __unicode__ of exceptions.SyntaxError object>'
p59
sS'__delattr__'
p60
S"<method-wrapper '__delattr__' of exceptions.SyntaxError object>"
p61
sS'__repr__'
p62
S"<method-wrapper '__repr__' of exceptions.SyntaxError object>"
p63
sS'__hash__'
p64
S"<method-wrapper '__hash__' of exceptions.SyntaxError object>"
p65
ssS'evalue'
p66
S'invalid syntax (index.html, line 51)'
p67
sS'request'
p68
ccopy_reg
_reconstructor
p69
(cgluon.html
BEAUTIFY
p70
c__builtin__
object
p71
NtRp72
(dp73
S'attributes'
p74
(dp75
sS'components'
p76
(lp77
g69
(cgluon.html
TABLE
p78
g71
NtRp79
(dp80
g74
(dp81
S'level'
p82
I5
ssS'parent'
p83
Nsg76
(lp84
g69
(cgluon.html
TR
p85
g71
NtRp86
(dp87
g74
(dp88
sg83
g79
sg76
(lp89
g69
(cgluon.html
TD
p90
g71
NtRp91
(dp92
g74
(dp93
S'_style'
p94
S'font-weight:bold;vertical-align:top'
p95
ssg83
g86
sg76
(lp96
S'ajax'
p97
asbag69
(g90
g71
NtRp98
(dp99
g74
(dp100
S'_valign'
p101
S'top'
p102
ssg83
g86
sg76
(lp103
S':'
asbag69
(g90
g71
NtRp104
(dp105
g74
(dp106
sg83
g86
sg76
(lp107
g69
(g70
g71
NtRp108
(dp109
g74
(dp110
g82
I5
ssg83
g104
sg76
(lp111
S'False'
p112
asbasbasbag69
(g85
g71
NtRp113
(dp114
g74
(dp115
sg83
g79
sg76
(lp116
g69
(g90
g71
NtRp117
(dp118
g74
(dp119
g94
g95
ssg83
g113
sg76
(lp120
S'application'
p121
asbag69
(g90
g71
NtRp122
(dp123
g74
(dp124
g101
g102
ssg83
g113
sg76
(lp125
S':'
asbag69
(g90
g71
NtRp126
(dp127
g74
(dp128
sg83
g113
sg76
(lp129
g69
(g70
g71
NtRp130
(dp131
g74
(dp132
g82
I5
ssg83
g126
sg76
(lp133
S'flota'
p134
asbasbasbag69
(g85
g71
NtRp135
(dp136
g74
(dp137
sg83
g79
sg76
(lp138
g69
(g90
g71
NtRp139
(dp140
g74
(dp141
g94
g95
ssg83
g135
sg76
(lp142
g52
asbag69
(g90
g71
NtRp143
(dp144
g74
(dp145
g101
g102
ssg83
g135
sg76
(lp146
S':'
asbag69
(g90
g71
NtRp147
(dp148
g74
(dp149
sg83
g135
sg76
(lp150
g69
(g70
g71
NtRp151
(dp152
g74
(dp153
g82
I5
ssg83
g147
sg76
(lp154
g69
(g78
g71
NtRp155
(dp156
g74
(dp157
g82
I4
ssg83
Nsg76
(lp158
sbasbasbasbag69
(g85
g71
NtRp159
(dp160
g74
(dp161
sg83
g79
sg76
(lp162
g69
(g90
g71
NtRp163
(dp164
g74
(dp165
g94
g95
ssg83
g159
sg76
(lp166
S'body'
p167
asbag69
(g90
g71
NtRp168
(dp169
g74
(dp170
g101
g102
ssg83
g159
sg76
(lp171
S':'
asbag69
(g90
g71
NtRp172
(dp173
g74
(dp174
sg83
g159
sg76
(lp175
g69
(g70
g71
NtRp176
(dp177
g74
(dp178
g82
I5
ssg83
g172
sg76
(lp179
S'<cStringIO.StringO object at 0xa42d7a0>'
p180
asbasbasbag69
(g85
g71
NtRp181
(dp182
g74
(dp183
sg83
g79
sg76
(lp184
g69
(g90
g71
NtRp185
(dp186
g74
(dp187
g94
g95
ssg83
g181
sg76
(lp188
S'cid'
p189
asbag69
(g90
g71
NtRp190
(dp191
g74
(dp192
g101
g102
ssg83
g181
sg76
(lp193
S':'
asbag69
(g90
g71
NtRp194
(dp195
g74
(dp196
sg83
g181
sg76
(lp197
g69
(g70
g71
NtRp198
(dp199
g74
(dp200
g82
I5
ssg83
g194
sg76
(lp201
S'None'
p202
asbasbasbag69
(g85
g71
NtRp203
(dp204
g74
(dp205
sg83
g79
sg76
(lp206
g69
(g90
g71
NtRp207
(dp208
g74
(dp209
g94
g95
ssg83
g203
sg76
(lp210
S'client'
p211
asbag69
(g90
g71
NtRp212
(dp213
g74
(dp214
g101
g102
ssg83
g203
sg76
(lp215
S':'
asbag69
(g90
g71
NtRp216
(dp217
g74
(dp218
sg83
g203
sg76
(lp219
g69
(g70
g71
NtRp220
(dp221
g74
(dp222
g82
I5
ssg83
g216
sg76
(lp223
S'127.0.0.1'
p224
asbasbasbag69
(g85
g71
NtRp225
(dp226
g74
(dp227
sg83
g79
sg76
(lp228
g69
(g90
g71
NtRp229
(dp230
g74
(dp231
g94
g95
ssg83
g225
sg76
(lp232
S'controller'
p233
asbag69
(g90
g71
NtRp234
(dp235
g74
(dp236
g101
g102
ssg83
g225
sg76
(lp237
S':'
asbag69
(g90
g71
NtRp238
(dp239
g74
(dp240
sg83
g225
sg76
(lp241
g69
(g70
g71
NtRp242
(dp243
g74
(dp244
g82
I5
ssg83
g238
sg76
(lp245
S'cobro2'
p246
asbasbasbag69
(g85
g71
NtRp247
(dp248
g74
(dp249
sg83
g79
sg76
(lp250
g69
(g90
g71
NtRp251
(dp252
g74
(dp253
g94
g95
ssg83
g247
sg76
(lp254
S'cookies'
p255
asbag69
(g90
g71
NtRp256
(dp257
g74
(dp258
g101
g102
ssg83
g247
sg76
(lp259
S':'
asbag69
(g90
g71
NtRp260
(dp261
g74
(dp262
sg83
g247
sg76
(lp263
g69
(g70
g71
NtRp264
(dp265
g74
(dp266
g82
I5
ssg83
g260
sg76
(lp267
g69
(g78
g71
NtRp268
(dp269
g74
(dp270
g82
I4
ssg83
Nsg76
(lp271
g69
(g85
g71
NtRp272
(dp273
g74
(dp274
sg83
g268
sg76
(lp275
g69
(g90
g71
NtRp276
(dp277
g74
(dp278
g94
g95
ssg83
g272
sg76
(lp279
S'session_id_admin'
p280
asbag69
(g90
g71
NtRp281
(dp282
g74
(dp283
g101
g102
ssg83
g272
sg76
(lp284
S':'
asbag69
(g90
g71
NtRp285
(dp286
g74
(dp287
sg83
g272
sg76
(lp288
g69
(g70
g71
NtRp289
(dp290
g74
(dp291
g82
I4
ssg83
g285
sg76
(lp292
S'127.0.0.1-5c1b3d16-6e97-4af3-8fde-d320400f80f4'
p293
ag69
(g78
g71
NtRp294
(dp295
g74
(dp296
g82
I3
ssg83
Nsg76
(lp297
g69
(g85
g71
NtRp298
(dp299
g74
(dp300
sg83
g294
sg76
(lp301
g69
(g90
g71
NtRp302
(dp303
g74
(dp304
g94
g95
ssg83
g298
sg76
(lp305
S'comment'
p306
asbag69
(g90
g71
NtRp307
(dp308
g74
(dp309
g101
g102
ssg83
g298
sg76
(lp310
S':'
asbag69
(g90
g71
NtRp311
(dp312
g74
(dp313
sg83
g298
sg76
(lp314
g69
(g70
g71
NtRp315
(dp316
g74
(dp317
g82
I3
ssg83
g311
sg76
(lp318
S''
asbasbasbag69
(g85
g71
NtRp319
(dp320
g74
(dp321
sg83
g294
sg76
(lp322
g69
(g90
g71
NtRp323
(dp324
g74
(dp325
g94
g95
ssg83
g319
sg76
(lp326
S'domain'
p327
asbag69
(g90
g71
NtRp328
(dp329
g74
(dp330
g101
g102
ssg83
g319
sg76
(lp331
S':'
asbag69
(g90
g71
NtRp332
(dp333
g74
(dp334
sg83
g319
sg76
(lp335
g69
(g70
g71
NtRp336
(dp337
g74
(dp338
g82
I3
ssg83
g332
sg76
(lp339
S''
asbasbasbag69
(g85
g71
NtRp340
(dp341
g74
(dp342
sg83
g294
sg76
(lp343
g69
(g90
g71
NtRp344
(dp345
g74
(dp346
g94
g95
ssg83
g340
sg76
(lp347
S'expires'
p348
asbag69
(g90
g71
NtRp349
(dp350
g74
(dp351
g101
g102
ssg83
g340
sg76
(lp352
S':'
asbag69
(g90
g71
NtRp353
(dp354
g74
(dp355
sg83
g340
sg76
(lp356
g69
(g70
g71
NtRp357
(dp358
g74
(dp359
g82
I3
ssg83
g353
sg76
(lp360
S''
asbasbasbag69
(g85
g71
NtRp361
(dp362
g74
(dp363
sg83
g294
sg76
(lp364
g69
(g90
g71
NtRp365
(dp366
g74
(dp367
g94
g95
ssg83
g361
sg76
(lp368
S'httponly'
p369
asbag69
(g90
g71
NtRp370
(dp371
g74
(dp372
g101
g102
ssg83
g361
sg76
(lp373
S':'
asbag69
(g90
g71
NtRp374
(dp375
g74
(dp376
sg83
g361
sg76
(lp377
g69
(g70
g71
NtRp378
(dp379
g74
(dp380
g82
I3
ssg83
g374
sg76
(lp381
S''
asbasbasbag69
(g85
g71
NtRp382
(dp383
g74
(dp384
sg83
g294
sg76
(lp385
g69
(g90
g71
NtRp386
(dp387
g74
(dp388
g94
g95
ssg83
g382
sg76
(lp389
S'max-age'
p390
asbag69
(g90
g71
NtRp391
(dp392
g74
(dp393
g101
g102
ssg83
g382
sg76
(lp394
S':'
asbag69
(g90
g71
NtRp395
(dp396
g74
(dp397
sg83
g382
sg76
(lp398
g69
(g70
g71
NtRp399
(dp400
g74
(dp401
g82
I3
ssg83
g395
sg76
(lp402
S''
asbasbasbag69
(g85
g71
NtRp403
(dp404
g74
(dp405
sg83
g294
sg76
(lp406
g69
(g90
g71
NtRp407
(dp408
g74
(dp409
g94
g95
ssg83
g403
sg76
(lp410
S'path'
p411
asbag69
(g90
g71
NtRp412
(dp413
g74
(dp414
g101
g102
ssg83
g403
sg76
(lp415
S':'
asbag69
(g90
g71
NtRp416
(dp417
g74
(dp418
sg83
g403
sg76
(lp419
g69
(g70
g71
NtRp420
(dp421
g74
(dp422
g82
I3
ssg83
g416
sg76
(lp423
S''
asbasbasbag69
(g85
g71
NtRp424
(dp425
g74
(dp426
sg83
g294
sg76
(lp427
g69
(g90
g71
NtRp428
(dp429
g74
(dp430
g94
g95
ssg83
g424
sg76
(lp431
S'secure'
p432
asbag69
(g90
g71
NtRp433
(dp434
g74
(dp435
g101
g102
ssg83
g424
sg76
(lp436
S':'
asbag69
(g90
g71
NtRp437
(dp438
g74
(dp439
sg83
g424
sg76
(lp440
g69
(g70
g71
NtRp441
(dp442
g74
(dp443
g82
I3
ssg83
g437
sg76
(lp444
S''
asbasbasbag69
(g85
g71
NtRp445
(dp446
g74
(dp447
sg83
g294
sg76
(lp448
g69
(g90
g71
NtRp449
(dp450
g74
(dp451
g94
g95
ssg83
g445
sg76
(lp452
S'version'
p453
asbag69
(g90
g71
NtRp454
(dp455
g74
(dp456
g101
g102
ssg83
g445
sg76
(lp457
S':'
asbag69
(g90
g71
NtRp458
(dp459
g74
(dp460
sg83
g445
sg76
(lp461
g69
(g70
g71
NtRp462
(dp463
g74
(dp464
g82
I3
ssg83
g458
sg76
(lp465
S''
asbasbasbasbasbasbasbag69
(g85
g71
NtRp466
(dp467
g74
(dp468
sg83
g268
sg76
(lp469
g69
(g90
g71
NtRp470
(dp471
g74
(dp472
g94
g95
ssg83
g466
sg76
(lp473
S'session_id_flota'
p474
asbag69
(g90
g71
NtRp475
(dp476
g74
(dp477
g101
g102
ssg83
g466
sg76
(lp478
S':'
asbag69
(g90
g71
NtRp479
(dp480
g74
(dp481
sg83
g466
sg76
(lp482
g69
(g70
g71
NtRp483
(dp484
g74
(dp485
g82
I4
ssg83
g479
sg76
(lp486
S'127.0.0.1-2318b8f8-1fb4-4280-8d04-88c459a3d745'
p487
ag69
(g78
g71
NtRp488
(dp489
g74
(dp490
g82
I3
ssg83
Nsg76
(lp491
g69
(g85
g71
NtRp492
(dp493
g74
(dp494
sg83
g488
sg76
(lp495
g69
(g90
g71
NtRp496
(dp497
g74
(dp498
g94
g95
ssg83
g492
sg76
(lp499
g306
asbag69
(g90
g71
NtRp500
(dp501
g74
(dp502
g101
g102
ssg83
g492
sg76
(lp503
S':'
asbag69
(g90
g71
NtRp504
(dp505
g74
(dp506
sg83
g492
sg76
(lp507
g69
(g70
g71
NtRp508
(dp509
g74
(dp510
g82
I3
ssg83
g504
sg76
(lp511
S''
asbasbasbag69
(g85
g71
NtRp512
(dp513
g74
(dp514
sg83
g488
sg76
(lp515
g69
(g90
g71
NtRp516
(dp517
g74
(dp518
g94
g95
ssg83
g512
sg76
(lp519
g327
asbag69
(g90
g71
NtRp520
(dp521
g74
(dp522
g101
g102
ssg83
g512
sg76
(lp523
S':'
asbag69
(g90
g71
NtRp524
(dp525
g74
(dp526
sg83
g512
sg76
(lp527
g69
(g70
g71
NtRp528
(dp529
g74
(dp530
g82
I3
ssg83
g524
sg76
(lp531
S''
asbasbasbag69
(g85
g71
NtRp532
(dp533
g74
(dp534
sg83
g488
sg76
(lp535
g69
(g90
g71
NtRp536
(dp537
g74
(dp538
g94
g95
ssg83
g532
sg76
(lp539
g348
asbag69
(g90
g71
NtRp540
(dp541
g74
(dp542
g101
g102
ssg83
g532
sg76
(lp543
S':'
asbag69
(g90
g71
NtRp544
(dp545
g74
(dp546
sg83
g532
sg76
(lp547
g69
(g70
g71
NtRp548
(dp549
g74
(dp550
g82
I3
ssg83
g544
sg76
(lp551
S''
asbasbasbag69
(g85
g71
NtRp552
(dp553
g74
(dp554
sg83
g488
sg76
(lp555
g69
(g90
g71
NtRp556
(dp557
g74
(dp558
g94
g95
ssg83
g552
sg76
(lp559
g369
asbag69
(g90
g71
NtRp560
(dp561
g74
(dp562
g101
g102
ssg83
g552
sg76
(lp563
S':'
asbag69
(g90
g71
NtRp564
(dp565
g74
(dp566
sg83
g552
sg76
(lp567
g69
(g70
g71
NtRp568
(dp569
g74
(dp570
g82
I3
ssg83
g564
sg76
(lp571
S''
asbasbasbag69
(g85
g71
NtRp572
(dp573
g74
(dp574
sg83
g488
sg76
(lp575
g69
(g90
g71
NtRp576
(dp577
g74
(dp578
g94
g95
ssg83
g572
sg76
(lp579
g390
asbag69
(g90
g71
NtRp580
(dp581
g74
(dp582
g101
g102
ssg83
g572
sg76
(lp583
S':'
asbag69
(g90
g71
NtRp584
(dp585
g74
(dp586
sg83
g572
sg76
(lp587
g69
(g70
g71
NtRp588
(dp589
g74
(dp590
g82
I3
ssg83
g584
sg76
(lp591
S''
asbasbasbag69
(g85
g71
NtRp592
(dp593
g74
(dp594
sg83
g488
sg76
(lp595
g69
(g90
g71
NtRp596
(dp597
g74
(dp598
g94
g95
ssg83
g592
sg76
(lp599
g411
asbag69
(g90
g71
NtRp600
(dp601
g74
(dp602
g101
g102
ssg83
g592
sg76
(lp603
S':'
asbag69
(g90
g71
NtRp604
(dp605
g74
(dp606
sg83
g592
sg76
(lp607
g69
(g70
g71
NtRp608
(dp609
g74
(dp610
g82
I3
ssg83
g604
sg76
(lp611
S''
asbasbasbag69
(g85
g71
NtRp612
(dp613
g74
(dp614
sg83
g488
sg76
(lp615
g69
(g90
g71
NtRp616
(dp617
g74
(dp618
g94
g95
ssg83
g612
sg76
(lp619
g432
asbag69
(g90
g71
NtRp620
(dp621
g74
(dp622
g101
g102
ssg83
g612
sg76
(lp623
S':'
asbag69
(g90
g71
NtRp624
(dp625
g74
(dp626
sg83
g612
sg76
(lp627
g69
(g70
g71
NtRp628
(dp629
g74
(dp630
g82
I3
ssg83
g624
sg76
(lp631
S''
asbasbasbag69
(g85
g71
NtRp632
(dp633
g74
(dp634
sg83
g488
sg76
(lp635
g69
(g90
g71
NtRp636
(dp637
g74
(dp638
g94
g95
ssg83
g632
sg76
(lp639
g453
asbag69
(g90
g71
NtRp640
(dp641
g74
(dp642
g101
g102
ssg83
g632
sg76
(lp643
S':'
asbag69
(g90
g71
NtRp644
(dp645
g74
(dp646
sg83
g632
sg76
(lp647
g69
(g70
g71
NtRp648
(dp649
g74
(dp650
g82
I3
ssg83
g644
sg76
(lp651
S''
asbasbasbasbasbasbasbag69
(g85
g71
NtRp652
(dp653
g74
(dp654
sg83
g268
sg76
(lp655
g69
(g90
g71
NtRp656
(dp657
g74
(dp658
g94
g95
ssg83
g652
sg76
(lp659
S'session_id_pyrest'
p660
asbag69
(g90
g71
NtRp661
(dp662
g74
(dp663
g101
g102
ssg83
g652
sg76
(lp664
S':'
asbag69
(g90
g71
NtRp665
(dp666
g74
(dp667
sg83
g652
sg76
(lp668
g69
(g70
g71
NtRp669
(dp670
g74
(dp671
g82
I4
ssg83
g665
sg76
(lp672
S'127.0.0.1-adadd0db-c240-4ea8-9681-bd188b14643c'
p673
ag69
(g78
g71
NtRp674
(dp675
g74
(dp676
g82
I3
ssg83
Nsg76
(lp677
g69
(g85
g71
NtRp678
(dp679
g74
(dp680
sg83
g674
sg76
(lp681
g69
(g90
g71
NtRp682
(dp683
g74
(dp684
g94
g95
ssg83
g678
sg76
(lp685
g306
asbag69
(g90
g71
NtRp686
(dp687
g74
(dp688
g101
g102
ssg83
g678
sg76
(lp689
S':'
asbag69
(g90
g71
NtRp690
(dp691
g74
(dp692
sg83
g678
sg76
(lp693
g69
(g70
g71
NtRp694
(dp695
g74
(dp696
g82
I3
ssg83
g690
sg76
(lp697
S''
asbasbasbag69
(g85
g71
NtRp698
(dp699
g74
(dp700
sg83
g674
sg76
(lp701
g69
(g90
g71
NtRp702
(dp703
g74
(dp704
g94
g95
ssg83
g698
sg76
(lp705
g327
asbag69
(g90
g71
NtRp706
(dp707
g74
(dp708
g101
g102
ssg83
g698
sg76
(lp709
S':'
asbag69
(g90
g71
NtRp710
(dp711
g74
(dp712
sg83
g698
sg76
(lp713
g69
(g70
g71
NtRp714
(dp715
g74
(dp716
g82
I3
ssg83
g710
sg76
(lp717
S''
asbasbasbag69
(g85
g71
NtRp718
(dp719
g74
(dp720
sg83
g674
sg76
(lp721
g69
(g90
g71
NtRp722
(dp723
g74
(dp724
g94
g95
ssg83
g718
sg76
(lp725
g348
asbag69
(g90
g71
NtRp726
(dp727
g74
(dp728
g101
g102
ssg83
g718
sg76
(lp729
S':'
asbag69
(g90
g71
NtRp730
(dp731
g74
(dp732
sg83
g718
sg76
(lp733
g69
(g70
g71
NtRp734
(dp735
g74
(dp736
g82
I3
ssg83
g730
sg76
(lp737
S''
asbasbasbag69
(g85
g71
NtRp738
(dp739
g74
(dp740
sg83
g674
sg76
(lp741
g69
(g90
g71
NtRp742
(dp743
g74
(dp744
g94
g95
ssg83
g738
sg76
(lp745
g369
asbag69
(g90
g71
NtRp746
(dp747
g74
(dp748
g101
g102
ssg83
g738
sg76
(lp749
S':'
asbag69
(g90
g71
NtRp750
(dp751
g74
(dp752
sg83
g738
sg76
(lp753
g69
(g70
g71
NtRp754
(dp755
g74
(dp756
g82
I3
ssg83
g750
sg76
(lp757
S''
asbasbasbag69
(g85
g71
NtRp758
(dp759
g74
(dp760
sg83
g674
sg76
(lp761
g69
(g90
g71
NtRp762
(dp763
g74
(dp764
g94
g95
ssg83
g758
sg76
(lp765
g390
asbag69
(g90
g71
NtRp766
(dp767
g74
(dp768
g101
g102
ssg83
g758
sg76
(lp769
S':'
asbag69
(g90
g71
NtRp770
(dp771
g74
(dp772
sg83
g758
sg76
(lp773
g69
(g70
g71
NtRp774
(dp775
g74
(dp776
g82
I3
ssg83
g770
sg76
(lp777
S''
asbasbasbag69
(g85
g71
NtRp778
(dp779
g74
(dp780
sg83
g674
sg76
(lp781
g69
(g90
g71
NtRp782
(dp783
g74
(dp784
g94
g95
ssg83
g778
sg76
(lp785
g411
asbag69
(g90
g71
NtRp786
(dp787
g74
(dp788
g101
g102
ssg83
g778
sg76
(lp789
S':'
asbag69
(g90
g71
NtRp790
(dp791
g74
(dp792
sg83
g778
sg76
(lp793
g69
(g70
g71
NtRp794
(dp795
g74
(dp796
g82
I3
ssg83
g790
sg76
(lp797
S''
asbasbasbag69
(g85
g71
NtRp798
(dp799
g74
(dp800
sg83
g674
sg76
(lp801
g69
(g90
g71
NtRp802
(dp803
g74
(dp804
g94
g95
ssg83
g798
sg76
(lp805
g432
asbag69
(g90
g71
NtRp806
(dp807
g74
(dp808
g101
g102
ssg83
g798
sg76
(lp809
S':'
asbag69
(g90
g71
NtRp810
(dp811
g74
(dp812
sg83
g798
sg76
(lp813
g69
(g70
g71
NtRp814
(dp815
g74
(dp816
g82
I3
ssg83
g810
sg76
(lp817
S''
asbasbasbag69
(g85
g71
NtRp818
(dp819
g74
(dp820
sg83
g674
sg76
(lp821
g69
(g90
g71
NtRp822
(dp823
g74
(dp824
g94
g95
ssg83
g818
sg76
(lp825
g453
asbag69
(g90
g71
NtRp826
(dp827
g74
(dp828
g101
g102
ssg83
g818
sg76
(lp829
S':'
asbag69
(g90
g71
NtRp830
(dp831
g74
(dp832
sg83
g818
sg76
(lp833
g69
(g70
g71
NtRp834
(dp835
g74
(dp836
g82
I3
ssg83
g830
sg76
(lp837
S''
asbasbasbasbasbasbasbag69
(g85
g71
NtRp838
(dp839
g74
(dp840
sg83
g268
sg76
(lp841
g69
(g90
g71
NtRp842
(dp843
g74
(dp844
g94
g95
ssg83
g838
sg76
(lp845
S'session_id_welcome'
p846
asbag69
(g90
g71
NtRp847
(dp848
g74
(dp849
g101
g102
ssg83
g838
sg76
(lp850
S':'
asbag69
(g90
g71
NtRp851
(dp852
g74
(dp853
sg83
g838
sg76
(lp854
g69
(g70
g71
NtRp855
(dp856
g74
(dp857
g82
I4
ssg83
g851
sg76
(lp858
S'127.0.0.1-bc34c639-e39b-411b-94b9-1487093ce970'
p859
ag69
(g78
g71
NtRp860
(dp861
g74
(dp862
g82
I3
ssg83
Nsg76
(lp863
g69
(g85
g71
NtRp864
(dp865
g74
(dp866
sg83
g860
sg76
(lp867
g69
(g90
g71
NtRp868
(dp869
g74
(dp870
g94
g95
ssg83
g864
sg76
(lp871
g306
asbag69
(g90
g71
NtRp872
(dp873
g74
(dp874
g101
g102
ssg83
g864
sg76
(lp875
S':'
asbag69
(g90
g71
NtRp876
(dp877
g74
(dp878
sg83
g864
sg76
(lp879
g69
(g70
g71
NtRp880
(dp881
g74
(dp882
g82
I3
ssg83
g876
sg76
(lp883
S''
asbasbasbag69
(g85
g71
NtRp884
(dp885
g74
(dp886
sg83
g860
sg76
(lp887
g69
(g90
g71
NtRp888
(dp889
g74
(dp890
g94
g95
ssg83
g884
sg76
(lp891
g327
asbag69
(g90
g71
NtRp892
(dp893
g74
(dp894
g101
g102
ssg83
g884
sg76
(lp895
S':'
asbag69
(g90
g71
NtRp896
(dp897
g74
(dp898
sg83
g884
sg76
(lp899
g69
(g70
g71
NtRp900
(dp901
g74
(dp902
g82
I3
ssg83
g896
sg76
(lp903
S''
asbasbasbag69
(g85
g71
NtRp904
(dp905
g74
(dp906
sg83
g860
sg76
(lp907
g69
(g90
g71
NtRp908
(dp909
g74
(dp910
g94
g95
ssg83
g904
sg76
(lp911
g348
asbag69
(g90
g71
NtRp912
(dp913
g74
(dp914
g101
g102
ssg83
g904
sg76
(lp915
S':'
asbag69
(g90
g71
NtRp916
(dp917
g74
(dp918
sg83
g904
sg76
(lp919
g69
(g70
g71
NtRp920
(dp921
g74
(dp922
g82
I3
ssg83
g916
sg76
(lp923
S''
asbasbasbag69
(g85
g71
NtRp924
(dp925
g74
(dp926
sg83
g860
sg76
(lp927
g69
(g90
g71
NtRp928
(dp929
g74
(dp930
g94
g95
ssg83
g924
sg76
(lp931
g369
asbag69
(g90
g71
NtRp932
(dp933
g74
(dp934
g101
g102
ssg83
g924
sg76
(lp935
S':'
asbag69
(g90
g71
NtRp936
(dp937
g74
(dp938
sg83
g924
sg76
(lp939
g69
(g70
g71
NtRp940
(dp941
g74
(dp942
g82
I3
ssg83
g936
sg76
(lp943
S''
asbasbasbag69
(g85
g71
NtRp944
(dp945
g74
(dp946
sg83
g860
sg76
(lp947
g69
(g90
g71
NtRp948
(dp949
g74
(dp950
g94
g95
ssg83
g944
sg76
(lp951
g390
asbag69
(g90
g71
NtRp952
(dp953
g74
(dp954
g101
g102
ssg83
g944
sg76
(lp955
S':'
asbag69
(g90
g71
NtRp956
(dp957
g74
(dp958
sg83
g944
sg76
(lp959
g69
(g70
g71
NtRp960
(dp961
g74
(dp962
g82
I3
ssg83
g956
sg76
(lp963
S''
asbasbasbag69
(g85
g71
NtRp964
(dp965
g74
(dp966
sg83
g860
sg76
(lp967
g69
(g90
g71
NtRp968
(dp969
g74
(dp970
g94
g95
ssg83
g964
sg76
(lp971
g411
asbag69
(g90
g71
NtRp972
(dp973
g74
(dp974
g101
g102
ssg83
g964
sg76
(lp975
S':'
asbag69
(g90
g71
NtRp976
(dp977
g74
(dp978
sg83
g964
sg76
(lp979
g69
(g70
g71
NtRp980
(dp981
g74
(dp982
g82
I3
ssg83
g976
sg76
(lp983
S''
asbasbasbag69
(g85
g71
NtRp984
(dp985
g74
(dp986
sg83
g860
sg76
(lp987
g69
(g90
g71
NtRp988
(dp989
g74
(dp990
g94
g95
ssg83
g984
sg76
(lp991
g432
asbag69
(g90
g71
NtRp992
(dp993
g74
(dp994
g101
g102
ssg83
g984
sg76
(lp995
S':'
asbag69
(g90
g71
NtRp996
(dp997
g74
(dp998
sg83
g984
sg76
(lp999
g69
(g70
g71
NtRp1000
(dp1001
g74
(dp1002
g82
I3
ssg83
g996
sg76
(lp1003
S''
asbasbasbag69
(g85
g71
NtRp1004
(dp1005
g74
(dp1006
sg83
g860
sg76
(lp1007
g69
(g90
g71
NtRp1008
(dp1009
g74
(dp1010
g94
g95
ssg83
g1004
sg76
(lp1011
g453
asbag69
(g90
g71
NtRp1012
(dp1013
g74
(dp1014
g101
g102
ssg83
g1004
sg76
(lp1015
S':'
asbag69
(g90
g71
NtRp1016
(dp1017
g74
(dp1018
sg83
g1004
sg76
(lp1019
g69
(g70
g71
NtRp1020
(dp1021
g74
(dp1022
g82
I3
ssg83
g1016
sg76
(lp1023
S''
asbasbasbasbasbasbasbasbasbasbasbag69
(g85
g71
NtRp1024
(dp1025
g74
(dp1026
sg83
g79
sg76
(lp1027
g69
(g90
g71
NtRp1028
(dp1029
g74
(dp1030
g94
g95
ssg83
g1024
sg76
(lp1031
S'env'
p1032
asbag69
(g90
g71
NtRp1033
(dp1034
g74
(dp1035
g101
g102
ssg83
g1024
sg76
(lp1036
S':'
asbag69
(g90
g71
NtRp1037
(dp1038
g74
(dp1039
sg83
g1024
sg76
(lp1040
g69
(g70
g71
NtRp1041
(dp1042
g74
(dp1043
g82
I5
ssg83
g1037
sg76
(lp1044
g69
(g78
g71
NtRp1045
(dp1046
g74
(dp1047
g82
I4
ssg83
Nsg76
(lp1048
g69
(g85
g71
NtRp1049
(dp1050
g74
(dp1051
sg83
g1045
sg76
(lp1052
g69
(g90
g71
NtRp1053
(dp1054
g74
(dp1055
g94
g95
ssg83
g1049
sg76
(lp1056
S'app_folders'
p1057
asbag69
(g90
g71
NtRp1058
(dp1059
g74
(dp1060
g101
g102
ssg83
g1049
sg76
(lp1061
S':'
asbag69
(g90
g71
NtRp1062
(dp1063
g74
(dp1064
sg83
g1049
sg76
(lp1065
g69
(g70
g71
NtRp1066
(dp1067
g74
(dp1068
g82
I4
ssg83
g1062
sg76
(lp1069
S"set(['/home/wasuaje/Documentos/desarrollo/web2py5/applications/welcome/', '/home/wasuaje/Documentos/desarrollo/web2py5/applications/flota/', '/home/wasuaje/Documentos/desarrollo/web2py5/applications/admin/'])"
p1070
asbasbasbag69
(g85
g71
NtRp1071
(dp1072
g74
(dp1073
sg83
g1045
sg76
(lp1074
g69
(g90
g71
NtRp1075
(dp1076
g74
(dp1077
g94
g95
ssg83
g1071
sg76
(lp1078
S'applications_parent'
p1079
asbag69
(g90
g71
NtRp1080
(dp1081
g74
(dp1082
g101
g102
ssg83
g1071
sg76
(lp1083
S':'
asbag69
(g90
g71
NtRp1084
(dp1085
g74
(dp1086
sg83
g1071
sg76
(lp1087
g69
(g70
g71
NtRp1088
(dp1089
g74
(dp1090
g82
I4
ssg83
g1084
sg76
(lp1091
S'/home/wasuaje/Documentos/desarrollo/web2py5'
p1092
asbasbasbag69
(g85
g71
NtRp1093
(dp1094
g74
(dp1095
sg83
g1045
sg76
(lp1096
g69
(g90
g71
NtRp1097
(dp1098
g74
(dp1099
g94
g95
ssg83
g1093
sg76
(lp1100
S'cmd_args'
p1101
asbag69
(g90
g71
NtRp1102
(dp1103
g74
(dp1104
g101
g102
ssg83
g1093
sg76
(lp1105
S':'
asbag69
(g90
g71
NtRp1106
(dp1107
g74
(dp1108
sg83
g1093
sg76
(lp1109
g69
(g70
g71
NtRp1110
(dp1111
g74
(dp1112
g82
I4
ssg83
g1106
sg76
(lp1113
g69
(g78
g71
NtRp1114
(dp1115
g74
(dp1116
g82
I3
ssg83
Nsg76
(lp1117
sbasbasbasbag69
(g85
g71
NtRp1118
(dp1119
g74
(dp1120
sg83
g1045
sg76
(lp1121
g69
(g90
g71
NtRp1122
(dp1123
g74
(dp1124
g94
g95
ssg83
g1118
sg76
(lp1125
S'cmd_options'
p1126
asbag69
(g90
g71
NtRp1127
(dp1128
g74
(dp1129
g101
g102
ssg83
g1118
sg76
(lp1130
S':'
asbag69
(g90
g71
NtRp1131
(dp1132
g74
(dp1133
sg83
g1118
sg76
(lp1134
g69
(g70
g71
NtRp1135
(dp1136
g74
(dp1137
g82
I4
ssg83
g1131
sg76
(lp1138
S"<Values at 0xa40c0ec: {'verbose': False, 'ip': '127.0.0.1', 'with_scheduler': False, 'ips': [], 'shutdown_timeout': 5, 'taskbar': False, 'port': 8000, 'maxthreads': None, 'softcron': False, 'server_name': 'wasuaje-desktop', 'bpython': False, 'nogui': False, 'pid_filename': 'httpserver.pid', 'extcron': False, 'runcron': False, 'run_system_tests': False, 'test': None, 'folder': '/home/wasuaje/Documentos/desarrollo/web2py5', 'config': '', 'import_models': False, 'winservice': '', 'shell': None, 'run': '', 'log_filename': 'httpserver.log', 'debuglevel': 30, 'args': [''], 'socket_timeout': 5, 'ssl_ca_certificate': None, 'scheduler': None, 'profiler_filename': None, 'ssl_private_key': '', 'scheduler_groups': None, 'password': '<ask>', 'request_queue_size': 5, 'ssl_certificate': '', 'cronjob': False, 'numthreads': None, 'quiet': False, 'interfaces': None, 'minthreads': None, 'timeout': 10, 'plain': False, 'nobanner': False}>"
p1139
asbasbasbag69
(g85
g71
NtRp1140
(dp1141
g74
(dp1142
sg83
g1045
sg76
(lp1143
g69
(g90
g71
NtRp1144
(dp1145
g74
(dp1146
g94
g95
ssg83
g1140
sg76
(lp1147
S'db_sessions'
p1148
asbag69
(g90
g71
NtRp1149
(dp1150
g74
(dp1151
g101
g102
ssg83
g1140
sg76
(lp1152
S':'
asbag69
(g90
g71
NtRp1153
(dp1154
g74
(dp1155
sg83
g1140
sg76
(lp1156
g69
(g70
g71
NtRp1157
(dp1158
g74
(dp1159
g82
I4
ssg83
g1153
sg76
(lp1160
S'set([])'
p1161
asbasbasbag69
(g85
g71
NtRp1162
(dp1163
g74
(dp1164
sg83
g1045
sg76
(lp1165
g69
(g90
g71
NtRp1166
(dp1167
g74
(dp1168
g94
g95
ssg83
g1162
sg76
(lp1169
S'debugging'
p1170
asbag69
(g90
g71
NtRp1171
(dp1172
g74
(dp1173
g101
g102
ssg83
g1162
sg76
(lp1174
S':'
asbag69
(g90
g71
NtRp1175
(dp1176
g74
(dp1177
sg83
g1162
sg76
(lp1178
g69
(g70
g71
NtRp1179
(dp1180
g74
(dp1181
g82
I4
ssg83
g1175
sg76
(lp1182
g112
asbasbasbag69
(g85
g71
NtRp1183
(dp1184
g74
(dp1185
sg83
g1045
sg76
(lp1186
g69
(g90
g71
NtRp1187
(dp1188
g74
(dp1189
g94
g95
ssg83
g1183
sg76
(lp1190
S'gluon_parent'
p1191
asbag69
(g90
g71
NtRp1192
(dp1193
g74
(dp1194
g101
g102
ssg83
g1183
sg76
(lp1195
S':'
asbag69
(g90
g71
NtRp1196
(dp1197
g74
(dp1198
sg83
g1183
sg76
(lp1199
g69
(g70
g71
NtRp1200
(dp1201
g74
(dp1202
g82
I4
ssg83
g1196
sg76
(lp1203
S'/home/wasuaje/Documentos/desarrollo/web2py5'
p1204
asbasbasbag69
(g85
g71
NtRp1205
(dp1206
g74
(dp1207
sg83
g1045
sg76
(lp1208
g69
(g90
g71
NtRp1209
(dp1210
g74
(dp1211
g94
g95
ssg83
g1205
sg76
(lp1212
S'http_accept'
p1213
asbag69
(g90
g71
NtRp1214
(dp1215
g74
(dp1216
g101
g102
ssg83
g1205
sg76
(lp1217
S':'
asbag69
(g90
g71
NtRp1218
(dp1219
g74
(dp1220
sg83
g1205
sg76
(lp1221
g69
(g70
g71
NtRp1222
(dp1223
g74
(dp1224
g82
I4
ssg83
g1218
sg76
(lp1225
S'text/html,application/xhtml+xml,application/xml;q=0.9,*/*;q=0.8'
p1226
asbasbasbag69
(g85
g71
NtRp1227
(dp1228
g74
(dp1229
sg83
g1045
sg76
(lp1230
g69
(g90
g71
NtRp1231
(dp1232
g74
(dp1233
g94
g95
ssg83
g1227
sg76
(lp1234
S'http_accept_encoding'
p1235
asbag69
(g90
g71
NtRp1236
(dp1237
g74
(dp1238
g101
g102
ssg83
g1227
sg76
(lp1239
S':'
asbag69
(g90
g71
NtRp1240
(dp1241
g74
(dp1242
sg83
g1227
sg76
(lp1243
g69
(g70
g71
NtRp1244
(dp1245
g74
(dp1246
g82
I4
ssg83
g1240
sg76
(lp1247
S'gzip, deflate'
p1248
asbasbasbag69
(g85
g71
NtRp1249
(dp1250
g74
(dp1251
sg83
g1045
sg76
(lp1252
g69
(g90
g71
NtRp1253
(dp1254
g74
(dp1255
g94
g95
ssg83
g1249
sg76
(lp1256
S'http_accept_language'
p1257
asbag69
(g90
g71
NtRp1258
(dp1259
g74
(dp1260
g101
g102
ssg83
g1249
sg76
(lp1261
S':'
asbag69
(g90
g71
NtRp1262
(dp1263
g74
(dp1264
sg83
g1249
sg76
(lp1265
g69
(g70
g71
NtRp1266
(dp1267
g74
(dp1268
g82
I4
ssg83
g1262
sg76
(lp1269
S'es-MX,es-ES;q=0.8,es-AR;q=0.7,es;q=0.5,en-US;q=0.3,en;q=0.2'
p1270
asbasbasbag69
(g85
g71
NtRp1271
(dp1272
g74
(dp1273
sg83
g1045
sg76
(lp1274
g69
(g90
g71
NtRp1275
(dp1276
g74
(dp1277
g94
g95
ssg83
g1271
sg76
(lp1278
S'http_cache_control'
p1279
asbag69
(g90
g71
NtRp1280
(dp1281
g74
(dp1282
g101
g102
ssg83
g1271
sg76
(lp1283
S':'
asbag69
(g90
g71
NtRp1284
(dp1285
g74
(dp1286
sg83
g1271
sg76
(lp1287
g69
(g70
g71
NtRp1288
(dp1289
g74
(dp1290
g82
I4
ssg83
g1284
sg76
(lp1291
S'max-age=0'
p1292
asbasbasbag69
(g85
g71
NtRp1293
(dp1294
g74
(dp1295
sg83
g1045
sg76
(lp1296
g69
(g90
g71
NtRp1297
(dp1298
g74
(dp1299
g94
g95
ssg83
g1293
sg76
(lp1300
S'http_connection'
p1301
asbag69
(g90
g71
NtRp1302
(dp1303
g74
(dp1304
g101
g102
ssg83
g1293
sg76
(lp1305
S':'
asbag69
(g90
g71
NtRp1306
(dp1307
g74
(dp1308
sg83
g1293
sg76
(lp1309
g69
(g70
g71
NtRp1310
(dp1311
g74
(dp1312
g82
I4
ssg83
g1306
sg76
(lp1313
S'keep-alive'
p1314
asbasbasbag69
(g85
g71
NtRp1315
(dp1316
g74
(dp1317
sg83
g1045
sg76
(lp1318
g69
(g90
g71
NtRp1319
(dp1320
g74
(dp1321
g94
g95
ssg83
g1315
sg76
(lp1322
S'http_cookie'
p1323
asbag69
(g90
g71
NtRp1324
(dp1325
g74
(dp1326
g101
g102
ssg83
g1315
sg76
(lp1327
S':'
asbag69
(g90
g71
NtRp1328
(dp1329
g74
(dp1330
sg83
g1315
sg76
(lp1331
g69
(g70
g71
NtRp1332
(dp1333
g74
(dp1334
g82
I4
ssg83
g1328
sg76
(lp1335
S'session_id_welcome=127.0.0.1-bc34c639-e39b-411b-94b9-1487093ce970; session_id_admin=127.0.0.1-5c1b3d16-6e97-4af3-8fde-d320400f80f4; session_id_pyrest=127.0.0.1-adadd0db-c240-4ea8-9681-bd188b14643c; session_id_flota=127.0.0.1-2318b8f8-1fb4-4280-8d04-88c459a3d745'
p1336
asbasbasbag69
(g85
g71
NtRp1337
(dp1338
g74
(dp1339
sg83
g1045
sg76
(lp1340
g69
(g90
g71
NtRp1341
(dp1342
g74
(dp1343
g94
g95
ssg83
g1337
sg76
(lp1344
S'http_host'
p1345
asbag69
(g90
g71
NtRp1346
(dp1347
g74
(dp1348
g101
g102
ssg83
g1337
sg76
(lp1349
S':'
asbag69
(g90
g71
NtRp1350
(dp1351
g74
(dp1352
sg83
g1337
sg76
(lp1353
g69
(g70
g71
NtRp1354
(dp1355
g74
(dp1356
g82
I4
ssg83
g1350
sg76
(lp1357
S'127.0.0.1:8000'
p1358
asbasbasbag69
(g85
g71
NtRp1359
(dp1360
g74
(dp1361
sg83
g1045
sg76
(lp1362
g69
(g90
g71
NtRp1363
(dp1364
g74
(dp1365
g94
g95
ssg83
g1359
sg76
(lp1366
S'http_user_agent'
p1367
asbag69
(g90
g71
NtRp1368
(dp1369
g74
(dp1370
g101
g102
ssg83
g1359
sg76
(lp1371
S':'
asbag69
(g90
g71
NtRp1372
(dp1373
g74
(dp1374
sg83
g1359
sg76
(lp1375
g69
(g70
g71
NtRp1376
(dp1377
g74
(dp1378
g82
I4
ssg83
g1372
sg76
(lp1379
S'Mozilla/5.0 (X11; Ubuntu; Linux i686; rv:18.0) Gecko/20100101 Firefox/18.0'
p1380
asbasbasbag69
(g85
g71
NtRp1381
(dp1382
g74
(dp1383
sg83
g1045
sg76
(lp1384
g69
(g90
g71
NtRp1385
(dp1386
g74
(dp1387
g94
g95
ssg83
g1381
sg76
(lp1388
S'is_jython'
p1389
asbag69
(g90
g71
NtRp1390
(dp1391
g74
(dp1392
g101
g102
ssg83
g1381
sg76
(lp1393
S':'
asbag69
(g90
g71
NtRp1394
(dp1395
g74
(dp1396
sg83
g1381
sg76
(lp1397
g69
(g70
g71
NtRp1398
(dp1399
g74
(dp1400
g82
I4
ssg83
g1394
sg76
(lp1401
g112
asbasbasbag69
(g85
g71
NtRp1402
(dp1403
g74
(dp1404
sg83
g1045
sg76
(lp1405
g69
(g90
g71
NtRp1406
(dp1407
g74
(dp1408
g94
g95
ssg83
g1402
sg76
(lp1409
S'is_pypy'
p1410
asbag69
(g90
g71
NtRp1411
(dp1412
g74
(dp1413
g101
g102
ssg83
g1402
sg76
(lp1414
S':'
asbag69
(g90
g71
NtRp1415
(dp1416
g74
(dp1417
sg83
g1402
sg76
(lp1418
g69
(g70
g71
NtRp1419
(dp1420
g74
(dp1421
g82
I4
ssg83
g1415
sg76
(lp1422
g112
asbasbasbag69
(g85
g71
NtRp1423
(dp1424
g74
(dp1425
sg83
g1045
sg76
(lp1426
g69
(g90
g71
NtRp1427
(dp1428
g74
(dp1429
g94
g95
ssg83
g1423
sg76
(lp1430
S'local_hosts'
p1431
asbag69
(g90
g71
NtRp1432
(dp1433
g74
(dp1434
g101
g102
ssg83
g1423
sg76
(lp1435
S':'
asbag69
(g90
g71
NtRp1436
(dp1437
g74
(dp1438
sg83
g1423
sg76
(lp1439
g69
(g70
g71
NtRp1440
(dp1441
g74
(dp1442
g82
I4
ssg83
g1436
sg76
(lp1443
g69
(g78
g71
NtRp1444
(dp1445
g74
(dp1446
g82
I3
ssg83
Nsg76
(lp1447
g69
(g85
g71
NtRp1448
(dp1449
g74
(dp1450
sg83
g1444
sg76
(lp1451
g69
(g90
g71
NtRp1452
(dp1453
g74
(dp1454
sg83
g1448
sg76
(lp1455
g69
(g70
g71
NtRp1456
(dp1457
g74
(dp1458
g82
I3
ssg83
g1452
sg76
(lp1459
S'127.0.1.1'
p1460
asbasbasbag69
(g85
g71
NtRp1461
(dp1462
g74
(dp1463
sg83
g1444
sg76
(lp1464
g69
(g90
g71
NtRp1465
(dp1466
g74
(dp1467
sg83
g1461
sg76
(lp1468
g69
(g70
g71
NtRp1469
(dp1470
g74
(dp1471
g82
I3
ssg83
g1465
sg76
(lp1472
S'::1'
p1473
asbasbasbag69
(g85
g71
NtRp1474
(dp1475
g74
(dp1476
sg83
g1444
sg76
(lp1477
g69
(g90
g71
NtRp1478
(dp1479
g74
(dp1480
sg83
g1474
sg76
(lp1481
g69
(g70
g71
NtRp1482
(dp1483
g74
(dp1484
g82
I3
ssg83
g1478
sg76
(lp1485
S'wasuaje-desktop'
p1486
asbasbasbag69
(g85
g71
NtRp1487
(dp1488
g74
(dp1489
sg83
g1444
sg76
(lp1490
g69
(g90
g71
NtRp1491
(dp1492
g74
(dp1493
sg83
g1487
sg76
(lp1494
g69
(g70
g71
NtRp1495
(dp1496
g74
(dp1497
g82
I3
ssg83
g1491
sg76
(lp1498
S'::ffff:127.0.0.1'
p1499
asbasbasbag69
(g85
g71
NtRp1500
(dp1501
g74
(dp1502
sg83
g1444
sg76
(lp1503
g69
(g90
g71
NtRp1504
(dp1505
g74
(dp1506
sg83
g1500
sg76
(lp1507
g69
(g70
g71
NtRp1508
(dp1509
g74
(dp1510
g82
I3
ssg83
g1504
sg76
(lp1511
S'127.0.0.1'
p1512
asbasbasbasbasbasbasbag69
(g85
g71
NtRp1513
(dp1514
g74
(dp1515
sg83
g1045
sg76
(lp1516
g69
(g90
g71
NtRp1517
(dp1518
g74
(dp1519
g94
g95
ssg83
g1513
sg76
(lp1520
S'path_info'
p1521
asbag69
(g90
g71
NtRp1522
(dp1523
g74
(dp1524
g101
g102
ssg83
g1513
sg76
(lp1525
S':'
asbag69
(g90
g71
NtRp1526
(dp1527
g74
(dp1528
sg83
g1513
sg76
(lp1529
g69
(g70
g71
NtRp1530
(dp1531
g74
(dp1532
g82
I4
ssg83
g1526
sg76
(lp1533
S'/flota/cobro2/'
p1534
asbasbasbag69
(g85
g71
NtRp1535
(dp1536
g74
(dp1537
sg83
g1045
sg76
(lp1538
g69
(g90
g71
NtRp1539
(dp1540
g74
(dp1541
g94
g95
ssg83
g1535
sg76
(lp1542
S'query_string'
p1543
asbag69
(g90
g71
NtRp1544
(dp1545
g74
(dp1546
g101
g102
ssg83
g1535
sg76
(lp1547
S':'
asbag69
(g90
g71
NtRp1548
(dp1549
g74
(dp1550
sg83
g1535
sg76
(lp1551
g69
(g70
g71
NtRp1552
(dp1553
g74
(dp1554
g82
I4
ssg83
g1548
sg76
(lp1555
S''
asbasbasbag69
(g85
g71
NtRp1556
(dp1557
g74
(dp1558
sg83
g1045
sg76
(lp1559
g69
(g90
g71
NtRp1560
(dp1561
g74
(dp1562
g94
g95
ssg83
g1556
sg76
(lp1563
S'remote_addr'
p1564
asbag69
(g90
g71
NtRp1565
(dp1566
g74
(dp1567
g101
g102
ssg83
g1556
sg76
(lp1568
S':'
asbag69
(g90
g71
NtRp1569
(dp1570
g74
(dp1571
sg83
g1556
sg76
(lp1572
g69
(g70
g71
NtRp1573
(dp1574
g74
(dp1575
g82
I4
ssg83
g1569
sg76
(lp1576
g224
asbasbasbag69
(g85
g71
NtRp1577
(dp1578
g74
(dp1579
sg83
g1045
sg76
(lp1580
g69
(g90
g71
NtRp1581
(dp1582
g74
(dp1583
g94
g95
ssg83
g1577
sg76
(lp1584
S'remote_port'
p1585
asbag69
(g90
g71
NtRp1586
(dp1587
g74
(dp1588
g101
g102
ssg83
g1577
sg76
(lp1589
S':'
asbag69
(g90
g71
NtRp1590
(dp1591
g74
(dp1592
sg83
g1577
sg76
(lp1593
g69
(g70
g71
NtRp1594
(dp1595
g74
(dp1596
g82
I4
ssg83
g1590
sg76
(lp1597
S'34857'
p1598
asbasbasbag69
(g85
g71
NtRp1599
(dp1600
g74
(dp1601
sg83
g1045
sg76
(lp1602
g69
(g90
g71
NtRp1603
(dp1604
g74
(dp1605
g94
g95
ssg83
g1599
sg76
(lp1606
S'request_method'
p1607
asbag69
(g90
g71
NtRp1608
(dp1609
g74
(dp1610
g101
g102
ssg83
g1599
sg76
(lp1611
S':'
asbag69
(g90
g71
NtRp1612
(dp1613
g74
(dp1614
sg83
g1599
sg76
(lp1615
g69
(g70
g71
NtRp1616
(dp1617
g74
(dp1618
g82
I4
ssg83
g1612
sg76
(lp1619
S'GET'
p1620
asbasbasbag69
(g85
g71
NtRp1621
(dp1622
g74
(dp1623
sg83
g1045
sg76
(lp1624
g69
(g90
g71
NtRp1625
(dp1626
g74
(dp1627
g94
g95
ssg83
g1621
sg76
(lp1628
S'request_uri'
p1629
asbag69
(g90
g71
NtRp1630
(dp1631
g74
(dp1632
g101
g102
ssg83
g1621
sg76
(lp1633
S':'
asbag69
(g90
g71
NtRp1634
(dp1635
g74
(dp1636
sg83
g1621
sg76
(lp1637
g69
(g70
g71
NtRp1638
(dp1639
g74
(dp1640
g82
I4
ssg83
g1634
sg76
(lp1641
g1534
asbasbasbag69
(g85
g71
NtRp1642
(dp1643
g74
(dp1644
sg83
g1045
sg76
(lp1645
g69
(g90
g71
NtRp1646
(dp1647
g74
(dp1648
g94
g95
ssg83
g1642
sg76
(lp1649
S'script_name'
p1650
asbag69
(g90
g71
NtRp1651
(dp1652
g74
(dp1653
g101
g102
ssg83
g1642
sg76
(lp1654
S':'
asbag69
(g90
g71
NtRp1655
(dp1656
g74
(dp1657
sg83
g1642
sg76
(lp1658
g69
(g70
g71
NtRp1659
(dp1660
g74
(dp1661
g82
I4
ssg83
g1655
sg76
(lp1662
S''
asbasbasbag69
(g85
g71
NtRp1663
(dp1664
g74
(dp1665
sg83
g1045
sg76
(lp1666
g69
(g90
g71
NtRp1667
(dp1668
g74
(dp1669
g94
g95
ssg83
g1663
sg76
(lp1670
S'server_name'
p1671
asbag69
(g90
g71
NtRp1672
(dp1673
g74
(dp1674
g101
g102
ssg83
g1663
sg76
(lp1675
S':'
asbag69
(g90
g71
NtRp1676
(dp1677
g74
(dp1678
sg83
g1663
sg76
(lp1679
g69
(g70
g71
NtRp1680
(dp1681
g74
(dp1682
g82
I4
ssg83
g1676
sg76
(lp1683
S'wasuaje-desktop'
p1684
asbasbasbag69
(g85
g71
NtRp1685
(dp1686
g74
(dp1687
sg83
g1045
sg76
(lp1688
g69
(g90
g71
NtRp1689
(dp1690
g74
(dp1691
g94
g95
ssg83
g1685
sg76
(lp1692
S'server_port'
p1693
asbag69
(g90
g71
NtRp1694
(dp1695
g74
(dp1696
g101
g102
ssg83
g1685
sg76
(lp1697
S':'
asbag69
(g90
g71
NtRp1698
(dp1699
g74
(dp1700
sg83
g1685
sg76
(lp1701
g69
(g70
g71
NtRp1702
(dp1703
g74
(dp1704
g82
I4
ssg83
g1698
sg76
(lp1705
S'8000'
p1706
asbasbasbag69
(g85
g71
NtRp1707
(dp1708
g74
(dp1709
sg83
g1045
sg76
(lp1710
g69
(g90
g71
NtRp1711
(dp1712
g74
(dp1713
g94
g95
ssg83
g1707
sg76
(lp1714
S'server_protocol'
p1715
asbag69
(g90
g71
NtRp1716
(dp1717
g74
(dp1718
g101
g102
ssg83
g1707
sg76
(lp1719
S':'
asbag69
(g90
g71
NtRp1720
(dp1721
g74
(dp1722
sg83
g1707
sg76
(lp1723
g69
(g70
g71
NtRp1724
(dp1725
g74
(dp1726
g82
I4
ssg83
g1720
sg76
(lp1727
S'HTTP/1.1'
p1728
asbasbasbag69
(g85
g71
NtRp1729
(dp1730
g74
(dp1731
sg83
g1045
sg76
(lp1732
g69
(g90
g71
NtRp1733
(dp1734
g74
(dp1735
g94
g95
ssg83
g1729
sg76
(lp1736
S'server_software'
p1737
asbag69
(g90
g71
NtRp1738
(dp1739
g74
(dp1740
g101
g102
ssg83
g1729
sg76
(lp1741
S':'
asbag69
(g90
g71
NtRp1742
(dp1743
g74
(dp1744
sg83
g1729
sg76
(lp1745
g69
(g70
g71
NtRp1746
(dp1747
g74
(dp1748
g82
I4
ssg83
g1742
sg76
(lp1749
S'Rocket 1.2.6'
p1750
asbasbasbag69
(g85
g71
NtRp1751
(dp1752
g74
(dp1753
sg83
g1045
sg76
(lp1754
g69
(g90
g71
NtRp1755
(dp1756
g74
(dp1757
g94
g95
ssg83
g1751
sg76
(lp1758
S'web2py_path'
p1759
asbag69
(g90
g71
NtRp1760
(dp1761
g74
(dp1762
g101
g102
ssg83
g1751
sg76
(lp1763
S':'
asbag69
(g90
g71
NtRp1764
(dp1765
g74
(dp1766
sg83
g1751
sg76
(lp1767
g69
(g70
g71
NtRp1768
(dp1769
g74
(dp1770
g82
I4
ssg83
g1764
sg76
(lp1771
g1092
asbasbasbag69
(g85
g71
NtRp1772
(dp1773
g74
(dp1774
sg83
g1045
sg76
(lp1775
g69
(g90
g71
NtRp1776
(dp1777
g74
(dp1778
g94
g95
ssg83
g1772
sg76
(lp1779
S'web2py_version'
p1780
asbag69
(g90
g71
NtRp1781
(dp1782
g74
(dp1783
g101
g102
ssg83
g1772
sg76
(lp1784
S':'
asbag69
(g90
g71
NtRp1785
(dp1786
g74
(dp1787
sg83
g1772
sg76
(lp1788
g69
(g70
g71
NtRp1789
(dp1790
g74
(dp1791
g82
I4
ssg83
g1785
sg76
(lp1792
g69
(g78
g71
NtRp1793
(dp1794
g74
(dp1795
g82
I3
ssg83
Nsg76
(lp1796
g69
(g85
g71
NtRp1797
(dp1798
g74
(dp1799
sg83
g1793
sg76
(lp1800
g69
(g90
g71
NtRp1801
(dp1802
g74
(dp1803
sg83
g1797
sg76
(lp1804
g69
(g70
g71
NtRp1805
(dp1806
g74
(dp1807
g82
I3
ssg83
g1801
sg76
(lp1808
S'2'
asbasbasbag69
(g85
g71
NtRp1809
(dp1810
g74
(dp1811
sg83
g1793
sg76
(lp1812
g69
(g90
g71
NtRp1813
(dp1814
g74
(dp1815
sg83
g1809
sg76
(lp1816
g69
(g70
g71
NtRp1817
(dp1818
g74
(dp1819
g82
I3
ssg83
g1813
sg76
(lp1820
S'3'
asbasbasbag69
(g85
g71
NtRp1821
(dp1822
g74
(dp1823
sg83
g1793
sg76
(lp1824
g69
(g90
g71
NtRp1825
(dp1826
g74
(dp1827
sg83
g1821
sg76
(lp1828
g69
(g70
g71
NtRp1829
(dp1830
g74
(dp1831
g82
I3
ssg83
g1825
sg76
(lp1832
S'2'
asbasbasbag69
(g85
g71
NtRp1833
(dp1834
g74
(dp1835
sg83
g1793
sg76
(lp1836
g69
(g90
g71
NtRp1837
(dp1838
g74
(dp1839
sg83
g1833
sg76
(lp1840
g69
(g70
g71
NtRp1841
(dp1842
g74
(dp1843
g82
I3
ssg83
g1837
sg76
(lp1844
S'datetime.datetime(2012, 12, 17, 15, 3, 30)'
p1845
asbasbasbag69
(g85
g71
NtRp1846
(dp1847
g74
(dp1848
sg83
g1793
sg76
(lp1849
g69
(g90
g71
NtRp1850
(dp1851
g74
(dp1852
sg83
g1846
sg76
(lp1853
g69
(g70
g71
NtRp1854
(dp1855
g74
(dp1856
g82
I3
ssg83
g1850
sg76
(lp1857
S'stable'
p1858
asbasbasbasbasbasbasbag69
(g85
g71
NtRp1859
(dp1860
g74
(dp1861
sg83
g1045
sg76
(lp1862
g69
(g90
g71
NtRp1863
(dp1864
g74
(dp1865
g94
g95
ssg83
g1859
sg76
(lp1866
S'wsgi_errors'
p1867
asbag69
(g90
g71
NtRp1868
(dp1869
g74
(dp1870
g101
g102
ssg83
g1859
sg76
(lp1871
S':'
asbag69
(g90
g71
NtRp1872
(dp1873
g74
(dp1874
sg83
g1859
sg76
(lp1875
g69
(g70
g71
NtRp1876
(dp1877
g74
(dp1878
g82
I4
ssg83
g1872
sg76
(lp1879
S"<open file '<stderr>', mode 'w' at 0xb754b0d0>"
p1880
asbasbasbag69
(g85
g71
NtRp1881
(dp1882
g74
(dp1883
sg83
g1045
sg76
(lp1884
g69
(g90
g71
NtRp1885
(dp1886
g74
(dp1887
g94
g95
ssg83
g1881
sg76
(lp1888
S'wsgi_file_wrapper'
p1889
asbag69
(g90
g71
NtRp1890
(dp1891
g74
(dp1892
g101
g102
ssg83
g1881
sg76
(lp1893
S':'
asbag69
(g90
g71
NtRp1894
(dp1895
g74
(dp1896
sg83
g1881
sg76
(lp1897
g69
(g70
g71
NtRp1898
(dp1899
g74
(dp1900
g82
I4
ssg83
g1894
sg76
(lp1901
S'<class wsgiref.util.FileWrapper at 0xa3c42fc>'
p1902
asbasbasbag69
(g85
g71
NtRp1903
(dp1904
g74
(dp1905
sg83
g1045
sg76
(lp1906
g69
(g90
g71
NtRp1907
(dp1908
g74
(dp1909
g94
g95
ssg83
g1903
sg76
(lp1910
S'wsgi_input'
p1911
asbag69
(g90
g71
NtRp1912
(dp1913
g74
(dp1914
g101
g102
ssg83
g1903
sg76
(lp1915
S':'
asbag69
(g90
g71
NtRp1916
(dp1917
g74
(dp1918
sg83
g1903
sg76
(lp1919
g69
(g70
g71
NtRp1920
(dp1921
g74
(dp1922
g82
I4
ssg83
g1916
sg76
(lp1923
S'<socket._fileobject object at 0xac59252c>'
p1924
asbasbasbag69
(g85
g71
NtRp1925
(dp1926
g74
(dp1927
sg83
g1045
sg76
(lp1928
g69
(g90
g71
NtRp1929
(dp1930
g74
(dp1931
g94
g95
ssg83
g1925
sg76
(lp1932
S'wsgi_multiprocess'
p1933
asbag69
(g90
g71
NtRp1934
(dp1935
g74
(dp1936
g101
g102
ssg83
g1925
sg76
(lp1937
S':'
asbag69
(g90
g71
NtRp1938
(dp1939
g74
(dp1940
sg83
g1925
sg76
(lp1941
g69
(g70
g71
NtRp1942
(dp1943
g74
(dp1944
g82
I4
ssg83
g1938
sg76
(lp1945
g112
asbasbasbag69
(g85
g71
NtRp1946
(dp1947
g74
(dp1948
sg83
g1045
sg76
(lp1949
g69
(g90
g71
NtRp1950
(dp1951
g74
(dp1952
g94
g95
ssg83
g1946
sg76
(lp1953
S'wsgi_multithread'
p1954
asbag69
(g90
g71
NtRp1955
(dp1956
g74
(dp1957
g101
g102
ssg83
g1946
sg76
(lp1958
S':'
asbag69
(g90
g71
NtRp1959
(dp1960
g74
(dp1961
sg83
g1946
sg76
(lp1962
g69
(g70
g71
NtRp1963
(dp1964
g74
(dp1965
g82
I4
ssg83
g1959
sg76
(lp1966
S'True'
p1967
asbasbasbag69
(g85
g71
NtRp1968
(dp1969
g74
(dp1970
sg83
g1045
sg76
(lp1971
g69
(g90
g71
NtRp1972
(dp1973
g74
(dp1974
g94
g95
ssg83
g1968
sg76
(lp1975
S'wsgi_run_once'
p1976
asbag69
(g90
g71
NtRp1977
(dp1978
g74
(dp1979
g101
g102
ssg83
g1968
sg76
(lp1980
S':'
asbag69
(g90
g71
NtRp1981
(dp1982
g74
(dp1983
sg83
g1968
sg76
(lp1984
g69
(g70
g71
NtRp1985
(dp1986
g74
(dp1987
g82
I4
ssg83
g1981
sg76
(lp1988
g112
asbasbasbag69
(g85
g71
NtRp1989
(dp1990
g74
(dp1991
sg83
g1045
sg76
(lp1992
g69
(g90
g71
NtRp1993
(dp1994
g74
(dp1995
g94
g95
ssg83
g1989
sg76
(lp1996
S'wsgi_url_scheme'
p1997
asbag69
(g90
g71
NtRp1998
(dp1999
g74
(dp2000
g101
g102
ssg83
g1989
sg76
(lp2001
S':'
asbag69
(g90
g71
NtRp2002
(dp2003
g74
(dp2004
sg83
g1989
sg76
(lp2005
g69
(g70
g71
NtRp2006
(dp2007
g74
(dp2008
g82
I4
ssg83
g2002
sg76
(lp2009
S'http'
p2010
asbasbasbag69
(g85
g71
NtRp2011
(dp2012
g74
(dp2013
sg83
g1045
sg76
(lp2014
g69
(g90
g71
NtRp2015
(dp2016
g74
(dp2017
g94
g95
ssg83
g2011
sg76
(lp2018
S'wsgi_version'
p2019
asbag69
(g90
g71
NtRp2020
(dp2021
g74
(dp2022
g101
g102
ssg83
g2011
sg76
(lp2023
S':'
asbag69
(g90
g71
NtRp2024
(dp2025
g74
(dp2026
sg83
g2011
sg76
(lp2027
g69
(g70
g71
NtRp2028
(dp2029
g74
(dp2030
g82
I4
ssg83
g2024
sg76
(lp2031
g69
(g78
g71
NtRp2032
(dp2033
g74
(dp2034
g82
I3
ssg83
Nsg76
(lp2035
g69
(g85
g71
NtRp2036
(dp2037
g74
(dp2038
sg83
g2032
sg76
(lp2039
g69
(g90
g71
NtRp2040
(dp2041
g74
(dp2042
sg83
g2036
sg76
(lp2043
g69
(g70
g71
NtRp2044
(dp2045
g74
(dp2046
g82
I3
ssg83
g2040
sg76
(lp2047
S'1'
asbasbasbag69
(g85
g71
NtRp2048
(dp2049
g74
(dp2050
sg83
g2032
sg76
(lp2051
g69
(g90
g71
NtRp2052
(dp2053
g74
(dp2054
sg83
g2048
sg76
(lp2055
g69
(g70
g71
NtRp2056
(dp2057
g74
(dp2058
g82
I3
ssg83
g2052
sg76
(lp2059
S'0'
asbasbasbasbasbasbasbasbasbasbasbag69
(g85
g71
NtRp2060
(dp2061
g74
(dp2062
sg83
g79
sg76
(lp2063
g69
(g90
g71
NtRp2064
(dp2065
g74
(dp2066
g94
g95
ssg83
g2060
sg76
(lp2067
S'extension'
p2068
asbag69
(g90
g71
NtRp2069
(dp2070
g74
(dp2071
g101
g102
ssg83
g2060
sg76
(lp2072
S':'
asbag69
(g90
g71
NtRp2073
(dp2074
g74
(dp2075
sg83
g2060
sg76
(lp2076
g69
(g70
g71
NtRp2077
(dp2078
g74
(dp2079
g82
I5
ssg83
g2073
sg76
(lp2080
S'html'
p2081
asbasbasbag69
(g85
g71
NtRp2082
(dp2083
g74
(dp2084
sg83
g79
sg76
(lp2085
g69
(g90
g71
NtRp2086
(dp2087
g74
(dp2088
g94
g95
ssg83
g2082
sg76
(lp2089
S'folder'
p2090
asbag69
(g90
g71
NtRp2091
(dp2092
g74
(dp2093
g101
g102
ssg83
g2082
sg76
(lp2094
S':'
asbag69
(g90
g71
NtRp2095
(dp2096
g74
(dp2097
sg83
g2082
sg76
(lp2098
g69
(g70
g71
NtRp2099
(dp2100
g74
(dp2101
g82
I5
ssg83
g2095
sg76
(lp2102
S'/home/wasuaje/Documentos/desarrollo/web2py5/applications/flota/'
p2103
asbasbasbag69
(g85
g71
NtRp2104
(dp2105
g74
(dp2106
sg83
g79
sg76
(lp2107
g69
(g90
g71
NtRp2108
(dp2109
g74
(dp2110
g94
g95
ssg83
g2104
sg76
(lp2111
S'function'
p2112
asbag69
(g90
g71
NtRp2113
(dp2114
g74
(dp2115
g101
g102
ssg83
g2104
sg76
(lp2116
S':'
asbag69
(g90
g71
NtRp2117
(dp2118
g74
(dp2119
sg83
g2104
sg76
(lp2120
g69
(g70
g71
NtRp2121
(dp2122
g74
(dp2123
g82
I5
ssg83
g2117
sg76
(lp2124
S'index'
p2125
asbasbasbag69
(g85
g71
NtRp2126
(dp2127
g74
(dp2128
sg83
g79
sg76
(lp2129
g69
(g90
g71
NtRp2130
(dp2131
g74
(dp2132
g94
g95
ssg83
g2126
sg76
(lp2133
S'get_vars'
p2134
asbag69
(g90
g71
NtRp2135
(dp2136
g74
(dp2137
g101
g102
ssg83
g2126
sg76
(lp2138
S':'
asbag69
(g90
g71
NtRp2139
(dp2140
g74
(dp2141
sg83
g2126
sg76
(lp2142
g69
(g70
g71
NtRp2143
(dp2144
g74
(dp2145
g82
I5
ssg83
g2139
sg76
(lp2146
g69
(g78
g71
NtRp2147
(dp2148
g74
(dp2149
g82
I4
ssg83
Nsg76
(lp2150
sbasbasbasbag69
(g85
g71
NtRp2151
(dp2152
g74
(dp2153
sg83
g79
sg76
(lp2154
g69
(g90
g71
NtRp2155
(dp2156
g74
(dp2157
g94
g95
ssg83
g2151
sg76
(lp2158
S'global_settings'
p2159
asbag69
(g90
g71
NtRp2160
(dp2161
g74
(dp2162
g101
g102
ssg83
g2151
sg76
(lp2163
S':'
asbag69
(g90
g71
NtRp2164
(dp2165
g74
(dp2166
sg83
g2151
sg76
(lp2167
g69
(g70
g71
NtRp2168
(dp2169
g74
(dp2170
g82
I5
ssg83
g2164
sg76
(lp2171
g69
(g78
g71
NtRp2172
(dp2173
g74
(dp2174
g82
I4
ssg83
Nsg76
(lp2175
g69
(g85
g71
NtRp2176
(dp2177
g74
(dp2178
sg83
g2172
sg76
(lp2179
g69
(g90
g71
NtRp2180
(dp2181
g74
(dp2182
g94
g95
ssg83
g2176
sg76
(lp2183
g1057
asbag69
(g90
g71
NtRp2184
(dp2185
g74
(dp2186
g101
g102
ssg83
g2176
sg76
(lp2187
S':'
asbag69
(g90
g71
NtRp2188
(dp2189
g74
(dp2190
sg83
g2176
sg76
(lp2191
g69
(g70
g71
NtRp2192
(dp2193
g74
(dp2194
g82
I4
ssg83
g2188
sg76
(lp2195
S"set(['/home/wasuaje/Documentos/desarrollo/web2py5/applications/welcome/', '/home/wasuaje/Documentos/desarrollo/web2py5/applications/flota/', '/home/wasuaje/Documentos/desarrollo/web2py5/applications/admin/'])"
p2196
asbasbasbag69
(g85
g71
NtRp2197
(dp2198
g74
(dp2199
sg83
g2172
sg76
(lp2200
g69
(g90
g71
NtRp2201
(dp2202
g74
(dp2203
g94
g95
ssg83
g2197
sg76
(lp2204
g1079
asbag69
(g90
g71
NtRp2205
(dp2206
g74
(dp2207
g101
g102
ssg83
g2197
sg76
(lp2208
S':'
asbag69
(g90
g71
NtRp2209
(dp2210
g74
(dp2211
sg83
g2197
sg76
(lp2212
g69
(g70
g71
NtRp2213
(dp2214
g74
(dp2215
g82
I4
ssg83
g2209
sg76
(lp2216
g1092
asbasbasbag69
(g85
g71
NtRp2217
(dp2218
g74
(dp2219
sg83
g2172
sg76
(lp2220
g69
(g90
g71
NtRp2221
(dp2222
g74
(dp2223
g94
g95
ssg83
g2217
sg76
(lp2224
g1101
asbag69
(g90
g71
NtRp2225
(dp2226
g74
(dp2227
g101
g102
ssg83
g2217
sg76
(lp2228
S':'
asbag69
(g90
g71
NtRp2229
(dp2230
g74
(dp2231
sg83
g2217
sg76
(lp2232
g69
(g70
g71
NtRp2233
(dp2234
g74
(dp2235
g82
I4
ssg83
g2229
sg76
(lp2236
g69
(g78
g71
NtRp2237
(dp2238
g74
(dp2239
g82
I3
ssg83
Nsg76
(lp2240
sbasbasbasbag69
(g85
g71
NtRp2241
(dp2242
g74
(dp2243
sg83
g2172
sg76
(lp2244
g69
(g90
g71
NtRp2245
(dp2246
g74
(dp2247
g94
g95
ssg83
g2241
sg76
(lp2248
g1126
asbag69
(g90
g71
NtRp2249
(dp2250
g74
(dp2251
g101
g102
ssg83
g2241
sg76
(lp2252
S':'
asbag69
(g90
g71
NtRp2253
(dp2254
g74
(dp2255
sg83
g2241
sg76
(lp2256
g69
(g70
g71
NtRp2257
(dp2258
g74
(dp2259
g82
I4
ssg83
g2253
sg76
(lp2260
S"<Values at 0xa40c0ec: {'verbose': False, 'ip': '127.0.0.1', 'with_scheduler': False, 'ips': [], 'shutdown_timeout': 5, 'taskbar': False, 'port': 8000, 'maxthreads': None, 'softcron': False, 'server_name': 'wasuaje-desktop', 'bpython': False, 'nogui': False, 'pid_filename': 'httpserver.pid', 'extcron': False, 'runcron': False, 'run_system_tests': False, 'test': None, 'folder': '/home/wasuaje/Documentos/desarrollo/web2py5', 'config': '', 'import_models': False, 'winservice': '', 'shell': None, 'run': '', 'log_filename': 'httpserver.log', 'debuglevel': 30, 'args': [''], 'socket_timeout': 5, 'ssl_ca_certificate': None, 'scheduler': None, 'profiler_filename': None, 'ssl_private_key': '', 'scheduler_groups': None, 'password': '<ask>', 'request_queue_size': 5, 'ssl_certificate': '', 'cronjob': False, 'numthreads': None, 'quiet': False, 'interfaces': None, 'minthreads': None, 'timeout': 10, 'plain': False, 'nobanner': False}>"
p2261
asbasbasbag69
(g85
g71
NtRp2262
(dp2263
g74
(dp2264
sg83
g2172
sg76
(lp2265
g69
(g90
g71
NtRp2266
(dp2267
g74
(dp2268
g94
g95
ssg83
g2262
sg76
(lp2269
g1148
asbag69
(g90
g71
NtRp2270
(dp2271
g74
(dp2272
g101
g102
ssg83
g2262
sg76
(lp2273
S':'
asbag69
(g90
g71
NtRp2274
(dp2275
g74
(dp2276
sg83
g2262
sg76
(lp2277
g69
(g70
g71
NtRp2278
(dp2279
g74
(dp2280
g82
I4
ssg83
g2274
sg76
(lp2281
S'set([])'
p2282
asbasbasbag69
(g85
g71
NtRp2283
(dp2284
g74
(dp2285
sg83
g2172
sg76
(lp2286
g69
(g90
g71
NtRp2287
(dp2288
g74
(dp2289
g94
g95
ssg83
g2283
sg76
(lp2290
g1170
asbag69
(g90
g71
NtRp2291
(dp2292
g74
(dp2293
g101
g102
ssg83
g2283
sg76
(lp2294
S':'
asbag69
(g90
g71
NtRp2295
(dp2296
g74
(dp2297
sg83
g2283
sg76
(lp2298
g69
(g70
g71
NtRp2299
(dp2300
g74
(dp2301
g82
I4
ssg83
g2295
sg76
(lp2302
g112
asbasbasbag69
(g85
g71
NtRp2303
(dp2304
g74
(dp2305
sg83
g2172
sg76
(lp2306
g69
(g90
g71
NtRp2307
(dp2308
g74
(dp2309
g94
g95
ssg83
g2303
sg76
(lp2310
g1191
asbag69
(g90
g71
NtRp2311
(dp2312
g74
(dp2313
g101
g102
ssg83
g2303
sg76
(lp2314
S':'
asbag69
(g90
g71
NtRp2315
(dp2316
g74
(dp2317
sg83
g2303
sg76
(lp2318
g69
(g70
g71
NtRp2319
(dp2320
g74
(dp2321
g82
I4
ssg83
g2315
sg76
(lp2322
g1204
asbasbasbag69
(g85
g71
NtRp2323
(dp2324
g74
(dp2325
sg83
g2172
sg76
(lp2326
g69
(g90
g71
NtRp2327
(dp2328
g74
(dp2329
g94
g95
ssg83
g2323
sg76
(lp2330
g1389
asbag69
(g90
g71
NtRp2331
(dp2332
g74
(dp2333
g101
g102
ssg83
g2323
sg76
(lp2334
S':'
asbag69
(g90
g71
NtRp2335
(dp2336
g74
(dp2337
sg83
g2323
sg76
(lp2338
g69
(g70
g71
NtRp2339
(dp2340
g74
(dp2341
g82
I4
ssg83
g2335
sg76
(lp2342
g112
asbasbasbag69
(g85
g71
NtRp2343
(dp2344
g74
(dp2345
sg83
g2172
sg76
(lp2346
g69
(g90
g71
NtRp2347
(dp2348
g74
(dp2349
g94
g95
ssg83
g2343
sg76
(lp2350
g1410
asbag69
(g90
g71
NtRp2351
(dp2352
g74
(dp2353
g101
g102
ssg83
g2343
sg76
(lp2354
S':'
asbag69
(g90
g71
NtRp2355
(dp2356
g74
(dp2357
sg83
g2343
sg76
(lp2358
g69
(g70
g71
NtRp2359
(dp2360
g74
(dp2361
g82
I4
ssg83
g2355
sg76
(lp2362
g112
asbasbasbag69
(g85
g71
NtRp2363
(dp2364
g74
(dp2365
sg83
g2172
sg76
(lp2366
g69
(g90
g71
NtRp2367
(dp2368
g74
(dp2369
g94
g95
ssg83
g2363
sg76
(lp2370
g1431
asbag69
(g90
g71
NtRp2371
(dp2372
g74
(dp2373
g101
g102
ssg83
g2363
sg76
(lp2374
S':'
asbag69
(g90
g71
NtRp2375
(dp2376
g74
(dp2377
sg83
g2363
sg76
(lp2378
g69
(g70
g71
NtRp2379
(dp2380
g74
(dp2381
g82
I4
ssg83
g2375
sg76
(lp2382
g69
(g78
g71
NtRp2383
(dp2384
g74
(dp2385
g82
I3
ssg83
Nsg76
(lp2386
g69
(g85
g71
NtRp2387
(dp2388
g74
(dp2389
sg83
g2383
sg76
(lp2390
g69
(g90
g71
NtRp2391
(dp2392
g74
(dp2393
sg83
g2387
sg76
(lp2394
g69
(g70
g71
NtRp2395
(dp2396
g74
(dp2397
g82
I3
ssg83
g2391
sg76
(lp2398
g1460
asbasbasbag69
(g85
g71
NtRp2399
(dp2400
g74
(dp2401
sg83
g2383
sg76
(lp2402
g69
(g90
g71
NtRp2403
(dp2404
g74
(dp2405
sg83
g2399
sg76
(lp2406
g69
(g70
g71
NtRp2407
(dp2408
g74
(dp2409
g82
I3
ssg83
g2403
sg76
(lp2410
g1473
asbasbasbag69
(g85
g71
NtRp2411
(dp2412
g74
(dp2413
sg83
g2383
sg76
(lp2414
g69
(g90
g71
NtRp2415
(dp2416
g74
(dp2417
sg83
g2411
sg76
(lp2418
g69
(g70
g71
NtRp2419
(dp2420
g74
(dp2421
g82
I3
ssg83
g2415
sg76
(lp2422
g1486
asbasbasbag69
(g85
g71
NtRp2423
(dp2424
g74
(dp2425
sg83
g2383
sg76
(lp2426
g69
(g90
g71
NtRp2427
(dp2428
g74
(dp2429
sg83
g2423
sg76
(lp2430
g69
(g70
g71
NtRp2431
(dp2432
g74
(dp2433
g82
I3
ssg83
g2427
sg76
(lp2434
g1499
asbasbasbag69
(g85
g71
NtRp2435
(dp2436
g74
(dp2437
sg83
g2383
sg76
(lp2438
g69
(g90
g71
NtRp2439
(dp2440
g74
(dp2441
sg83
g2435
sg76
(lp2442
g69
(g70
g71
NtRp2443
(dp2444
g74
(dp2445
g82
I3
ssg83
g2439
sg76
(lp2446
g1512
asbasbasbasbasbasbasbag69
(g85
g71
NtRp2447
(dp2448
g74
(dp2449
sg83
g2172
sg76
(lp2450
g69
(g90
g71
NtRp2451
(dp2452
g74
(dp2453
g94
g95
ssg83
g2447
sg76
(lp2454
g1780
asbag69
(g90
g71
NtRp2455
(dp2456
g74
(dp2457
g101
g102
ssg83
g2447
sg76
(lp2458
S':'
asbag69
(g90
g71
NtRp2459
(dp2460
g74
(dp2461
sg83
g2447
sg76
(lp2462
g69
(g70
g71
NtRp2463
(dp2464
g74
(dp2465
g82
I4
ssg83
g2459
sg76
(lp2466
g69
(g78
g71
NtRp2467
(dp2468
g74
(dp2469
g82
I3
ssg83
Nsg76
(lp2470
g69
(g85
g71
NtRp2471
(dp2472
g74
(dp2473
sg83
g2467
sg76
(lp2474
g69
(g90
g71
NtRp2475
(dp2476
g74
(dp2477
sg83
g2471
sg76
(lp2478
g69
(g70
g71
NtRp2479
(dp2480
g74
(dp2481
g82
I3
ssg83
g2475
sg76
(lp2482
S'2'
asbasbasbag69
(g85
g71
NtRp2483
(dp2484
g74
(dp2485
sg83
g2467
sg76
(lp2486
g69
(g90
g71
NtRp2487
(dp2488
g74
(dp2489
sg83
g2483
sg76
(lp2490
g69
(g70
g71
NtRp2491
(dp2492
g74
(dp2493
g82
I3
ssg83
g2487
sg76
(lp2494
S'3'
asbasbasbag69
(g85
g71
NtRp2495
(dp2496
g74
(dp2497
sg83
g2467
sg76
(lp2498
g69
(g90
g71
NtRp2499
(dp2500
g74
(dp2501
sg83
g2495
sg76
(lp2502
g69
(g70
g71
NtRp2503
(dp2504
g74
(dp2505
g82
I3
ssg83
g2499
sg76
(lp2506
S'2'
asbasbasbag69
(g85
g71
NtRp2507
(dp2508
g74
(dp2509
sg83
g2467
sg76
(lp2510
g69
(g90
g71
NtRp2511
(dp2512
g74
(dp2513
sg83
g2507
sg76
(lp2514
g69
(g70
g71
NtRp2515
(dp2516
g74
(dp2517
g82
I3
ssg83
g2511
sg76
(lp2518
S'datetime.datetime(2012, 12, 17, 15, 3, 30)'
p2519
asbasbasbag69
(g85
g71
NtRp2520
(dp2521
g74
(dp2522
sg83
g2467
sg76
(lp2523
g69
(g90
g71
NtRp2524
(dp2525
g74
(dp2526
sg83
g2520
sg76
(lp2527
g69
(g70
g71
NtRp2528
(dp2529
g74
(dp2530
g82
I3
ssg83
g2524
sg76
(lp2531
g1858
asbasbasbasbasbasbasbasbasbasbasbag69
(g85
g71
NtRp2532
(dp2533
g74
(dp2534
sg83
g79
sg76
(lp2535
g69
(g90
g71
NtRp2536
(dp2537
g74
(dp2538
g94
g95
ssg83
g2532
sg76
(lp2539
S'is_https'
p2540
asbag69
(g90
g71
NtRp2541
(dp2542
g74
(dp2543
g101
g102
ssg83
g2532
sg76
(lp2544
S':'
asbag69
(g90
g71
NtRp2545
(dp2546
g74
(dp2547
sg83
g2532
sg76
(lp2548
g69
(g70
g71
NtRp2549
(dp2550
g74
(dp2551
g82
I5
ssg83
g2545
sg76
(lp2552
g112
asbasbasbag69
(g85
g71
NtRp2553
(dp2554
g74
(dp2555
sg83
g79
sg76
(lp2556
g69
(g90
g71
NtRp2557
(dp2558
g74
(dp2559
g94
g95
ssg83
g2553
sg76
(lp2560
S'is_local'
p2561
asbag69
(g90
g71
NtRp2562
(dp2563
g74
(dp2564
g101
g102
ssg83
g2553
sg76
(lp2565
S':'
asbag69
(g90
g71
NtRp2566
(dp2567
g74
(dp2568
sg83
g2553
sg76
(lp2569
g69
(g70
g71
NtRp2570
(dp2571
g74
(dp2572
g82
I5
ssg83
g2566
sg76
(lp2573
g1967
asbasbasbag69
(g85
g71
NtRp2574
(dp2575
g74
(dp2576
sg83
g79
sg76
(lp2577
g69
(g90
g71
NtRp2578
(dp2579
g74
(dp2580
g94
g95
ssg83
g2574
sg76
(lp2581
S'is_restful'
p2582
asbag69
(g90
g71
NtRp2583
(dp2584
g74
(dp2585
g101
g102
ssg83
g2574
sg76
(lp2586
S':'
asbag69
(g90
g71
NtRp2587
(dp2588
g74
(dp2589
sg83
g2574
sg76
(lp2590
g69
(g70
g71
NtRp2591
(dp2592
g74
(dp2593
g82
I5
ssg83
g2587
sg76
(lp2594
g112
asbasbasbag69
(g85
g71
NtRp2595
(dp2596
g74
(dp2597
sg83
g79
sg76
(lp2598
g69
(g90
g71
NtRp2599
(dp2600
g74
(dp2601
g94
g95
ssg83
g2595
sg76
(lp2602
S'now'
p2603
asbag69
(g90
g71
NtRp2604
(dp2605
g74
(dp2606
g101
g102
ssg83
g2595
sg76
(lp2607
S':'
asbag69
(g90
g71
NtRp2608
(dp2609
g74
(dp2610
sg83
g2595
sg76
(lp2611
g69
(g70
g71
NtRp2612
(dp2613
g74
(dp2614
g82
I5
ssg83
g2608
sg76
(lp2615
S'datetime.datetime(2013, 2, 7, 12, 8, 46, 794203)'
p2616
asbasbasbag69
(g85
g71
NtRp2617
(dp2618
g74
(dp2619
sg83
g79
sg76
(lp2620
g69
(g90
g71
NtRp2621
(dp2622
g74
(dp2623
g94
g95
ssg83
g2617
sg76
(lp2624
S'post_vars'
p2625
asbag69
(g90
g71
NtRp2626
(dp2627
g74
(dp2628
g101
g102
ssg83
g2617
sg76
(lp2629
S':'
asbag69
(g90
g71
NtRp2630
(dp2631
g74
(dp2632
sg83
g2617
sg76
(lp2633
g69
(g70
g71
NtRp2634
(dp2635
g74
(dp2636
g82
I5
ssg83
g2630
sg76
(lp2637
g69
(g78
g71
NtRp2638
(dp2639
g74
(dp2640
g82
I4
ssg83
Nsg76
(lp2641
sbasbasbasbag69
(g85
g71
NtRp2642
(dp2643
g74
(dp2644
sg83
g79
sg76
(lp2645
g69
(g90
g71
NtRp2646
(dp2647
g74
(dp2648
g94
g95
ssg83
g2642
sg76
(lp2649
S'raw_args'
p2650
asbag69
(g90
g71
NtRp2651
(dp2652
g74
(dp2653
g101
g102
ssg83
g2642
sg76
(lp2654
S':'
asbag69
(g90
g71
NtRp2655
(dp2656
g74
(dp2657
sg83
g2642
sg76
(lp2658
g69
(g70
g71
NtRp2659
(dp2660
g74
(dp2661
g82
I5
ssg83
g2655
sg76
(lp2662
S''
asbasbasbag69
(g85
g71
NtRp2663
(dp2664
g74
(dp2665
sg83
g79
sg76
(lp2666
g69
(g90
g71
NtRp2667
(dp2668
g74
(dp2669
g94
g95
ssg83
g2663
sg76
(lp2670
S'raw_extension'
p2671
asbag69
(g90
g71
NtRp2672
(dp2673
g74
(dp2674
g101
g102
ssg83
g2663
sg76
(lp2675
S':'
asbag69
(g90
g71
NtRp2676
(dp2677
g74
(dp2678
sg83
g2663
sg76
(lp2679
g69
(g70
g71
NtRp2680
(dp2681
g74
(dp2682
g82
I5
ssg83
g2676
sg76
(lp2683
S'None'
p2684
asbasbasbag69
(g85
g71
NtRp2685
(dp2686
g74
(dp2687
sg83
g79
sg76
(lp2688
g69
(g90
g71
NtRp2689
(dp2690
g74
(dp2691
g94
g95
ssg83
g2685
sg76
(lp2692
S'url'
p2693
asbag69
(g90
g71
NtRp2694
(dp2695
g74
(dp2696
g101
g102
ssg83
g2685
sg76
(lp2697
S':'
asbag69
(g90
g71
NtRp2698
(dp2699
g74
(dp2700
sg83
g2685
sg76
(lp2701
g69
(g70
g71
NtRp2702
(dp2703
g74
(dp2704
g82
I5
ssg83
g2698
sg76
(lp2705
g1534
asbasbasbag69
(g85
g71
NtRp2706
(dp2707
g74
(dp2708
sg83
g79
sg76
(lp2709
g69
(g90
g71
NtRp2710
(dp2711
g74
(dp2712
g94
g95
ssg83
g2706
sg76
(lp2713
S'utcnow'
p2714
asbag69
(g90
g71
NtRp2715
(dp2716
g74
(dp2717
g101
g102
ssg83
g2706
sg76
(lp2718
S':'
asbag69
(g90
g71
NtRp2719
(dp2720
g74
(dp2721
sg83
g2706
sg76
(lp2722
g69
(g70
g71
NtRp2723
(dp2724
g74
(dp2725
g82
I5
ssg83
g2719
sg76
(lp2726
S'datetime.datetime(2013, 2, 7, 16, 38, 46, 794224)'
p2727
asbasbasbag69
(g85
g71
NtRp2728
(dp2729
g74
(dp2730
sg83
g79
sg76
(lp2731
g69
(g90
g71
NtRp2732
(dp2733
g74
(dp2734
g94
g95
ssg83
g2728
sg76
(lp2735
S'uuid'
p2736
asbag69
(g90
g71
NtRp2737
(dp2738
g74
(dp2739
g101
g102
ssg83
g2728
sg76
(lp2740
S':'
asbag69
(g90
g71
NtRp2741
(dp2742
g74
(dp2743
sg83
g2728
sg76
(lp2744
g69
(g70
g71
NtRp2745
(dp2746
g74
(dp2747
g82
I5
ssg83
g2741
sg76
(lp2748
S'flota/127.0.0.1.2013-02-07.12-08-46.d02caa36-5739-49dc-b4ba-14330b720e48'
p2749
asbasbasbag69
(g85
g71
NtRp2750
(dp2751
g74
(dp2752
sg83
g79
sg76
(lp2753
g69
(g90
g71
NtRp2754
(dp2755
g74
(dp2756
g94
g95
ssg83
g2750
sg76
(lp2757
S'vars'
p2758
asbag69
(g90
g71
NtRp2759
(dp2760
g74
(dp2761
g101
g102
ssg83
g2750
sg76
(lp2762
S':'
asbag69
(g90
g71
NtRp2763
(dp2764
g74
(dp2765
sg83
g2750
sg76
(lp2766
g69
(g70
g71
NtRp2767
(dp2768
g74
(dp2769
g82
I5
ssg83
g2763
sg76
(lp2770
g69
(g78
g71
NtRp2771
(dp2772
g74
(dp2773
g82
I4
ssg83
Nsg76
(lp2774
sbasbasbasbag69
(g85
g71
NtRp2775
(dp2776
g74
(dp2777
sg83
g79
sg76
(lp2778
g69
(g90
g71
NtRp2779
(dp2780
g74
(dp2781
g94
g95
ssg83
g2775
sg76
(lp2782
S'wsgi'
p2783
asbag69
(g90
g71
NtRp2784
(dp2785
g74
(dp2786
g101
g102
ssg83
g2775
sg76
(lp2787
S':'
asbag69
(g90
g71
NtRp2788
(dp2789
g74
(dp2790
sg83
g2775
sg76
(lp2791
g69
(g70
g71
NtRp2792
(dp2793
g74
(dp2794
g82
I5
ssg83
g2788
sg76
(lp2795
g69
(g78
g71
NtRp2796
(dp2797
g74
(dp2798
g82
I4
ssg83
Nsg76
(lp2799
g69
(g85
g71
NtRp2800
(dp2801
g74
(dp2802
sg83
g2796
sg76
(lp2803
g69
(g90
g71
NtRp2804
(dp2805
g74
(dp2806
g94
g95
ssg83
g2800
sg76
(lp2807
S'environ'
p2808
asbag69
(g90
g71
NtRp2809
(dp2810
g74
(dp2811
g101
g102
ssg83
g2800
sg76
(lp2812
S':'
asbag69
(g90
g71
NtRp2813
(dp2814
g74
(dp2815
sg83
g2800
sg76
(lp2816
g69
(g70
g71
NtRp2817
(dp2818
g74
(dp2819
g82
I4
ssg83
g2813
sg76
(lp2820
g69
(g78
g71
NtRp2821
(dp2822
g74
(dp2823
g82
I3
ssg83
Nsg76
(lp2824
g69
(g85
g71
NtRp2825
(dp2826
g74
(dp2827
sg83
g2821
sg76
(lp2828
g69
(g90
g71
NtRp2829
(dp2830
g74
(dp2831
g94
g95
ssg83
g2825
sg76
(lp2832
S'HTTP_ACCEPT'
p2833
asbag69
(g90
g71
NtRp2834
(dp2835
g74
(dp2836
g101
g102
ssg83
g2825
sg76
(lp2837
S':'
asbag69
(g90
g71
NtRp2838
(dp2839
g74
(dp2840
sg83
g2825
sg76
(lp2841
g69
(g70
g71
NtRp2842
(dp2843
g74
(dp2844
g82
I3
ssg83
g2838
sg76
(lp2845
g1226
asbasbasbag69
(g85
g71
NtRp2846
(dp2847
g74
(dp2848
sg83
g2821
sg76
(lp2849
g69
(g90
g71
NtRp2850
(dp2851
g74
(dp2852
g94
g95
ssg83
g2846
sg76
(lp2853
S'HTTP_ACCEPT_ENCODING'
p2854
asbag69
(g90
g71
NtRp2855
(dp2856
g74
(dp2857
g101
g102
ssg83
g2846
sg76
(lp2858
S':'
asbag69
(g90
g71
NtRp2859
(dp2860
g74
(dp2861
sg83
g2846
sg76
(lp2862
g69
(g70
g71
NtRp2863
(dp2864
g74
(dp2865
g82
I3
ssg83
g2859
sg76
(lp2866
g1248
asbasbasbag69
(g85
g71
NtRp2867
(dp2868
g74
(dp2869
sg83
g2821
sg76
(lp2870
g69
(g90
g71
NtRp2871
(dp2872
g74
(dp2873
g94
g95
ssg83
g2867
sg76
(lp2874
S'HTTP_ACCEPT_LANGUAGE'
p2875
asbag69
(g90
g71
NtRp2876
(dp2877
g74
(dp2878
g101
g102
ssg83
g2867
sg76
(lp2879
S':'
asbag69
(g90
g71
NtRp2880
(dp2881
g74
(dp2882
sg83
g2867
sg76
(lp2883
g69
(g70
g71
NtRp2884
(dp2885
g74
(dp2886
g82
I3
ssg83
g2880
sg76
(lp2887
g1270
asbasbasbag69
(g85
g71
NtRp2888
(dp2889
g74
(dp2890
sg83
g2821
sg76
(lp2891
g69
(g90
g71
NtRp2892
(dp2893
g74
(dp2894
g94
g95
ssg83
g2888
sg76
(lp2895
S'HTTP_CACHE_CONTROL'
p2896
asbag69
(g90
g71
NtRp2897
(dp2898
g74
(dp2899
g101
g102
ssg83
g2888
sg76
(lp2900
S':'
asbag69
(g90
g71
NtRp2901
(dp2902
g74
(dp2903
sg83
g2888
sg76
(lp2904
g69
(g70
g71
NtRp2905
(dp2906
g74
(dp2907
g82
I3
ssg83
g2901
sg76
(lp2908
g1292
asbasbasbag69
(g85
g71
NtRp2909
(dp2910
g74
(dp2911
sg83
g2821
sg76
(lp2912
g69
(g90
g71
NtRp2913
(dp2914
g74
(dp2915
g94
g95
ssg83
g2909
sg76
(lp2916
S'HTTP_CONNECTION'
p2917
asbag69
(g90
g71
NtRp2918
(dp2919
g74
(dp2920
g101
g102
ssg83
g2909
sg76
(lp2921
S':'
asbag69
(g90
g71
NtRp2922
(dp2923
g74
(dp2924
sg83
g2909
sg76
(lp2925
g69
(g70
g71
NtRp2926
(dp2927
g74
(dp2928
g82
I3
ssg83
g2922
sg76
(lp2929
g1314
asbasbasbag69
(g85
g71
NtRp2930
(dp2931
g74
(dp2932
sg83
g2821
sg76
(lp2933
g69
(g90
g71
NtRp2934
(dp2935
g74
(dp2936
g94
g95
ssg83
g2930
sg76
(lp2937
S'HTTP_COOKIE'
p2938
asbag69
(g90
g71
NtRp2939
(dp2940
g74
(dp2941
g101
g102
ssg83
g2930
sg76
(lp2942
S':'
asbag69
(g90
g71
NtRp2943
(dp2944
g74
(dp2945
sg83
g2930
sg76
(lp2946
g69
(g70
g71
NtRp2947
(dp2948
g74
(dp2949
g82
I3
ssg83
g2943
sg76
(lp2950
g1336
asbasbasbag69
(g85
g71
NtRp2951
(dp2952
g74
(dp2953
sg83
g2821
sg76
(lp2954
g69
(g90
g71
NtRp2955
(dp2956
g74
(dp2957
g94
g95
ssg83
g2951
sg76
(lp2958
S'HTTP_HOST'
p2959
asbag69
(g90
g71
NtRp2960
(dp2961
g74
(dp2962
g101
g102
ssg83
g2951
sg76
(lp2963
S':'
asbag69
(g90
g71
NtRp2964
(dp2965
g74
(dp2966
sg83
g2951
sg76
(lp2967
g69
(g70
g71
NtRp2968
(dp2969
g74
(dp2970
g82
I3
ssg83
g2964
sg76
(lp2971
g1358
asbasbasbag69
(g85
g71
NtRp2972
(dp2973
g74
(dp2974
sg83
g2821
sg76
(lp2975
g69
(g90
g71
NtRp2976
(dp2977
g74
(dp2978
g94
g95
ssg83
g2972
sg76
(lp2979
S'HTTP_USER_AGENT'
p2980
asbag69
(g90
g71
NtRp2981
(dp2982
g74
(dp2983
g101
g102
ssg83
g2972
sg76
(lp2984
S':'
asbag69
(g90
g71
NtRp2985
(dp2986
g74
(dp2987
sg83
g2972
sg76
(lp2988
g69
(g70
g71
NtRp2989
(dp2990
g74
(dp2991
g82
I3
ssg83
g2985
sg76
(lp2992
g1380
asbasbasbag69
(g85
g71
NtRp2993
(dp2994
g74
(dp2995
sg83
g2821
sg76
(lp2996
g69
(g90
g71
NtRp2997
(dp2998
g74
(dp2999
g94
g95
ssg83
g2993
sg76
(lp3000
S'PATH_INFO'
p3001
asbag69
(g90
g71
NtRp3002
(dp3003
g74
(dp3004
g101
g102
ssg83
g2993
sg76
(lp3005
S':'
asbag69
(g90
g71
NtRp3006
(dp3007
g74
(dp3008
sg83
g2993
sg76
(lp3009
g69
(g70
g71
NtRp3010
(dp3011
g74
(dp3012
g82
I3
ssg83
g3006
sg76
(lp3013
g1534
asbasbasbag69
(g85
g71
NtRp3014
(dp3015
g74
(dp3016
sg83
g2821
sg76
(lp3017
g69
(g90
g71
NtRp3018
(dp3019
g74
(dp3020
g94
g95
ssg83
g3014
sg76
(lp3021
S'QUERY_STRING'
p3022
asbag69
(g90
g71
NtRp3023
(dp3024
g74
(dp3025
g101
g102
ssg83
g3014
sg76
(lp3026
S':'
asbag69
(g90
g71
NtRp3027
(dp3028
g74
(dp3029
sg83
g3014
sg76
(lp3030
g69
(g70
g71
NtRp3031
(dp3032
g74
(dp3033
g82
I3
ssg83
g3027
sg76
(lp3034
S''
asbasbasbag69
(g85
g71
NtRp3035
(dp3036
g74
(dp3037
sg83
g2821
sg76
(lp3038
g69
(g90
g71
NtRp3039
(dp3040
g74
(dp3041
g94
g95
ssg83
g3035
sg76
(lp3042
S'REMOTE_ADDR'
p3043
asbag69
(g90
g71
NtRp3044
(dp3045
g74
(dp3046
g101
g102
ssg83
g3035
sg76
(lp3047
S':'
asbag69
(g90
g71
NtRp3048
(dp3049
g74
(dp3050
sg83
g3035
sg76
(lp3051
g69
(g70
g71
NtRp3052
(dp3053
g74
(dp3054
g82
I3
ssg83
g3048
sg76
(lp3055
g224
asbasbasbag69
(g85
g71
NtRp3056
(dp3057
g74
(dp3058
sg83
g2821
sg76
(lp3059
g69
(g90
g71
NtRp3060
(dp3061
g74
(dp3062
g94
g95
ssg83
g3056
sg76
(lp3063
S'REMOTE_PORT'
p3064
asbag69
(g90
g71
NtRp3065
(dp3066
g74
(dp3067
g101
g102
ssg83
g3056
sg76
(lp3068
S':'
asbag69
(g90
g71
NtRp3069
(dp3070
g74
(dp3071
sg83
g3056
sg76
(lp3072
g69
(g70
g71
NtRp3073
(dp3074
g74
(dp3075
g82
I3
ssg83
g3069
sg76
(lp3076
g1598
asbasbasbag69
(g85
g71
NtRp3077
(dp3078
g74
(dp3079
sg83
g2821
sg76
(lp3080
g69
(g90
g71
NtRp3081
(dp3082
g74
(dp3083
g94
g95
ssg83
g3077
sg76
(lp3084
S'REQUEST_METHOD'
p3085
asbag69
(g90
g71
NtRp3086
(dp3087
g74
(dp3088
g101
g102
ssg83
g3077
sg76
(lp3089
S':'
asbag69
(g90
g71
NtRp3090
(dp3091
g74
(dp3092
sg83
g3077
sg76
(lp3093
g69
(g70
g71
NtRp3094
(dp3095
g74
(dp3096
g82
I3
ssg83
g3090
sg76
(lp3097
g1620
asbasbasbag69
(g85
g71
NtRp3098
(dp3099
g74
(dp3100
sg83
g2821
sg76
(lp3101
g69
(g90
g71
NtRp3102
(dp3103
g74
(dp3104
g94
g95
ssg83
g3098
sg76
(lp3105
S'REQUEST_URI'
p3106
asbag69
(g90
g71
NtRp3107
(dp3108
g74
(dp3109
g101
g102
ssg83
g3098
sg76
(lp3110
S':'
asbag69
(g90
g71
NtRp3111
(dp3112
g74
(dp3113
sg83
g3098
sg76
(lp3114
g69
(g70
g71
NtRp3115
(dp3116
g74
(dp3117
g82
I3
ssg83
g3111
sg76
(lp3118
g1534
asbasbasbag69
(g85
g71
NtRp3119
(dp3120
g74
(dp3121
sg83
g2821
sg76
(lp3122
g69
(g90
g71
NtRp3123
(dp3124
g74
(dp3125
g94
g95
ssg83
g3119
sg76
(lp3126
S'SCRIPT_NAME'
p3127
asbag69
(g90
g71
NtRp3128
(dp3129
g74
(dp3130
g101
g102
ssg83
g3119
sg76
(lp3131
S':'
asbag69
(g90
g71
NtRp3132
(dp3133
g74
(dp3134
sg83
g3119
sg76
(lp3135
g69
(g70
g71
NtRp3136
(dp3137
g74
(dp3138
g82
I3
ssg83
g3132
sg76
(lp3139
S''
asbasbasbag69
(g85
g71
NtRp3140
(dp3141
g74
(dp3142
sg83
g2821
sg76
(lp3143
g69
(g90
g71
NtRp3144
(dp3145
g74
(dp3146
g94
g95
ssg83
g3140
sg76
(lp3147
S'SERVER_NAME'
p3148
asbag69
(g90
g71
NtRp3149
(dp3150
g74
(dp3151
g101
g102
ssg83
g3140
sg76
(lp3152
S':'
asbag69
(g90
g71
NtRp3153
(dp3154
g74
(dp3155
sg83
g3140
sg76
(lp3156
g69
(g70
g71
NtRp3157
(dp3158
g74
(dp3159
g82
I3
ssg83
g3153
sg76
(lp3160
g1684
asbasbasbag69
(g85
g71
NtRp3161
(dp3162
g74
(dp3163
sg83
g2821
sg76
(lp3164
g69
(g90
g71
NtRp3165
(dp3166
g74
(dp3167
g94
g95
ssg83
g3161
sg76
(lp3168
S'SERVER_PORT'
p3169
asbag69
(g90
g71
NtRp3170
(dp3171
g74
(dp3172
g101
g102
ssg83
g3161
sg76
(lp3173
S':'
asbag69
(g90
g71
NtRp3174
(dp3175
g74
(dp3176
sg83
g3161
sg76
(lp3177
g69
(g70
g71
NtRp3178
(dp3179
g74
(dp3180
g82
I3
ssg83
g3174
sg76
(lp3181
g1706
asbasbasbag69
(g85
g71
NtRp3182
(dp3183
g74
(dp3184
sg83
g2821
sg76
(lp3185
g69
(g90
g71
NtRp3186
(dp3187
g74
(dp3188
g94
g95
ssg83
g3182
sg76
(lp3189
S'SERVER_PROTOCOL'
p3190
asbag69
(g90
g71
NtRp3191
(dp3192
g74
(dp3193
g101
g102
ssg83
g3182
sg76
(lp3194
S':'
asbag69
(g90
g71
NtRp3195
(dp3196
g74
(dp3197
sg83
g3182
sg76
(lp3198
g69
(g70
g71
NtRp3199
(dp3200
g74
(dp3201
g82
I3
ssg83
g3195
sg76
(lp3202
g1728
asbasbasbag69
(g85
g71
NtRp3203
(dp3204
g74
(dp3205
sg83
g2821
sg76
(lp3206
g69
(g90
g71
NtRp3207
(dp3208
g74
(dp3209
g94
g95
ssg83
g3203
sg76
(lp3210
S'SERVER_SOFTWARE'
p3211
asbag69
(g90
g71
NtRp3212
(dp3213
g74
(dp3214
g101
g102
ssg83
g3203
sg76
(lp3215
S':'
asbag69
(g90
g71
NtRp3216
(dp3217
g74
(dp3218
sg83
g3203
sg76
(lp3219
g69
(g70
g71
NtRp3220
(dp3221
g74
(dp3222
g82
I3
ssg83
g3216
sg76
(lp3223
g1750
asbasbasbag69
(g85
g71
NtRp3224
(dp3225
g74
(dp3226
sg83
g2821
sg76
(lp3227
g69
(g90
g71
NtRp3228
(dp3229
g74
(dp3230
g94
g95
ssg83
g3224
sg76
(lp3231
S'wsgi.errors'
p3232
asbag69
(g90
g71
NtRp3233
(dp3234
g74
(dp3235
g101
g102
ssg83
g3224
sg76
(lp3236
S':'
asbag69
(g90
g71
NtRp3237
(dp3238
g74
(dp3239
sg83
g3224
sg76
(lp3240
g69
(g70
g71
NtRp3241
(dp3242
g74
(dp3243
g82
I3
ssg83
g3237
sg76
(lp3244
S"<open file '<stderr>', mode 'w' at 0xb754b0d0>"
p3245
asbasbasbag69
(g85
g71
NtRp3246
(dp3247
g74
(dp3248
sg83
g2821
sg76
(lp3249
g69
(g90
g71
NtRp3250
(dp3251
g74
(dp3252
g94
g95
ssg83
g3246
sg76
(lp3253
S'wsgi.file_wrapper'
p3254
asbag69
(g90
g71
NtRp3255
(dp3256
g74
(dp3257
g101
g102
ssg83
g3246
sg76
(lp3258
S':'
asbag69
(g90
g71
NtRp3259
(dp3260
g74
(dp3261
sg83
g3246
sg76
(lp3262
g69
(g70
g71
NtRp3263
(dp3264
g74
(dp3265
g82
I3
ssg83
g3259
sg76
(lp3266
S'<class wsgiref.util.FileWrapper at 0xa3c42fc>'
p3267
asbasbasbag69
(g85
g71
NtRp3268
(dp3269
g74
(dp3270
sg83
g2821
sg76
(lp3271
g69
(g90
g71
NtRp3272
(dp3273
g74
(dp3274
g94
g95
ssg83
g3268
sg76
(lp3275
S'wsgi.input'
p3276
asbag69
(g90
g71
NtRp3277
(dp3278
g74
(dp3279
g101
g102
ssg83
g3268
sg76
(lp3280
S':'
asbag69
(g90
g71
NtRp3281
(dp3282
g74
(dp3283
sg83
g3268
sg76
(lp3284
g69
(g70
g71
NtRp3285
(dp3286
g74
(dp3287
g82
I3
ssg83
g3281
sg76
(lp3288
S'<cStringIO.StringO object at 0xa42d7a0>'
p3289
asbasbasbag69
(g85
g71
NtRp3290
(dp3291
g74
(dp3292
sg83
g2821
sg76
(lp3293
g69
(g90
g71
NtRp3294
(dp3295
g74
(dp3296
g94
g95
ssg83
g3290
sg76
(lp3297
S'wsgi.multiprocess'
p3298
asbag69
(g90
g71
NtRp3299
(dp3300
g74
(dp3301
g101
g102
ssg83
g3290
sg76
(lp3302
S':'
asbag69
(g90
g71
NtRp3303
(dp3304
g74
(dp3305
sg83
g3290
sg76
(lp3306
g69
(g70
g71
NtRp3307
(dp3308
g74
(dp3309
g82
I3
ssg83
g3303
sg76
(lp3310
g112
asbasbasbag69
(g85
g71
NtRp3311
(dp3312
g74
(dp3313
sg83
g2821
sg76
(lp3314
g69
(g90
g71
NtRp3315
(dp3316
g74
(dp3317
g94
g95
ssg83
g3311
sg76
(lp3318
S'wsgi.multithread'
p3319
asbag69
(g90
g71
NtRp3320
(dp3321
g74
(dp3322
g101
g102
ssg83
g3311
sg76
(lp3323
S':'
asbag69
(g90
g71
NtRp3324
(dp3325
g74
(dp3326
sg83
g3311
sg76
(lp3327
g69
(g70
g71
NtRp3328
(dp3329
g74
(dp3330
g82
I3
ssg83
g3324
sg76
(lp3331
g1967
asbasbasbag69
(g85
g71
NtRp3332
(dp3333
g74
(dp3334
sg83
g2821
sg76
(lp3335
g69
(g90
g71
NtRp3336
(dp3337
g74
(dp3338
g94
g95
ssg83
g3332
sg76
(lp3339
S'wsgi.run_once'
p3340
asbag69
(g90
g71
NtRp3341
(dp3342
g74
(dp3343
g101
g102
ssg83
g3332
sg76
(lp3344
S':'
asbag69
(g90
g71
NtRp3345
(dp3346
g74
(dp3347
sg83
g3332
sg76
(lp3348
g69
(g70
g71
NtRp3349
(dp3350
g74
(dp3351
g82
I3
ssg83
g3345
sg76
(lp3352
g112
asbasbasbag69
(g85
g71
NtRp3353
(dp3354
g74
(dp3355
sg83
g2821
sg76
(lp3356
g69
(g90
g71
NtRp3357
(dp3358
g74
(dp3359
g94
g95
ssg83
g3353
sg76
(lp3360
S'wsgi.url_scheme'
p3361
asbag69
(g90
g71
NtRp3362
(dp3363
g74
(dp3364
g101
g102
ssg83
g3353
sg76
(lp3365
S':'
asbag69
(g90
g71
NtRp3366
(dp3367
g74
(dp3368
sg83
g3353
sg76
(lp3369
g69
(g70
g71
NtRp3370
(dp3371
g74
(dp3372
g82
I3
ssg83
g3366
sg76
(lp3373
g2010
asbasbasbag69
(g85
g71
NtRp3374
(dp3375
g74
(dp3376
sg83
g2821
sg76
(lp3377
g69
(g90
g71
NtRp3378
(dp3379
g74
(dp3380
g94
g95
ssg83
g3374
sg76
(lp3381
S'wsgi.version'
p3382
asbag69
(g90
g71
NtRp3383
(dp3384
g74
(dp3385
g101
g102
ssg83
g3374
sg76
(lp3386
S':'
asbag69
(g90
g71
NtRp3387
(dp3388
g74
(dp3389
sg83
g3374
sg76
(lp3390
g69
(g70
g71
NtRp3391
(dp3392
g74
(dp3393
g82
I3
ssg83
g3387
sg76
(lp3394
S'1'
asbasbasbasbasbasbasbasbasbasbasbasbasbsS'frames'
p3395
(lp3396
(dp3397
S'file'
p3398
S'/home/wasuaje/Documentos/desarrollo/web2py5/gluon/restricted.py'
p3399
sS'dump'
p3400
(dp3401
S'code'
p3402
S'\'response.write(\\\'<!DOCTYPE html PUBLIC "-//W3C//D...d footer -->\\\\n </body>\\\\n</html>\\\\n\\\', escape=False)\''
p3403
sS'layer'
p3404
S"'/home/wasuaje/Documentos/desarrollo/web2py5/applications/flota/views/cobro2/index.html'"
p3405
sS'global compile2'
p3406
S'<function compile2>'
p3407
sS'ccode'
p3408
S'undefined'
p3409
ssS'lnum'
p3410
I211
sS'lines'
p3411
(dp3412
I206
S"    environment['__name__'] = '__restricted__'"
p3413
sI207
S'    try:'
p3414
sI208
S'        if isinstance(code, types.CodeType):'
p3415
sI209
S'            ccode = code'
p3416
sI210
S'        else:'
p3417
sI211
S'            ccode = compile2(code, layer)'
p3418
sI212
S'        exec ccode in environment'
p3419
sI213
S'    except HTTP:'
p3420
sI214
S'        raise'
p3421
sI215
S'    except RestrictedError:'
p3422
ssS'call'
p3423
S'(code=\'response.write(\\\'<!DOCTYPE html PUBLIC "-//W3C//D...d footer -->\\\\n </body>\\\\n</html>\\\\n\\\', escape=False)\', environment={\'A\': <class \'gluon.html.A\'>, \'Auth\': <class \'gluon.tools.Auth\'>, \'B\': <class \'gluon.html.B\'>, \'BEAUTIFY\': <class \'gluon.html.BEAUTIFY\'>, \'BODY\': <class \'gluon.html.BODY\'>, \'BR\': <class \'gluon.html.BR\'>, \'BUTTON\': <class \'gluon.html.BUTTON\'>, \'CAT\': <class \'gluon.html.CAT\'>, \'CENTER\': <class \'gluon.html.CENTER\'>, \'CLEANUP\': <class \'gluon.validators.CLEANUP\'>, ...}, layer=\'/home/wasuaje/Documentos/desarrollo/web2py5/applications/flota/views/cobro2/index.html\')'
p3424
sS'func'
p3425
S'restricted'
p3426
sa(dp3427
g3398
S'/home/wasuaje/Documentos/desarrollo/web2py5/gluon/restricted.py'
p3428
sg3400
(dp3429
S'builtincompile'
p3430
S'<built-in function compile>'
p3431
sS'code'
p3432
S'\'response.write(\\\'<!DOCTYPE html PUBLIC "-//W3C//D...d footer -->\\\\n </body>\\\\n</html>\\\\n\\\', escape=False)\''
p3433
sS'code.rstrip'
p3434
S'<built-in method rstrip of str object>'
p3435
sS').replace'
p3436
g3409
sS'layer'
p3437
S"'/home/wasuaje/Documentos/desarrollo/web2py5/applications/flota/views/cobro2/index.html'"
p3438
ssg3410
I194
sg3411
(dp3439
I192
S"    The +'\\n' is necessary else compile fails when code ends in a comment."
p3440
sI193
S'    """'
p3441
sI194
S"    return compile(code.rstrip().replace('\\r\\n', '\\n') + '\\n', layer, 'exec')"
p3442
sI195
S''
sI196
S''
sI197
S"def restricted(code, environment=None, layer='Unknown'):"
p3443
sI198
S'    """'
p3444
sI189
S''
sI190
S'def compile2(code, layer):'
p3445
sI191
S'    """'
p3446
ssg3423
S'(code=\'response.write(\\\'<!DOCTYPE html PUBLIC "-//W3C//D...d footer -->\\\\n </body>\\\\n</html>\\\\n\\\', escape=False)\', layer=\'/home/wasuaje/Documentos/desarrollo/web2py5/applications/flota/views/cobro2/index.html\')'
p3447
sg3425
S'compile2'
p3448
sasS'pyver'
p3449
S'Python 2.7.3: /usr/bin/python'
p3450
sS'session'
p3451
g69
(g70
g71
NtRp3452
(dp3453
g74
(dp3454
sg76
(lp3455
g69
(g78
g71
NtRp3456
(dp3457
g74
(dp3458
g82
I5
ssg83
Nsg76
(lp3459
g69
(g85
g71
NtRp3460
(dp3461
g74
(dp3462
sg83
g3456
sg76
(lp3463
g69
(g90
g71
NtRp3464
(dp3465
g74
(dp3466
g94
g95
ssg83
g3460
sg76
(lp3467
S'auth'
p3468
asbag69
(g90
g71
NtRp3469
(dp3470
g74
(dp3471
g101
g102
ssg83
g3460
sg76
(lp3472
S':'
asbag69
(g90
g71
NtRp3473
(dp3474
g74
(dp3475
sg83
g3460
sg76
(lp3476
g69
(g70
g71
NtRp3477
(dp3478
g74
(dp3479
g82
I5
ssg83
g3473
sg76
(lp3480
g69
(g78
g71
NtRp3481
(dp3482
g74
(dp3483
g82
I4
ssg83
Nsg76
(lp3484
g69
(g85
g71
NtRp3485
(dp3486
g74
(dp3487
sg83
g3481
sg76
(lp3488
g69
(g90
g71
NtRp3489
(dp3490
g74
(dp3491
g94
g95
ssg83
g3485
sg76
(lp3492
S'expiration'
p3493
asbag69
(g90
g71
NtRp3494
(dp3495
g74
(dp3496
g101
g102
ssg83
g3485
sg76
(lp3497
S':'
asbag69
(g90
g71
NtRp3498
(dp3499
g74
(dp3500
sg83
g3485
sg76
(lp3501
g69
(g70
g71
NtRp3502
(dp3503
g74
(dp3504
g82
I4
ssg83
g3498
sg76
(lp3505
S'3600'
p3506
asbasbasbag69
(g85
g71
NtRp3507
(dp3508
g74
(dp3509
sg83
g3481
sg76
(lp3510
g69
(g90
g71
NtRp3511
(dp3512
g74
(dp3513
g94
g95
ssg83
g3507
sg76
(lp3514
S'hmac_key'
p3515
asbag69
(g90
g71
NtRp3516
(dp3517
g74
(dp3518
g101
g102
ssg83
g3507
sg76
(lp3519
S':'
asbag69
(g90
g71
NtRp3520
(dp3521
g74
(dp3522
sg83
g3507
sg76
(lp3523
g69
(g70
g71
NtRp3524
(dp3525
g74
(dp3526
g82
I4
ssg83
g3520
sg76
(lp3527
S'059204bb-eb58-4383-b415-61021c7d1468'
p3528
asbasbasbag69
(g85
g71
NtRp3529
(dp3530
g74
(dp3531
sg83
g3481
sg76
(lp3532
g69
(g90
g71
NtRp3533
(dp3534
g74
(dp3535
g94
g95
ssg83
g3529
sg76
(lp3536
S'last_visit'
p3537
asbag69
(g90
g71
NtRp3538
(dp3539
g74
(dp3540
g101
g102
ssg83
g3529
sg76
(lp3541
S':'
asbag69
(g90
g71
NtRp3542
(dp3543
g74
(dp3544
sg83
g3529
sg76
(lp3545
g69
(g70
g71
NtRp3546
(dp3547
g74
(dp3548
g82
I4
ssg83
g3542
sg76
(lp3549
S'datetime.datetime(2013, 2, 7, 12, 8, 46, 794203)'
p3550
asbasbasbag69
(g85
g71
NtRp3551
(dp3552
g74
(dp3553
sg83
g3481
sg76
(lp3554
g69
(g90
g71
NtRp3555
(dp3556
g74
(dp3557
g94
g95
ssg83
g3551
sg76
(lp3558
S'remember'
p3559
asbag69
(g90
g71
NtRp3560
(dp3561
g74
(dp3562
g101
g102
ssg83
g3551
sg76
(lp3563
S':'
asbag69
(g90
g71
NtRp3564
(dp3565
g74
(dp3566
sg83
g3551
sg76
(lp3567
g69
(g70
g71
NtRp3568
(dp3569
g74
(dp3570
g82
I4
ssg83
g3564
sg76
(lp3571
g112
asbasbasbag69
(g85
g71
NtRp3572
(dp3573
g74
(dp3574
sg83
g3481
sg76
(lp3575
g69
(g90
g71
NtRp3576
(dp3577
g74
(dp3578
g94
g95
ssg83
g3572
sg76
(lp3579
S'user'
p3580
asbag69
(g90
g71
NtRp3581
(dp3582
g74
(dp3583
g101
g102
ssg83
g3572
sg76
(lp3584
S':'
asbag69
(g90
g71
NtRp3585
(dp3586
g74
(dp3587
sg83
g3572
sg76
(lp3588
g69
(g70
g71
NtRp3589
(dp3590
g74
(dp3591
g82
I4
ssg83
g3585
sg76
(lp3592
g69
(g78
g71
NtRp3593
(dp3594
g74
(dp3595
g82
I3
ssg83
Nsg76
(lp3596
g69
(g85
g71
NtRp3597
(dp3598
g74
(dp3599
sg83
g3593
sg76
(lp3600
g69
(g90
g71
NtRp3601
(dp3602
g74
(dp3603
g94
g95
ssg83
g3597
sg76
(lp3604
S'created_on'
p3605
asbag69
(g90
g71
NtRp3606
(dp3607
g74
(dp3608
g101
g102
ssg83
g3597
sg76
(lp3609
S':'
asbag69
(g90
g71
NtRp3610
(dp3611
g74
(dp3612
sg83
g3597
sg76
(lp3613
g69
(g70
g71
NtRp3614
(dp3615
g74
(dp3616
g82
I3
ssg83
g3610
sg76
(lp3617
S'datetime.datetime(2011, 12, 7, 8, 57, 36)'
p3618
asbasbasbag69
(g85
g71
NtRp3619
(dp3620
g74
(dp3621
sg83
g3593
sg76
(lp3622
g69
(g90
g71
NtRp3623
(dp3624
g74
(dp3625
g94
g95
ssg83
g3619
sg76
(lp3626
S'email'
p3627
asbag69
(g90
g71
NtRp3628
(dp3629
g74
(dp3630
g101
g102
ssg83
g3619
sg76
(lp3631
S':'
asbag69
(g90
g71
NtRp3632
(dp3633
g74
(dp3634
sg83
g3619
sg76
(lp3635
g69
(g70
g71
NtRp3636
(dp3637
g74
(dp3638
g82
I3
ssg83
g3632
sg76
(lp3639
S'wasuaje@yahoo.com'
p3640
asbasbasbag69
(g85
g71
NtRp3641
(dp3642
g74
(dp3643
sg83
g3593
sg76
(lp3644
g69
(g90
g71
NtRp3645
(dp3646
g74
(dp3647
g94
g95
ssg83
g3641
sg76
(lp3648
S'first_name'
p3649
asbag69
(g90
g71
NtRp3650
(dp3651
g74
(dp3652
g101
g102
ssg83
g3641
sg76
(lp3653
S':'
asbag69
(g90
g71
NtRp3654
(dp3655
g74
(dp3656
sg83
g3641
sg76
(lp3657
g69
(g70
g71
NtRp3658
(dp3659
g74
(dp3660
g82
I3
ssg83
g3654
sg76
(lp3661
S'Alexis'
p3662
asbasbasbag69
(g85
g71
NtRp3663
(dp3664
g74
(dp3665
sg83
g3593
sg76
(lp3666
g69
(g90
g71
NtRp3667
(dp3668
g74
(dp3669
g94
g95
ssg83
g3663
sg76
(lp3670
S'id'
p3671
asbag69
(g90
g71
NtRp3672
(dp3673
g74
(dp3674
g101
g102
ssg83
g3663
sg76
(lp3675
S':'
asbag69
(g90
g71
NtRp3676
(dp3677
g74
(dp3678
sg83
g3663
sg76
(lp3679
g69
(g70
g71
NtRp3680
(dp3681
g74
(dp3682
g82
I3
ssg83
g3676
sg76
(lp3683
S'2'
asbasbasbag69
(g85
g71
NtRp3684
(dp3685
g74
(dp3686
sg83
g3593
sg76
(lp3687
g69
(g90
g71
NtRp3688
(dp3689
g74
(dp3690
g94
g95
ssg83
g3684
sg76
(lp3691
S'last_name'
p3692
asbag69
(g90
g71
NtRp3693
(dp3694
g74
(dp3695
g101
g102
ssg83
g3684
sg76
(lp3696
S':'
asbag69
(g90
g71
NtRp3697
(dp3698
g74
(dp3699
sg83
g3684
sg76
(lp3700
g69
(g70
g71
NtRp3701
(dp3702
g74
(dp3703
g82
I3
ssg83
g3697
sg76
(lp3704
S'Asuaje'
p3705
asbasbasbag69
(g85
g71
NtRp3706
(dp3707
g74
(dp3708
sg83
g3593
sg76
(lp3709
g69
(g90
g71
NtRp3710
(dp3711
g74
(dp3712
g94
g95
ssg83
g3706
sg76
(lp3713
S'modified_on'
p3714
asbag69
(g90
g71
NtRp3715
(dp3716
g74
(dp3717
g101
g102
ssg83
g3706
sg76
(lp3718
S':'
asbag69
(g90
g71
NtRp3719
(dp3720
g74
(dp3721
sg83
g3706
sg76
(lp3722
g69
(g70
g71
NtRp3723
(dp3724
g74
(dp3725
g82
I3
ssg83
g3719
sg76
(lp3726
S'datetime.datetime(2011, 12, 7, 8, 57, 54)'
p3727
asbasbasbag69
(g85
g71
NtRp3728
(dp3729
g74
(dp3730
sg83
g3593
sg76
(lp3731
g69
(g90
g71
NtRp3732
(dp3733
g74
(dp3734
g94
g95
ssg83
g3728
sg76
(lp3735
S'registration_id'
p3736
asbag69
(g90
g71
NtRp3737
(dp3738
g74
(dp3739
g101
g102
ssg83
g3728
sg76
(lp3740
S':'
asbag69
(g90
g71
NtRp3741
(dp3742
g74
(dp3743
sg83
g3728
sg76
(lp3744
g69
(g70
g71
NtRp3745
(dp3746
g74
(dp3747
g82
I3
ssg83
g3741
sg76
(lp3748
S''
asbasbasbag69
(g85
g71
NtRp3749
(dp3750
g74
(dp3751
sg83
g3593
sg76
(lp3752
g69
(g90
g71
NtRp3753
(dp3754
g74
(dp3755
g94
g95
ssg83
g3749
sg76
(lp3756
S'registration_key'
p3757
asbag69
(g90
g71
NtRp3758
(dp3759
g74
(dp3760
g101
g102
ssg83
g3749
sg76
(lp3761
S':'
asbag69
(g90
g71
NtRp3762
(dp3763
g74
(dp3764
sg83
g3749
sg76
(lp3765
g69
(g70
g71
NtRp3766
(dp3767
g74
(dp3768
g82
I3
ssg83
g3762
sg76
(lp3769
S''
asbasbasbag69
(g85
g71
NtRp3770
(dp3771
g74
(dp3772
sg83
g3593
sg76
(lp3773
g69
(g90
g71
NtRp3774
(dp3775
g74
(dp3776
g94
g95
ssg83
g3770
sg76
(lp3777
S'reset_password_key'
p3778
asbag69
(g90
g71
NtRp3779
(dp3780
g74
(dp3781
g101
g102
ssg83
g3770
sg76
(lp3782
S':'
asbag69
(g90
g71
NtRp3783
(dp3784
g74
(dp3785
sg83
g3770
sg76
(lp3786
g69
(g70
g71
NtRp3787
(dp3788
g74
(dp3789
g82
I3
ssg83
g3783
sg76
(lp3790
S''
asbasbasbag69
(g85
g71
NtRp3791
(dp3792
g74
(dp3793
sg83
g3593
sg76
(lp3794
g69
(g90
g71
NtRp3795
(dp3796
g74
(dp3797
g94
g95
ssg83
g3791
sg76
(lp3798
S'username'
p3799
asbag69
(g90
g71
NtRp3800
(dp3801
g74
(dp3802
g101
g102
ssg83
g3791
sg76
(lp3803
S':'
asbag69
(g90
g71
NtRp3804
(dp3805
g74
(dp3806
sg83
g3791
sg76
(lp3807
g69
(g70
g71
NtRp3808
(dp3809
g74
(dp3810
g82
I3
ssg83
g3804
sg76
(lp3811
S'alexis'
p3812
asbasbasbasbasbasbasbag69
(g85
g71
NtRp3813
(dp3814
g74
(dp3815
sg83
g3481
sg76
(lp3816
g69
(g90
g71
NtRp3817
(dp3818
g74
(dp3819
g94
g95
ssg83
g3813
sg76
(lp3820
S'user_groups'
p3821
asbag69
(g90
g71
NtRp3822
(dp3823
g74
(dp3824
g101
g102
ssg83
g3813
sg76
(lp3825
S':'
asbag69
(g90
g71
NtRp3826
(dp3827
g74
(dp3828
sg83
g3813
sg76
(lp3829
g69
(g70
g71
NtRp3830
(dp3831
g74
(dp3832
g82
I4
ssg83
g3826
sg76
(lp3833
g69
(g78
g71
NtRp3834
(dp3835
g74
(dp3836
g82
I3
ssg83
Nsg76
(lp3837
g69
(g85
g71
NtRp3838
(dp3839
g74
(dp3840
sg83
g3834
sg76
(lp3841
g69
(g90
g71
NtRp3842
(dp3843
g74
(dp3844
g94
g95
ssg83
g3838
sg76
(lp3845
S'2'
asbag69
(g90
g71
NtRp3846
(dp3847
g74
(dp3848
g101
g102
ssg83
g3838
sg76
(lp3849
S':'
asbag69
(g90
g71
NtRp3850
(dp3851
g74
(dp3852
sg83
g3838
sg76
(lp3853
g69
(g70
g71
NtRp3854
(dp3855
g74
(dp3856
g82
I3
ssg83
g3850
sg76
(lp3857
S'Operator'
p3858
asbasbasbasbasbasbasbasbasbasbasbag69
(g85
g71
NtRp3859
(dp3860
g74
(dp3861
sg83
g3456
sg76
(lp3862
g69
(g90
g71
NtRp3863
(dp3864
g74
(dp3865
g94
g95
ssg83
g3859
sg76
(lp3866
S'flash'
p3867
asbag69
(g90
g71
NtRp3868
(dp3869
g74
(dp3870
g101
g102
ssg83
g3859
sg76
(lp3871
S':'
asbag69
(g90
g71
NtRp3872
(dp3873
g74
(dp3874
sg83
g3859
sg76
(lp3875
g69
(g70
g71
NtRp3876
(dp3877
g74
(dp3878
g82
I5
ssg83
g3872
sg76
(lp3879
S'None'
p3880
asbasbasbasbasbsS'etype'
p3881
S"<type 'exceptions.SyntaxError'>"
p3882
sS'date'
p3883
S'Thu Feb  7 12:08:46 2013'
p3884
sS'response'
p3885
g69
(g70
g71
NtRp3886
(dp3887
g74
(dp3888
sg76
(lp3889
g69
(g78
g71
NtRp3890
(dp3891
g74
(dp3892
g82
I5
ssg83
Nsg76
(lp3893
g69
(g85
g71
NtRp3894
(dp3895
g74
(dp3896
sg83
g3890
sg76
(lp3897
g69
(g90
g71
NtRp3898
(dp3899
g74
(dp3900
g94
g95
ssg83
g3894
sg76
(lp3901
g167
asbag69
(g90
g71
NtRp3902
(dp3903
g74
(dp3904
g101
g102
ssg83
g3894
sg76
(lp3905
S':'
asbag69
(g90
g71
NtRp3906
(dp3907
g74
(dp3908
sg83
g3894
sg76
(lp3909
g69
(g70
g71
NtRp3910
(dp3911
g74
(dp3912
g82
I5
ssg83
g3906
sg76
(lp3913
S'<cStringIO.StringO object at 0xada6e940>'
p3914
asbasbasbag69
(g85
g71
NtRp3915
(dp3916
g74
(dp3917
sg83
g3890
sg76
(lp3918
g69
(g90
g71
NtRp3919
(dp3920
g74
(dp3921
g94
g95
ssg83
g3915
sg76
(lp3922
g255
asbag69
(g90
g71
NtRp3923
(dp3924
g74
(dp3925
g101
g102
ssg83
g3915
sg76
(lp3926
S':'
asbag69
(g90
g71
NtRp3927
(dp3928
g74
(dp3929
sg83
g3915
sg76
(lp3930
g69
(g70
g71
NtRp3931
(dp3932
g74
(dp3933
g82
I5
ssg83
g3927
sg76
(lp3934
g69
(g78
g71
NtRp3935
(dp3936
g74
(dp3937
g82
I4
ssg83
Nsg76
(lp3938
g69
(g85
g71
NtRp3939
(dp3940
g74
(dp3941
sg83
g3935
sg76
(lp3942
g69
(g90
g71
NtRp3943
(dp3944
g74
(dp3945
g94
g95
ssg83
g3939
sg76
(lp3946
S'session_id_flota'
p3947
asbag69
(g90
g71
NtRp3948
(dp3949
g74
(dp3950
g101
g102
ssg83
g3939
sg76
(lp3951
S':'
asbag69
(g90
g71
NtRp3952
(dp3953
g74
(dp3954
sg83
g3939
sg76
(lp3955
g69
(g70
g71
NtRp3956
(dp3957
g74
(dp3958
g82
I4
ssg83
g3952
sg76
(lp3959
g487
ag69
(g78
g71
NtRp3960
(dp3961
g74
(dp3962
g82
I3
ssg83
Nsg76
(lp3963
g69
(g85
g71
NtRp3964
(dp3965
g74
(dp3966
sg83
g3960
sg76
(lp3967
g69
(g90
g71
NtRp3968
(dp3969
g74
(dp3970
g94
g95
ssg83
g3964
sg76
(lp3971
g306
asbag69
(g90
g71
NtRp3972
(dp3973
g74
(dp3974
g101
g102
ssg83
g3964
sg76
(lp3975
S':'
asbag69
(g90
g71
NtRp3976
(dp3977
g74
(dp3978
sg83
g3964
sg76
(lp3979
g69
(g70
g71
NtRp3980
(dp3981
g74
(dp3982
g82
I3
ssg83
g3976
sg76
(lp3983
S''
asbasbasbag69
(g85
g71
NtRp3984
(dp3985
g74
(dp3986
sg83
g3960
sg76
(lp3987
g69
(g90
g71
NtRp3988
(dp3989
g74
(dp3990
g94
g95
ssg83
g3984
sg76
(lp3991
g327
asbag69
(g90
g71
NtRp3992
(dp3993
g74
(dp3994
g101
g102
ssg83
g3984
sg76
(lp3995
S':'
asbag69
(g90
g71
NtRp3996
(dp3997
g74
(dp3998
sg83
g3984
sg76
(lp3999
g69
(g70
g71
NtRp4000
(dp4001
g74
(dp4002
g82
I3
ssg83
g3996
sg76
(lp4003
S''
asbasbasbag69
(g85
g71
NtRp4004
(dp4005
g74
(dp4006
sg83
g3960
sg76
(lp4007
g69
(g90
g71
NtRp4008
(dp4009
g74
(dp4010
g94
g95
ssg83
g4004
sg76
(lp4011
g348
asbag69
(g90
g71
NtRp4012
(dp4013
g74
(dp4014
g101
g102
ssg83
g4004
sg76
(lp4015
S':'
asbag69
(g90
g71
NtRp4016
(dp4017
g74
(dp4018
sg83
g4004
sg76
(lp4019
g69
(g70
g71
NtRp4020
(dp4021
g74
(dp4022
g82
I3
ssg83
g4016
sg76
(lp4023
S''
asbasbasbag69
(g85
g71
NtRp4024
(dp4025
g74
(dp4026
sg83
g3960
sg76
(lp4027
g69
(g90
g71
NtRp4028
(dp4029
g74
(dp4030
g94
g95
ssg83
g4024
sg76
(lp4031
g369
asbag69
(g90
g71
NtRp4032
(dp4033
g74
(dp4034
g101
g102
ssg83
g4024
sg76
(lp4035
S':'
asbag69
(g90
g71
NtRp4036
(dp4037
g74
(dp4038
sg83
g4024
sg76
(lp4039
g69
(g70
g71
NtRp4040
(dp4041
g74
(dp4042
g82
I3
ssg83
g4036
sg76
(lp4043
S''
asbasbasbag69
(g85
g71
NtRp4044
(dp4045
g74
(dp4046
sg83
g3960
sg76
(lp4047
g69
(g90
g71
NtRp4048
(dp4049
g74
(dp4050
g94
g95
ssg83
g4044
sg76
(lp4051
g390
asbag69
(g90
g71
NtRp4052
(dp4053
g74
(dp4054
g101
g102
ssg83
g4044
sg76
(lp4055
S':'
asbag69
(g90
g71
NtRp4056
(dp4057
g74
(dp4058
sg83
g4044
sg76
(lp4059
g69
(g70
g71
NtRp4060
(dp4061
g74
(dp4062
g82
I3
ssg83
g4056
sg76
(lp4063
S''
asbasbasbag69
(g85
g71
NtRp4064
(dp4065
g74
(dp4066
sg83
g3960
sg76
(lp4067
g69
(g90
g71
NtRp4068
(dp4069
g74
(dp4070
g94
g95
ssg83
g4064
sg76
(lp4071
g411
asbag69
(g90
g71
NtRp4072
(dp4073
g74
(dp4074
g101
g102
ssg83
g4064
sg76
(lp4075
S':'
asbag69
(g90
g71
NtRp4076
(dp4077
g74
(dp4078
sg83
g4064
sg76
(lp4079
g69
(g70
g71
NtRp4080
(dp4081
g74
(dp4082
g82
I3
ssg83
g4076
sg76
(lp4083
S'/'
asbasbasbag69
(g85
g71
NtRp4084
(dp4085
g74
(dp4086
sg83
g3960
sg76
(lp4087
g69
(g90
g71
NtRp4088
(dp4089
g74
(dp4090
g94
g95
ssg83
g4084
sg76
(lp4091
g432
asbag69
(g90
g71
NtRp4092
(dp4093
g74
(dp4094
g101
g102
ssg83
g4084
sg76
(lp4095
S':'
asbag69
(g90
g71
NtRp4096
(dp4097
g74
(dp4098
sg83
g4084
sg76
(lp4099
g69
(g70
g71
NtRp4100
(dp4101
g74
(dp4102
g82
I3
ssg83
g4096
sg76
(lp4103
S''
asbasbasbag69
(g85
g71
NtRp4104
(dp4105
g74
(dp4106
sg83
g3960
sg76
(lp4107
g69
(g90
g71
NtRp4108
(dp4109
g74
(dp4110
g94
g95
ssg83
g4104
sg76
(lp4111
g453
asbag69
(g90
g71
NtRp4112
(dp4113
g74
(dp4114
g101
g102
ssg83
g4104
sg76
(lp4115
S':'
asbag69
(g90
g71
NtRp4116
(dp4117
g74
(dp4118
sg83
g4104
sg76
(lp4119
g69
(g70
g71
NtRp4120
(dp4121
g74
(dp4122
g82
I3
ssg83
g4116
sg76
(lp4123
S''
asbasbasbasbasbasbasbasbasbasbasbag69
(g85
g71
NtRp4124
(dp4125
g74
(dp4126
sg83
g3890
sg76
(lp4127
g69
(g90
g71
NtRp4128
(dp4129
g74
(dp4130
g94
g95
ssg83
g4124
sg76
(lp4131
S'delimiters'
p4132
asbag69
(g90
g71
NtRp4133
(dp4134
g74
(dp4135
g101
g102
ssg83
g4124
sg76
(lp4136
S':'
asbag69
(g90
g71
NtRp4137
(dp4138
g74
(dp4139
sg83
g4124
sg76
(lp4140
g69
(g70
g71
NtRp4141
(dp4142
g74
(dp4143
g82
I5
ssg83
g4137
sg76
(lp4144
g69
(g78
g71
NtRp4145
(dp4146
g74
(dp4147
g82
I4
ssg83
Nsg76
(lp4148
g69
(g85
g71
NtRp4149
(dp4150
g74
(dp4151
sg83
g4145
sg76
(lp4152
g69
(g90
g71
NtRp4153
(dp4154
g74
(dp4155
sg83
g4149
sg76
(lp4156
g69
(g70
g71
NtRp4157
(dp4158
g74
(dp4159
g82
I4
ssg83
g4153
sg76
(lp4160
S'{{'
p4161
asbasbasbag69
(g85
g71
NtRp4162
(dp4163
g74
(dp4164
sg83
g4145
sg76
(lp4165
g69
(g90
g71
NtRp4166
(dp4167
g74
(dp4168
sg83
g4162
sg76
(lp4169
g69
(g70
g71
NtRp4170
(dp4171
g74
(dp4172
g82
I4
ssg83
g4166
sg76
(lp4173
S'}}'
p4174
asbasbasbasbasbasbasbag69
(g85
g71
NtRp4175
(dp4176
g74
(dp4177
sg83
g3890
sg76
(lp4178
g69
(g90
g71
NtRp4179
(dp4180
g74
(dp4181
g94
g95
ssg83
g4175
sg76
(lp4182
S'files'
p4183
asbag69
(g90
g71
NtRp4184
(dp4185
g74
(dp4186
g101
g102
ssg83
g4175
sg76
(lp4187
S':'
asbag69
(g90
g71
NtRp4188
(dp4189
g74
(dp4190
sg83
g4175
sg76
(lp4191
g69
(g70
g71
NtRp4192
(dp4193
g74
(dp4194
g82
I5
ssg83
g4188
sg76
(lp4195
g69
(g78
g71
NtRp4196
(dp4197
g74
(dp4198
g82
I4
ssg83
Nsg76
(lp4199
g69
(g85
g71
NtRp4200
(dp4201
g74
(dp4202
sg83
g4196
sg76
(lp4203
g69
(g90
g71
NtRp4204
(dp4205
g74
(dp4206
sg83
g4200
sg76
(lp4207
g69
(g70
g71
NtRp4208
(dp4209
g74
(dp4210
g82
I4
ssg83
g4204
sg76
(lp4211
S'/flota/static/jquery-autocomplete/jquery.autocomplete.js'
p4212
asbasbasbag69
(g85
g71
NtRp4213
(dp4214
g74
(dp4215
sg83
g4196
sg76
(lp4216
g69
(g90
g71
NtRp4217
(dp4218
g74
(dp4219
sg83
g4213
sg76
(lp4220
g69
(g70
g71
NtRp4221
(dp4222
g74
(dp4223
g82
I4
ssg83
g4217
sg76
(lp4224
S'/flota/static/jquery-autocomplete/jquery.autocomplete.css'
p4225
asbasbasbag69
(g85
g71
NtRp4226
(dp4227
g74
(dp4228
sg83
g4196
sg76
(lp4229
g69
(g90
g71
NtRp4230
(dp4231
g74
(dp4232
sg83
g4226
sg76
(lp4233
g69
(g70
g71
NtRp4234
(dp4235
g74
(dp4236
g82
I4
ssg83
g4230
sg76
(lp4237
S'/flota/static/plugin_datatable/jquery.dataTables.min.js'
p4238
asbasbasbag69
(g85
g71
NtRp4239
(dp4240
g74
(dp4241
sg83
g4196
sg76
(lp4242
g69
(g90
g71
NtRp4243
(dp4244
g74
(dp4245
sg83
g4239
sg76
(lp4246
g69
(g70
g71
NtRp4247
(dp4248
g74
(dp4249
g82
I4
ssg83
g4243
sg76
(lp4250
S'/flota/static/plugin_datatable/jquery.dataTables.css'
p4251
asbasbasbag69
(g85
g71
NtRp4252
(dp4253
g74
(dp4254
sg83
g4196
sg76
(lp4255
g69
(g90
g71
NtRp4256
(dp4257
g74
(dp4258
sg83
g4252
sg76
(lp4259
g69
(g70
g71
NtRp4260
(dp4261
g74
(dp4262
g82
I4
ssg83
g4256
sg76
(lp4263
S'/flota/static/plugin_jqgrid/ui.jqgrid.css'
p4264
asbasbasbag69
(g85
g71
NtRp4265
(dp4266
g74
(dp4267
sg83
g4196
sg76
(lp4268
g69
(g90
g71
NtRp4269
(dp4270
g74
(dp4271
sg83
g4265
sg76
(lp4272
g69
(g70
g71
NtRp4273
(dp4274
g74
(dp4275
g82
I4
ssg83
g4269
sg76
(lp4276
S'/flota/static/plugin_jqgrid/ui-darkness/jquery-ui-1.8.1.custom.css'
p4277
asbasbasbag69
(g85
g71
NtRp4278
(dp4279
g74
(dp4280
sg83
g4196
sg76
(lp4281
g69
(g90
g71
NtRp4282
(dp4283
g74
(dp4284
sg83
g4278
sg76
(lp4285
g69
(g70
g71
NtRp4286
(dp4287
g74
(dp4288
g82
I4
ssg83
g4282
sg76
(lp4289
S'/flota/static/plugin_jqgrid/jquery-ui-1.7.2.custom.min.js'
p4290
asbasbasbag69
(g85
g71
NtRp4291
(dp4292
g74
(dp4293
sg83
g4196
sg76
(lp4294
g69
(g90
g71
NtRp4295
(dp4296
g74
(dp4297
sg83
g4291
sg76
(lp4298
g69
(g70
g71
NtRp4299
(dp4300
g74
(dp4301
g82
I4
ssg83
g4295
sg76
(lp4302
S'/flota/static/plugin_jqgrid/i18n/grid.locale-en.js'
p4303
asbasbasbag69
(g85
g71
NtRp4304
(dp4305
g74
(dp4306
sg83
g4196
sg76
(lp4307
g69
(g90
g71
NtRp4308
(dp4309
g74
(dp4310
sg83
g4304
sg76
(lp4311
g69
(g70
g71
NtRp4312
(dp4313
g74
(dp4314
g82
I4
ssg83
g4308
sg76
(lp4315
S'/flota/static/plugin_jqgrid/jquery.jqGrid.min.js'
p4316
asbasbasbag69
(g85
g71
NtRp4317
(dp4318
g74
(dp4319
sg83
g4196
sg76
(lp4320
g69
(g90
g71
NtRp4321
(dp4322
g74
(dp4323
sg83
g4317
sg76
(lp4324
g69
(g70
g71
NtRp4325
(dp4326
g74
(dp4327
g82
I4
ssg83
g4321
sg76
(lp4328
S'/flota/static/plugin_jqgrid/ui.jqgrid.css'
p4329
asbasbasbag69
(g85
g71
NtRp4330
(dp4331
g74
(dp4332
sg83
g4196
sg76
(lp4333
g69
(g90
g71
NtRp4334
(dp4335
g74
(dp4336
sg83
g4330
sg76
(lp4337
g69
(g70
g71
NtRp4338
(dp4339
g74
(dp4340
g82
I4
ssg83
g4334
sg76
(lp4341
S'/flota/static/plugin_jqgrid/ui-darkness/jquery-ui-1.8.1.custom.css'
p4342
asbasbasbag69
(g85
g71
NtRp4343
(dp4344
g74
(dp4345
sg83
g4196
sg76
(lp4346
g69
(g90
g71
NtRp4347
(dp4348
g74
(dp4349
sg83
g4343
sg76
(lp4350
g69
(g70
g71
NtRp4351
(dp4352
g74
(dp4353
g82
I4
ssg83
g4347
sg76
(lp4354
S'/flota/static/plugin_jqgrid/jquery-ui-1.7.2.custom.min.js'
p4355
asbasbasbag69
(g85
g71
NtRp4356
(dp4357
g74
(dp4358
sg83
g4196
sg76
(lp4359
g69
(g90
g71
NtRp4360
(dp4361
g74
(dp4362
sg83
g4356
sg76
(lp4363
g69
(g70
g71
NtRp4364
(dp4365
g74
(dp4366
g82
I4
ssg83
g4360
sg76
(lp4367
S'/flota/static/plugin_jqgrid/i18n/grid.locale-en.js'
p4368
asbasbasbag69
(g85
g71
NtRp4369
(dp4370
g74
(dp4371
sg83
g4196
sg76
(lp4372
g69
(g90
g71
NtRp4373
(dp4374
g74
(dp4375
sg83
g4369
sg76
(lp4376
g69
(g70
g71
NtRp4377
(dp4378
g74
(dp4379
g82
I4
ssg83
g4373
sg76
(lp4380
S'/flota/static/plugin_jqgrid/jquery.jqGrid.min.js'
p4381
asbasbasbasbasbasbasbag69
(g85
g71
NtRp4382
(dp4383
g74
(dp4384
sg83
g3890
sg76
(lp4385
g69
(g90
g71
NtRp4386
(dp4387
g74
(dp4388
g94
g95
ssg83
g4382
sg76
(lp4389
S'flash'
p4390
asbag69
(g90
g71
NtRp4391
(dp4392
g74
(dp4393
g101
g102
ssg83
g4382
sg76
(lp4394
S':'
asbag69
(g90
g71
NtRp4395
(dp4396
g74
(dp4397
sg83
g4382
sg76
(lp4398
g69
(g70
g71
NtRp4399
(dp4400
g74
(dp4401
g82
I5
ssg83
g4395
sg76
(lp4402
S''
asbasbasbag69
(g85
g71
NtRp4403
(dp4404
g74
(dp4405
sg83
g3890
sg76
(lp4406
g69
(g90
g71
NtRp4407
(dp4408
g74
(dp4409
g94
g95
ssg83
g4403
sg76
(lp4410
S'generic_patterns'
p4411
asbag69
(g90
g71
NtRp4412
(dp4413
g74
(dp4414
g101
g102
ssg83
g4403
sg76
(lp4415
S':'
asbag69
(g90
g71
NtRp4416
(dp4417
g74
(dp4418
sg83
g4403
sg76
(lp4419
g69
(g70
g71
NtRp4420
(dp4421
g74
(dp4422
g82
I5
ssg83
g4416
sg76
(lp4423
g69
(g78
g71
NtRp4424
(dp4425
g74
(dp4426
g82
I4
ssg83
Nsg76
(lp4427
g69
(g85
g71
NtRp4428
(dp4429
g74
(dp4430
sg83
g4424
sg76
(lp4431
g69
(g90
g71
NtRp4432
(dp4433
g74
(dp4434
sg83
g4428
sg76
(lp4435
g69
(g70
g71
NtRp4436
(dp4437
g74
(dp4438
g82
I4
ssg83
g4432
sg76
(lp4439
S'*'
asbasbasbasbasbasbasbag69
(g85
g71
NtRp4440
(dp4441
g74
(dp4442
sg83
g3890
sg76
(lp4443
g69
(g90
g71
NtRp4444
(dp4445
g74
(dp4446
g94
g95
ssg83
g4440
sg76
(lp4447
S'headers'
p4448
asbag69
(g90
g71
NtRp4449
(dp4450
g74
(dp4451
g101
g102
ssg83
g4440
sg76
(lp4452
S':'
asbag69
(g90
g71
NtRp4453
(dp4454
g74
(dp4455
sg83
g4440
sg76
(lp4456
g69
(g70
g71
NtRp4457
(dp4458
g74
(dp4459
g82
I5
ssg83
g4453
sg76
(lp4460
g69
(g78
g71
NtRp4461
(dp4462
g74
(dp4463
g82
I4
ssg83
Nsg76
(lp4464
g69
(g85
g71
NtRp4465
(dp4466
g74
(dp4467
sg83
g4461
sg76
(lp4468
g69
(g90
g71
NtRp4469
(dp4470
g74
(dp4471
g94
g95
ssg83
g4465
sg76
(lp4472
S'X-Powered-By'
p4473
asbag69
(g90
g71
NtRp4474
(dp4475
g74
(dp4476
g101
g102
ssg83
g4465
sg76
(lp4477
S':'
asbag69
(g90
g71
NtRp4478
(dp4479
g74
(dp4480
sg83
g4465
sg76
(lp4481
g69
(g70
g71
NtRp4482
(dp4483
g74
(dp4484
g82
I4
ssg83
g4478
sg76
(lp4485
S'web2py'
p4486
asbasbasbasbasbasbasbag69
(g85
g71
NtRp4487
(dp4488
g74
(dp4489
sg83
g3890
sg76
(lp4490
g69
(g90
g71
NtRp4491
(dp4492
g74
(dp4493
g94
g95
ssg83
g4487
sg76
(lp4494
S'menu'
p4495
asbag69
(g90
g71
NtRp4496
(dp4497
g74
(dp4498
g101
g102
ssg83
g4487
sg76
(lp4499
S':'
asbag69
(g90
g71
NtRp4500
(dp4501
g74
(dp4502
sg83
g4487
sg76
(lp4503
g69
(g70
g71
NtRp4504
(dp4505
g74
(dp4506
g82
I5
ssg83
g4500
sg76
(lp4507
g69
(g78
g71
NtRp4508
(dp4509
g74
(dp4510
g82
I4
ssg83
Nsg76
(lp4511
g69
(g85
g71
NtRp4512
(dp4513
g74
(dp4514
sg83
g4508
sg76
(lp4515
g69
(g90
g71
NtRp4516
(dp4517
g74
(dp4518
sg83
g4512
sg76
(lp4519
g69
(g70
g71
NtRp4520
(dp4521
g74
(dp4522
g82
I4
ssg83
g4516
sg76
(lp4523
g69
(g78
g71
NtRp4524
(dp4525
g74
(dp4526
g82
I3
ssg83
Nsg76
(lp4527
g69
(g85
g71
NtRp4528
(dp4529
g74
(dp4530
sg83
g4524
sg76
(lp4531
g69
(g90
g71
NtRp4532
(dp4533
g74
(dp4534
sg83
g4528
sg76
(lp4535
g69
(g70
g71
NtRp4536
(dp4537
g74
(dp4538
g82
I3
ssg83
g4532
sg76
(lp4539
cgluon.languages
lazyT_unpickle
p4540
(S's\x06\x00\x00\x00Inicio'
tRp4541
asbasbasbag69
(g85
g71
NtRp4542
(dp4543
g74
(dp4544
sg83
g4524
sg76
(lp4545
g69
(g90
g71
NtRp4546
(dp4547
g74
(dp4548
sg83
g4542
sg76
(lp4549
g69
(g70
g71
NtRp4550
(dp4551
g74
(dp4552
g82
I3
ssg83
g4546
sg76
(lp4553
g112
asbasbasbag69
(g85
g71
NtRp4554
(dp4555
g74
(dp4556
sg83
g4524
sg76
(lp4557
g69
(g90
g71
NtRp4558
(dp4559
g74
(dp4560
sg83
g4554
sg76
(lp4561
g69
(g70
g71
NtRp4562
(dp4563
g74
(dp4564
g82
I3
ssg83
g4558
sg76
(lp4565
S'/flota/default/index'
p4566
asbasbasbag69
(g85
g71
NtRp4567
(dp4568
g74
(dp4569
sg83
g4524
sg76
(lp4570
g69
(g90
g71
NtRp4571
(dp4572
g74
(dp4573
sg83
g4567
sg76
(lp4574
g69
(g70
g71
NtRp4575
(dp4576
g74
(dp4577
g82
I3
ssg83
g4571
sg76
(lp4578
g69
(g78
g71
NtRp4579
(dp4580
g74
(dp4581
g82
I2
ssg83
Nsg76
(lp4582
sbasbasbasbasbasbasbasbag69
(g85
g71
NtRp4583
(dp4584
g74
(dp4585
sg83
g4508
sg76
(lp4586
g69
(g90
g71
NtRp4587
(dp4588
g74
(dp4589
sg83
g4583
sg76
(lp4590
g69
(g70
g71
NtRp4591
(dp4592
g74
(dp4593
g82
I4
ssg83
g4587
sg76
(lp4594
g69
(g78
g71
NtRp4595
(dp4596
g74
(dp4597
g82
I3
ssg83
Nsg76
(lp4598
g69
(g85
g71
NtRp4599
(dp4600
g74
(dp4601
sg83
g4595
sg76
(lp4602
g69
(g90
g71
NtRp4603
(dp4604
g74
(dp4605
sg83
g4599
sg76
(lp4606
g69
(g70
g71
NtRp4607
(dp4608
g74
(dp4609
g82
I3
ssg83
g4603
sg76
(lp4610
g4540
(S's\r\x00\x00\x00Configuracion'
tRp4611
asbasbasbag69
(g85
g71
NtRp4612
(dp4613
g74
(dp4614
sg83
g4595
sg76
(lp4615
g69
(g90
g71
NtRp4616
(dp4617
g74
(dp4618
sg83
g4612
sg76
(lp4619
g69
(g70
g71
NtRp4620
(dp4621
g74
(dp4622
g82
I3
ssg83
g4616
sg76
(lp4623
g112
asbasbasbag69
(g85
g71
NtRp4624
(dp4625
g74
(dp4626
sg83
g4595
sg76
(lp4627
g69
(g90
g71
NtRp4628
(dp4629
g74
(dp4630
sg83
g4624
sg76
(lp4631
g69
(g70
g71
NtRp4632
(dp4633
g74
(dp4634
g82
I3
ssg83
g4628
sg76
(lp4635
S'/flota/default/index'
p4636
asbasbasbag69
(g85
g71
NtRp4637
(dp4638
g74
(dp4639
sg83
g4595
sg76
(lp4640
g69
(g90
g71
NtRp4641
(dp4642
g74
(dp4643
sg83
g4637
sg76
(lp4644
g69
(g70
g71
NtRp4645
(dp4646
g74
(dp4647
g82
I3
ssg83
g4641
sg76
(lp4648
g69
(g78
g71
NtRp4649
(dp4650
g74
(dp4651
g82
I2
ssg83
Nsg76
(lp4652
g69
(g85
g71
NtRp4653
(dp4654
g74
(dp4655
sg83
g4649
sg76
(lp4656
g69
(g90
g71
NtRp4657
(dp4658
g74
(dp4659
sg83
g4653
sg76
(lp4660
g69
(g70
g71
NtRp4661
(dp4662
g74
(dp4663
g82
I2
ssg83
g4657
sg76
(lp4664
g69
(g78
g71
NtRp4665
(dp4666
g74
(dp4667
g82
I1
ssg83
Nsg76
(lp4668
g69
(g85
g71
NtRp4669
(dp4670
g74
(dp4671
sg83
g4665
sg76
(lp4672
g69
(g90
g71
NtRp4673
(dp4674
g74
(dp4675
sg83
g4669
sg76
(lp4676
g69
(g70
g71
NtRp4677
(dp4678
g74
(dp4679
g82
I1
ssg83
g4673
sg76
(lp4680
g4540
(S's\x06\x00\x00\x00Tablas'
tRp4681
asbasbasbag69
(g85
g71
NtRp4682
(dp4683
g74
(dp4684
sg83
g4665
sg76
(lp4685
g69
(g90
g71
NtRp4686
(dp4687
g74
(dp4688
sg83
g4682
sg76
(lp4689
g69
(g70
g71
NtRp4690
(dp4691
g74
(dp4692
g82
I1
ssg83
g4686
sg76
(lp4693
I00
asbasbasbag69
(g85
g71
NtRp4694
(dp4695
g74
(dp4696
sg83
g4665
sg76
(lp4697
g69
(g90
g71
NtRp4698
(dp4699
g74
(dp4700
sg83
g4694
sg76
(lp4701
g69
(g70
g71
NtRp4702
(dp4703
g74
(dp4704
g82
I1
ssg83
g4698
sg76
(lp4705
S'/flota/tablas/index'
p4706
asbasbasbasbasbasbasbag69
(g85
g71
NtRp4707
(dp4708
g74
(dp4709
sg83
g4649
sg76
(lp4710
g69
(g90
g71
NtRp4711
(dp4712
g74
(dp4713
sg83
g4707
sg76
(lp4714
g69
(g70
g71
NtRp4715
(dp4716
g74
(dp4717
g82
I2
ssg83
g4711
sg76
(lp4718
g69
(g78
g71
NtRp4719
(dp4720
g74
(dp4721
g82
I1
ssg83
Nsg76
(lp4722
g69
(g85
g71
NtRp4723
(dp4724
g74
(dp4725
sg83
g4719
sg76
(lp4726
g69
(g90
g71
NtRp4727
(dp4728
g74
(dp4729
sg83
g4723
sg76
(lp4730
g69
(g70
g71
NtRp4731
(dp4732
g74
(dp4733
g82
I1
ssg83
g4727
sg76
(lp4734
g4540
(S's\x08\x00\x00\x00Maestros'
tRp4735
asbasbasbag69
(g85
g71
NtRp4736
(dp4737
g74
(dp4738
sg83
g4719
sg76
(lp4739
g69
(g90
g71
NtRp4740
(dp4741
g74
(dp4742
sg83
g4736
sg76
(lp4743
g69
(g70
g71
NtRp4744
(dp4745
g74
(dp4746
g82
I1
ssg83
g4740
sg76
(lp4747
I00
asbasbasbag69
(g85
g71
NtRp4748
(dp4749
g74
(dp4750
sg83
g4719
sg76
(lp4751
g69
(g90
g71
NtRp4752
(dp4753
g74
(dp4754
sg83
g4748
sg76
(lp4755
g69
(g70
g71
NtRp4756
(dp4757
g74
(dp4758
g82
I1
ssg83
g4752
sg76
(lp4759
S'/flota/maestros/index'
p4760
asbasbasbasbasbasbasbasbasbasbasbasbasbasbasbag69
(g85
g71
NtRp4761
(dp4762
g74
(dp4763
sg83
g4508
sg76
(lp4764
g69
(g90
g71
NtRp4765
(dp4766
g74
(dp4767
sg83
g4761
sg76
(lp4768
g69
(g70
g71
NtRp4769
(dp4770
g74
(dp4771
g82
I4
ssg83
g4765
sg76
(lp4772
g69
(g78
g71
NtRp4773
(dp4774
g74
(dp4775
g82
I3
ssg83
Nsg76
(lp4776
g69
(g85
g71
NtRp4777
(dp4778
g74
(dp4779
sg83
g4773
sg76
(lp4780
g69
(g90
g71
NtRp4781
(dp4782
g74
(dp4783
sg83
g4777
sg76
(lp4784
g69
(g70
g71
NtRp4785
(dp4786
g74
(dp4787
g82
I3
ssg83
g4781
sg76
(lp4788
g4540
(S's\x06\x00\x00\x00Gastos'
tRp4789
asbasbasbag69
(g85
g71
NtRp4790
(dp4791
g74
(dp4792
sg83
g4773
sg76
(lp4793
g69
(g90
g71
NtRp4794
(dp4795
g74
(dp4796
sg83
g4790
sg76
(lp4797
g69
(g70
g71
NtRp4798
(dp4799
g74
(dp4800
g82
I3
ssg83
g4794
sg76
(lp4801
g112
asbasbasbag69
(g85
g71
NtRp4802
(dp4803
g74
(dp4804
sg83
g4773
sg76
(lp4805
g69
(g90
g71
NtRp4806
(dp4807
g74
(dp4808
sg83
g4802
sg76
(lp4809
g69
(g70
g71
NtRp4810
(dp4811
g74
(dp4812
g82
I3
ssg83
g4806
sg76
(lp4813
S'/flota/default/index'
p4814
asbasbasbag69
(g85
g71
NtRp4815
(dp4816
g74
(dp4817
sg83
g4773
sg76
(lp4818
g69
(g90
g71
NtRp4819
(dp4820
g74
(dp4821
sg83
g4815
sg76
(lp4822
g69
(g70
g71
NtRp4823
(dp4824
g74
(dp4825
g82
I3
ssg83
g4819
sg76
(lp4826
g69
(g78
g71
NtRp4827
(dp4828
g74
(dp4829
g82
I2
ssg83
Nsg76
(lp4830
g69
(g85
g71
NtRp4831
(dp4832
g74
(dp4833
sg83
g4827
sg76
(lp4834
g69
(g90
g71
NtRp4835
(dp4836
g74
(dp4837
sg83
g4831
sg76
(lp4838
g69
(g70
g71
NtRp4839
(dp4840
g74
(dp4841
g82
I2
ssg83
g4835
sg76
(lp4842
g69
(g78
g71
NtRp4843
(dp4844
g74
(dp4845
g82
I1
ssg83
Nsg76
(lp4846
g69
(g85
g71
NtRp4847
(dp4848
g74
(dp4849
sg83
g4843
sg76
(lp4850
g69
(g90
g71
NtRp4851
(dp4852
g74
(dp4853
sg83
g4847
sg76
(lp4854
g69
(g70
g71
NtRp4855
(dp4856
g74
(dp4857
g82
I1
ssg83
g4851
sg76
(lp4858
g4540
(S's\x08\x00\x00\x00Choferes'
tRp4859
asbasbasbag69
(g85
g71
NtRp4860
(dp4861
g74
(dp4862
sg83
g4843
sg76
(lp4863
g69
(g90
g71
NtRp4864
(dp4865
g74
(dp4866
sg83
g4860
sg76
(lp4867
g69
(g70
g71
NtRp4868
(dp4869
g74
(dp4870
g82
I1
ssg83
g4864
sg76
(lp4871
I00
asbasbasbag69
(g85
g71
NtRp4872
(dp4873
g74
(dp4874
sg83
g4843
sg76
(lp4875
g69
(g90
g71
NtRp4876
(dp4877
g74
(dp4878
sg83
g4872
sg76
(lp4879
g69
(g70
g71
NtRp4880
(dp4881
g74
(dp4882
g82
I1
ssg83
g4876
sg76
(lp4883
S'/flota/chofer/index'
p4884
asbasbasbasbasbasbasbag69
(g85
g71
NtRp4885
(dp4886
g74
(dp4887
sg83
g4827
sg76
(lp4888
g69
(g90
g71
NtRp4889
(dp4890
g74
(dp4891
sg83
g4885
sg76
(lp4892
g69
(g70
g71
NtRp4893
(dp4894
g74
(dp4895
g82
I2
ssg83
g4889
sg76
(lp4896
g69
(g78
g71
NtRp4897
(dp4898
g74
(dp4899
g82
I1
ssg83
Nsg76
(lp4900
g69
(g85
g71
NtRp4901
(dp4902
g74
(dp4903
sg83
g4897
sg76
(lp4904
g69
(g90
g71
NtRp4905
(dp4906
g74
(dp4907
sg83
g4901
sg76
(lp4908
g69
(g70
g71
NtRp4909
(dp4910
g74
(dp4911
g82
I1
ssg83
g4905
sg76
(lp4912
g4540
(S's\t\x00\x00\x00Vehiculos'
tRp4913
asbasbasbag69
(g85
g71
NtRp4914
(dp4915
g74
(dp4916
sg83
g4897
sg76
(lp4917
g69
(g90
g71
NtRp4918
(dp4919
g74
(dp4920
sg83
g4914
sg76
(lp4921
g69
(g70
g71
NtRp4922
(dp4923
g74
(dp4924
g82
I1
ssg83
g4918
sg76
(lp4925
I00
asbasbasbag69
(g85
g71
NtRp4926
(dp4927
g74
(dp4928
sg83
g4897
sg76
(lp4929
g69
(g90
g71
NtRp4930
(dp4931
g74
(dp4932
sg83
g4926
sg76
(lp4933
g69
(g70
g71
NtRp4934
(dp4935
g74
(dp4936
g82
I1
ssg83
g4930
sg76
(lp4937
S'/flota/vehiculo/index'
p4938
asbasbasbasbasbasbasbag69
(g85
g71
NtRp4939
(dp4940
g74
(dp4941
sg83
g4827
sg76
(lp4942
g69
(g90
g71
NtRp4943
(dp4944
g74
(dp4945
sg83
g4939
sg76
(lp4946
g69
(g70
g71
NtRp4947
(dp4948
g74
(dp4949
g82
I2
ssg83
g4943
sg76
(lp4950
g69
(g78
g71
NtRp4951
(dp4952
g74
(dp4953
g82
I1
ssg83
Nsg76
(lp4954
g69
(g85
g71
NtRp4955
(dp4956
g74
(dp4957
sg83
g4951
sg76
(lp4958
g69
(g90
g71
NtRp4959
(dp4960
g74
(dp4961
sg83
g4955
sg76
(lp4962
g69
(g70
g71
NtRp4963
(dp4964
g74
(dp4965
g82
I1
ssg83
g4959
sg76
(lp4966
g4540
(S's\x13\x00\x00\x00Solicitud de Viajes'
tRp4967
asbasbasbag69
(g85
g71
NtRp4968
(dp4969
g74
(dp4970
sg83
g4951
sg76
(lp4971
g69
(g90
g71
NtRp4972
(dp4973
g74
(dp4974
sg83
g4968
sg76
(lp4975
g69
(g70
g71
NtRp4976
(dp4977
g74
(dp4978
g82
I1
ssg83
g4972
sg76
(lp4979
I00
asbasbasbag69
(g85
g71
NtRp4980
(dp4981
g74
(dp4982
sg83
g4951
sg76
(lp4983
g69
(g90
g71
NtRp4984
(dp4985
g74
(dp4986
sg83
g4980
sg76
(lp4987
g69
(g70
g71
NtRp4988
(dp4989
g74
(dp4990
g82
I1
ssg83
g4984
sg76
(lp4991
S'/flota/viaje/index'
p4992
asbasbasbasbasbasbasbag69
(g85
g71
NtRp4993
(dp4994
g74
(dp4995
sg83
g4827
sg76
(lp4996
g69
(g90
g71
NtRp4997
(dp4998
g74
(dp4999
sg83
g4993
sg76
(lp5000
g69
(g70
g71
NtRp5001
(dp5002
g74
(dp5003
g82
I2
ssg83
g4997
sg76
(lp5004
g69
(g78
g71
NtRp5005
(dp5006
g74
(dp5007
g82
I1
ssg83
Nsg76
(lp5008
g69
(g85
g71
NtRp5009
(dp5010
g74
(dp5011
sg83
g5005
sg76
(lp5012
g69
(g90
g71
NtRp5013
(dp5014
g74
(dp5015
sg83
g5009
sg76
(lp5016
g69
(g70
g71
NtRp5017
(dp5018
g74
(dp5019
g82
I1
ssg83
g5013
sg76
(lp5020
g4540
(S's\x14\x00\x00\x00Asignacion de Viajes'
tRp5021
asbasbasbag69
(g85
g71
NtRp5022
(dp5023
g74
(dp5024
sg83
g5005
sg76
(lp5025
g69
(g90
g71
NtRp5026
(dp5027
g74
(dp5028
sg83
g5022
sg76
(lp5029
g69
(g70
g71
NtRp5030
(dp5031
g74
(dp5032
g82
I1
ssg83
g5026
sg76
(lp5033
I00
asbasbasbag69
(g85
g71
NtRp5034
(dp5035
g74
(dp5036
sg83
g5005
sg76
(lp5037
g69
(g90
g71
NtRp5038
(dp5039
g74
(dp5040
sg83
g5034
sg76
(lp5041
g69
(g70
g71
NtRp5042
(dp5043
g74
(dp5044
g82
I1
ssg83
g5038
sg76
(lp5045
S'/flota/asignacion/index'
p5046
asbasbasbasbasbasbasbasbasbasbasbasbasbasbasbag69
(g85
g71
NtRp5047
(dp5048
g74
(dp5049
sg83
g4508
sg76
(lp5050
g69
(g90
g71
NtRp5051
(dp5052
g74
(dp5053
sg83
g5047
sg76
(lp5054
g69
(g70
g71
NtRp5055
(dp5056
g74
(dp5057
g82
I4
ssg83
g5051
sg76
(lp5058
g69
(g78
g71
NtRp5059
(dp5060
g74
(dp5061
g82
I3
ssg83
Nsg76
(lp5062
g69
(g85
g71
NtRp5063
(dp5064
g74
(dp5065
sg83
g5059
sg76
(lp5066
g69
(g90
g71
NtRp5067
(dp5068
g74
(dp5069
sg83
g5063
sg76
(lp5070
g69
(g70
g71
NtRp5071
(dp5072
g74
(dp5073
g82
I3
ssg83
g5067
sg76
(lp5074
g4540
(S's\t\x00\x00\x00Traslados'
tRp5075
asbasbasbag69
(g85
g71
NtRp5076
(dp5077
g74
(dp5078
sg83
g5059
sg76
(lp5079
g69
(g90
g71
NtRp5080
(dp5081
g74
(dp5082
sg83
g5076
sg76
(lp5083
g69
(g70
g71
NtRp5084
(dp5085
g74
(dp5086
g82
I3
ssg83
g5080
sg76
(lp5087
g112
asbasbasbag69
(g85
g71
NtRp5088
(dp5089
g74
(dp5090
sg83
g5059
sg76
(lp5091
g69
(g90
g71
NtRp5092
(dp5093
g74
(dp5094
sg83
g5088
sg76
(lp5095
g69
(g70
g71
NtRp5096
(dp5097
g74
(dp5098
g82
I3
ssg83
g5092
sg76
(lp5099
S'/flota/default/index'
p5100
asbasbasbag69
(g85
g71
NtRp5101
(dp5102
g74
(dp5103
sg83
g5059
sg76
(lp5104
g69
(g90
g71
NtRp5105
(dp5106
g74
(dp5107
sg83
g5101
sg76
(lp5108
g69
(g70
g71
NtRp5109
(dp5110
g74
(dp5111
g82
I3
ssg83
g5105
sg76
(lp5112
g69
(g78
g71
NtRp5113
(dp5114
g74
(dp5115
g82
I2
ssg83
Nsg76
(lp5116
g69
(g85
g71
NtRp5117
(dp5118
g74
(dp5119
sg83
g5113
sg76
(lp5120
g69
(g90
g71
NtRp5121
(dp5122
g74
(dp5123
sg83
g5117
sg76
(lp5124
g69
(g70
g71
NtRp5125
(dp5126
g74
(dp5127
g82
I2
ssg83
g5121
sg76
(lp5128
g69
(g78
g71
NtRp5129
(dp5130
g74
(dp5131
g82
I1
ssg83
Nsg76
(lp5132
g69
(g85
g71
NtRp5133
(dp5134
g74
(dp5135
sg83
g5129
sg76
(lp5136
g69
(g90
g71
NtRp5137
(dp5138
g74
(dp5139
sg83
g5133
sg76
(lp5140
g69
(g70
g71
NtRp5141
(dp5142
g74
(dp5143
g82
I1
ssg83
g5137
sg76
(lp5144
g4540
(S's\x08\x00\x00\x00Choferes'
tRp5145
asbasbasbag69
(g85
g71
NtRp5146
(dp5147
g74
(dp5148
sg83
g5129
sg76
(lp5149
g69
(g90
g71
NtRp5150
(dp5151
g74
(dp5152
sg83
g5146
sg76
(lp5153
g69
(g70
g71
NtRp5154
(dp5155
g74
(dp5156
g82
I1
ssg83
g5150
sg76
(lp5157
I00
asbasbasbag69
(g85
g71
NtRp5158
(dp5159
g74
(dp5160
sg83
g5129
sg76
(lp5161
g69
(g90
g71
NtRp5162
(dp5163
g74
(dp5164
sg83
g5158
sg76
(lp5165
g69
(g70
g71
NtRp5166
(dp5167
g74
(dp5168
g82
I1
ssg83
g5162
sg76
(lp5169
S'/flota/chofer/index'
p5170
asbasbasbasbasbasbasbag69
(g85
g71
NtRp5171
(dp5172
g74
(dp5173
sg83
g5113
sg76
(lp5174
g69
(g90
g71
NtRp5175
(dp5176
g74
(dp5177
sg83
g5171
sg76
(lp5178
g69
(g70
g71
NtRp5179
(dp5180
g74
(dp5181
g82
I2
ssg83
g5175
sg76
(lp5182
g69
(g78
g71
NtRp5183
(dp5184
g74
(dp5185
g82
I1
ssg83
Nsg76
(lp5186
g69
(g85
g71
NtRp5187
(dp5188
g74
(dp5189
sg83
g5183
sg76
(lp5190
g69
(g90
g71
NtRp5191
(dp5192
g74
(dp5193
sg83
g5187
sg76
(lp5194
g69
(g70
g71
NtRp5195
(dp5196
g74
(dp5197
g82
I1
ssg83
g5191
sg76
(lp5198
g4540
(S's\t\x00\x00\x00Vehiculos'
tRp5199
asbasbasbag69
(g85
g71
NtRp5200
(dp5201
g74
(dp5202
sg83
g5183
sg76
(lp5203
g69
(g90
g71
NtRp5204
(dp5205
g74
(dp5206
sg83
g5200
sg76
(lp5207
g69
(g70
g71
NtRp5208
(dp5209
g74
(dp5210
g82
I1
ssg83
g5204
sg76
(lp5211
I00
asbasbasbag69
(g85
g71
NtRp5212
(dp5213
g74
(dp5214
sg83
g5183
sg76
(lp5215
g69
(g90
g71
NtRp5216
(dp5217
g74
(dp5218
sg83
g5212
sg76
(lp5219
g69
(g70
g71
NtRp5220
(dp5221
g74
(dp5222
g82
I1
ssg83
g5216
sg76
(lp5223
S'/flota/vehiculo/index'
p5224
asbasbasbasbasbasbasbag69
(g85
g71
NtRp5225
(dp5226
g74
(dp5227
sg83
g5113
sg76
(lp5228
g69
(g90
g71
NtRp5229
(dp5230
g74
(dp5231
sg83
g5225
sg76
(lp5232
g69
(g70
g71
NtRp5233
(dp5234
g74
(dp5235
g82
I2
ssg83
g5229
sg76
(lp5236
g69
(g78
g71
NtRp5237
(dp5238
g74
(dp5239
g82
I1
ssg83
Nsg76
(lp5240
g69
(g85
g71
NtRp5241
(dp5242
g74
(dp5243
sg83
g5237
sg76
(lp5244
g69
(g90
g71
NtRp5245
(dp5246
g74
(dp5247
sg83
g5241
sg76
(lp5248
g69
(g70
g71
NtRp5249
(dp5250
g74
(dp5251
g82
I1
ssg83
g5245
sg76
(lp5252
g4540
(S's\x13\x00\x00\x00Solicitud de Viajes'
tRp5253
asbasbasbag69
(g85
g71
NtRp5254
(dp5255
g74
(dp5256
sg83
g5237
sg76
(lp5257
g69
(g90
g71
NtRp5258
(dp5259
g74
(dp5260
sg83
g5254
sg76
(lp5261
g69
(g70
g71
NtRp5262
(dp5263
g74
(dp5264
g82
I1
ssg83
g5258
sg76
(lp5265
I00
asbasbasbag69
(g85
g71
NtRp5266
(dp5267
g74
(dp5268
sg83
g5237
sg76
(lp5269
g69
(g90
g71
NtRp5270
(dp5271
g74
(dp5272
sg83
g5266
sg76
(lp5273
g69
(g70
g71
NtRp5274
(dp5275
g74
(dp5276
g82
I1
ssg83
g5270
sg76
(lp5277
S'/flota/viaje/index'
p5278
asbasbasbasbasbasbasbag69
(g85
g71
NtRp5279
(dp5280
g74
(dp5281
sg83
g5113
sg76
(lp5282
g69
(g90
g71
NtRp5283
(dp5284
g74
(dp5285
sg83
g5279
sg76
(lp5286
g69
(g70
g71
NtRp5287
(dp5288
g74
(dp5289
g82
I2
ssg83
g5283
sg76
(lp5290
g69
(g78
g71
NtRp5291
(dp5292
g74
(dp5293
g82
I1
ssg83
Nsg76
(lp5294
g69
(g85
g71
NtRp5295
(dp5296
g74
(dp5297
sg83
g5291
sg76
(lp5298
g69
(g90
g71
NtRp5299
(dp5300
g74
(dp5301
sg83
g5295
sg76
(lp5302
g69
(g70
g71
NtRp5303
(dp5304
g74
(dp5305
g82
I1
ssg83
g5299
sg76
(lp5306
g4540
(S's\x14\x00\x00\x00Asignacion de Viajes'
tRp5307
asbasbasbag69
(g85
g71
NtRp5308
(dp5309
g74
(dp5310
sg83
g5291
sg76
(lp5311
g69
(g90
g71
NtRp5312
(dp5313
g74
(dp5314
sg83
g5308
sg76
(lp5315
g69
(g70
g71
NtRp5316
(dp5317
g74
(dp5318
g82
I1
ssg83
g5312
sg76
(lp5319
I00
asbasbasbag69
(g85
g71
NtRp5320
(dp5321
g74
(dp5322
sg83
g5291
sg76
(lp5323
g69
(g90
g71
NtRp5324
(dp5325
g74
(dp5326
sg83
g5320
sg76
(lp5327
g69
(g70
g71
NtRp5328
(dp5329
g74
(dp5330
g82
I1
ssg83
g5324
sg76
(lp5331
S'/flota/asignacion/index'
p5332
asbasbasbasbasbasbasbasbasbasbasbasbasbasbasbag69
(g85
g71
NtRp5333
(dp5334
g74
(dp5335
sg83
g4508
sg76
(lp5336
g69
(g90
g71
NtRp5337
(dp5338
g74
(dp5339
sg83
g5333
sg76
(lp5340
g69
(g70
g71
NtRp5341
(dp5342
g74
(dp5343
g82
I4
ssg83
g5337
sg76
(lp5344
g69
(g78
g71
NtRp5345
(dp5346
g74
(dp5347
g82
I3
ssg83
Nsg76
(lp5348
g69
(g85
g71
NtRp5349
(dp5350
g74
(dp5351
sg83
g5345
sg76
(lp5352
g69
(g90
g71
NtRp5353
(dp5354
g74
(dp5355
sg83
g5349
sg76
(lp5356
g69
(g70
g71
NtRp5357
(dp5358
g74
(dp5359
g82
I3
ssg83
g5353
sg76
(lp5360
g4540
(S's\x0b\x00\x00\x00Facturacion'
tRp5361
asbasbasbag69
(g85
g71
NtRp5362
(dp5363
g74
(dp5364
sg83
g5345
sg76
(lp5365
g69
(g90
g71
NtRp5366
(dp5367
g74
(dp5368
sg83
g5362
sg76
(lp5369
g69
(g70
g71
NtRp5370
(dp5371
g74
(dp5372
g82
I3
ssg83
g5366
sg76
(lp5373
g112
asbasbasbag69
(g85
g71
NtRp5374
(dp5375
g74
(dp5376
sg83
g5345
sg76
(lp5377
g69
(g90
g71
NtRp5378
(dp5379
g74
(dp5380
sg83
g5374
sg76
(lp5381
g69
(g70
g71
NtRp5382
(dp5383
g74
(dp5384
g82
I3
ssg83
g5378
sg76
(lp5385
S'/admin/default/design/flota'
p5386
asbasbasbag69
(g85
g71
NtRp5387
(dp5388
g74
(dp5389
sg83
g5345
sg76
(lp5390
g69
(g90
g71
NtRp5391
(dp5392
g74
(dp5393
sg83
g5387
sg76
(lp5394
g69
(g70
g71
NtRp5395
(dp5396
g74
(dp5397
g82
I3
ssg83
g5391
sg76
(lp5398
g69
(g78
g71
NtRp5399
(dp5400
g74
(dp5401
g82
I2
ssg83
Nsg76
(lp5402
g69
(g85
g71
NtRp5403
(dp5404
g74
(dp5405
sg83
g5399
sg76
(lp5406
g69
(g90
g71
NtRp5407
(dp5408
g74
(dp5409
sg83
g5403
sg76
(lp5410
g69
(g70
g71
NtRp5411
(dp5412
g74
(dp5413
g82
I2
ssg83
g5407
sg76
(lp5414
g69
(g78
g71
NtRp5415
(dp5416
g74
(dp5417
g82
I1
ssg83
Nsg76
(lp5418
g69
(g85
g71
NtRp5419
(dp5420
g74
(dp5421
sg83
g5415
sg76
(lp5422
g69
(g90
g71
NtRp5423
(dp5424
g74
(dp5425
sg83
g5419
sg76
(lp5426
g69
(g70
g71
NtRp5427
(dp5428
g74
(dp5429
g82
I1
ssg83
g5423
sg76
(lp5430
g4540
(S's\x12\x00\x00\x00Tipos de documento'
tRp5431
asbasbasbag69
(g85
g71
NtRp5432
(dp5433
g74
(dp5434
sg83
g5415
sg76
(lp5435
g69
(g90
g71
NtRp5436
(dp5437
g74
(dp5438
sg83
g5432
sg76
(lp5439
g69
(g70
g71
NtRp5440
(dp5441
g74
(dp5442
g82
I1
ssg83
g5436
sg76
(lp5443
I00
asbasbasbag69
(g85
g71
NtRp5444
(dp5445
g74
(dp5446
sg83
g5415
sg76
(lp5447
g69
(g90
g71
NtRp5448
(dp5449
g74
(dp5450
sg83
g5444
sg76
(lp5451
g69
(g70
g71
NtRp5452
(dp5453
g74
(dp5454
g82
I1
ssg83
g5448
sg76
(lp5455
S'/flota/tipodoc/index'
p5456
asbasbasbasbasbasbasbag69
(g85
g71
NtRp5457
(dp5458
g74
(dp5459
sg83
g5399
sg76
(lp5460
g69
(g90
g71
NtRp5461
(dp5462
g74
(dp5463
sg83
g5457
sg76
(lp5464
g69
(g70
g71
NtRp5465
(dp5466
g74
(dp5467
g82
I2
ssg83
g5461
sg76
(lp5468
g69
(g78
g71
NtRp5469
(dp5470
g74
(dp5471
g82
I1
ssg83
Nsg76
(lp5472
g69
(g85
g71
NtRp5473
(dp5474
g74
(dp5475
sg83
g5469
sg76
(lp5476
g69
(g90
g71
NtRp5477
(dp5478
g74
(dp5479
sg83
g5473
sg76
(lp5480
g69
(g70
g71
NtRp5481
(dp5482
g74
(dp5483
g82
I1
ssg83
g5477
sg76
(lp5484
g4540
(S's\x06\x00\x00\x00Bancos'
tRp5485
asbasbasbag69
(g85
g71
NtRp5486
(dp5487
g74
(dp5488
sg83
g5469
sg76
(lp5489
g69
(g90
g71
NtRp5490
(dp5491
g74
(dp5492
sg83
g5486
sg76
(lp5493
g69
(g70
g71
NtRp5494
(dp5495
g74
(dp5496
g82
I1
ssg83
g5490
sg76
(lp5497
I00
asbasbasbag69
(g85
g71
NtRp5498
(dp5499
g74
(dp5500
sg83
g5469
sg76
(lp5501
g69
(g90
g71
NtRp5502
(dp5503
g74
(dp5504
sg83
g5498
sg76
(lp5505
g69
(g70
g71
NtRp5506
(dp5507
g74
(dp5508
g82
I1
ssg83
g5502
sg76
(lp5509
S'/flota/banco/index'
p5510
asbasbasbasbasbasbasbag69
(g85
g71
NtRp5511
(dp5512
g74
(dp5513
sg83
g5399
sg76
(lp5514
g69
(g90
g71
NtRp5515
(dp5516
g74
(dp5517
sg83
g5511
sg76
(lp5518
g69
(g70
g71
NtRp5519
(dp5520
g74
(dp5521
g82
I2
ssg83
g5515
sg76
(lp5522
g69
(g78
g71
NtRp5523
(dp5524
g74
(dp5525
g82
I1
ssg83
Nsg76
(lp5526
g69
(g85
g71
NtRp5527
(dp5528
g74
(dp5529
sg83
g5523
sg76
(lp5530
g69
(g90
g71
NtRp5531
(dp5532
g74
(dp5533
sg83
g5527
sg76
(lp5534
g69
(g70
g71
NtRp5535
(dp5536
g74
(dp5537
g82
I1
ssg83
g5531
sg76
(lp5538
g4540
(S's\x0e\x00\x00\x00Formas de pago'
tRp5539
asbasbasbag69
(g85
g71
NtRp5540
(dp5541
g74
(dp5542
sg83
g5523
sg76
(lp5543
g69
(g90
g71
NtRp5544
(dp5545
g74
(dp5546
sg83
g5540
sg76
(lp5547
g69
(g70
g71
NtRp5548
(dp5549
g74
(dp5550
g82
I1
ssg83
g5544
sg76
(lp5551
I00
asbasbasbag69
(g85
g71
NtRp5552
(dp5553
g74
(dp5554
sg83
g5523
sg76
(lp5555
g69
(g90
g71
NtRp5556
(dp5557
g74
(dp5558
sg83
g5552
sg76
(lp5559
g69
(g70
g71
NtRp5560
(dp5561
g74
(dp5562
g82
I1
ssg83
g5556
sg76
(lp5563
S'/flota/formapago/index'
p5564
asbasbasbasbasbasbasbag69
(g85
g71
NtRp5565
(dp5566
g74
(dp5567
sg83
g5399
sg76
(lp5568
g69
(g90
g71
NtRp5569
(dp5570
g74
(dp5571
sg83
g5565
sg76
(lp5572
g69
(g70
g71
NtRp5573
(dp5574
g74
(dp5575
g82
I2
ssg83
g5569
sg76
(lp5576
g69
(g78
g71
NtRp5577
(dp5578
g74
(dp5579
g82
I1
ssg83
Nsg76
(lp5580
g69
(g85
g71
NtRp5581
(dp5582
g74
(dp5583
sg83
g5577
sg76
(lp5584
g69
(g90
g71
NtRp5585
(dp5586
g74
(dp5587
sg83
g5581
sg76
(lp5588
g69
(g70
g71
NtRp5589
(dp5590
g74
(dp5591
g82
I1
ssg83
g5585
sg76
(lp5592
g4540
(S's\x15\x00\x00\x00Tarifas por servicios'
tRp5593
asbasbasbag69
(g85
g71
NtRp5594
(dp5595
g74
(dp5596
sg83
g5577
sg76
(lp5597
g69
(g90
g71
NtRp5598
(dp5599
g74
(dp5600
sg83
g5594
sg76
(lp5601
g69
(g70
g71
NtRp5602
(dp5603
g74
(dp5604
g82
I1
ssg83
g5598
sg76
(lp5605
I00
asbasbasbag69
(g85
g71
NtRp5606
(dp5607
g74
(dp5608
sg83
g5577
sg76
(lp5609
g69
(g90
g71
NtRp5610
(dp5611
g74
(dp5612
sg83
g5606
sg76
(lp5613
g69
(g70
g71
NtRp5614
(dp5615
g74
(dp5616
g82
I1
ssg83
g5610
sg76
(lp5617
S'/flota/servicio/index'
p5618
asbasbasbasbasbasbasbag69
(g85
g71
NtRp5619
(dp5620
g74
(dp5621
sg83
g5399
sg76
(lp5622
g69
(g90
g71
NtRp5623
(dp5624
g74
(dp5625
sg83
g5619
sg76
(lp5626
g69
(g70
g71
NtRp5627
(dp5628
g74
(dp5629
g82
I2
ssg83
g5623
sg76
(lp5630
g69
(g78
g71
NtRp5631
(dp5632
g74
(dp5633
g82
I1
ssg83
Nsg76
(lp5634
g69
(g85
g71
NtRp5635
(dp5636
g74
(dp5637
sg83
g5631
sg76
(lp5638
g69
(g90
g71
NtRp5639
(dp5640
g74
(dp5641
sg83
g5635
sg76
(lp5642
g69
(g70
g71
NtRp5643
(dp5644
g74
(dp5645
g82
I1
ssg83
g5639
sg76
(lp5646
g4540
(S's\x0c\x00\x00\x00Presupuestos'
tRp5647
asbasbasbag69
(g85
g71
NtRp5648
(dp5649
g74
(dp5650
sg83
g5631
sg76
(lp5651
g69
(g90
g71
NtRp5652
(dp5653
g74
(dp5654
sg83
g5648
sg76
(lp5655
g69
(g70
g71
NtRp5656
(dp5657
g74
(dp5658
g82
I1
ssg83
g5652
sg76
(lp5659
I00
asbasbasbag69
(g85
g71
NtRp5660
(dp5661
g74
(dp5662
sg83
g5631
sg76
(lp5663
g69
(g90
g71
NtRp5664
(dp5665
g74
(dp5666
sg83
g5660
sg76
(lp5667
g69
(g70
g71
NtRp5668
(dp5669
g74
(dp5670
g82
I1
ssg83
g5664
sg76
(lp5671
S'/flota/presupuesto/index'
p5672
asbasbasbasbasbasbasbag69
(g85
g71
NtRp5673
(dp5674
g74
(dp5675
sg83
g5399
sg76
(lp5676
g69
(g90
g71
NtRp5677
(dp5678
g74
(dp5679
sg83
g5673
sg76
(lp5680
g69
(g70
g71
NtRp5681
(dp5682
g74
(dp5683
g82
I2
ssg83
g5677
sg76
(lp5684
g69
(g78
g71
NtRp5685
(dp5686
g74
(dp5687
g82
I1
ssg83
Nsg76
(lp5688
g69
(g85
g71
NtRp5689
(dp5690
g74
(dp5691
sg83
g5685
sg76
(lp5692
g69
(g90
g71
NtRp5693
(dp5694
g74
(dp5695
sg83
g5689
sg76
(lp5696
g69
(g70
g71
NtRp5697
(dp5698
g74
(dp5699
g82
I1
ssg83
g5693
sg76
(lp5700
g4540
(S's\x15\x00\x00\x00Facturar Presupuestos'
tRp5701
asbasbasbag69
(g85
g71
NtRp5702
(dp5703
g74
(dp5704
sg83
g5685
sg76
(lp5705
g69
(g90
g71
NtRp5706
(dp5707
g74
(dp5708
sg83
g5702
sg76
(lp5709
g69
(g70
g71
NtRp5710
(dp5711
g74
(dp5712
g82
I1
ssg83
g5706
sg76
(lp5713
I00
asbasbasbag69
(g85
g71
NtRp5714
(dp5715
g74
(dp5716
sg83
g5685
sg76
(lp5717
g69
(g90
g71
NtRp5718
(dp5719
g74
(dp5720
sg83
g5714
sg76
(lp5721
g69
(g70
g71
NtRp5722
(dp5723
g74
(dp5724
g82
I1
ssg83
g5718
sg76
(lp5725
S'/flota/facturar/index'
p5726
asbasbasbasbasbasbasbag69
(g85
g71
NtRp5727
(dp5728
g74
(dp5729
sg83
g5399
sg76
(lp5730
g69
(g90
g71
NtRp5731
(dp5732
g74
(dp5733
sg83
g5727
sg76
(lp5734
g69
(g70
g71
NtRp5735
(dp5736
g74
(dp5737
g82
I2
ssg83
g5731
sg76
(lp5738
g69
(g78
g71
NtRp5739
(dp5740
g74
(dp5741
g82
I1
ssg83
Nsg76
(lp5742
g69
(g85
g71
NtRp5743
(dp5744
g74
(dp5745
sg83
g5739
sg76
(lp5746
g69
(g90
g71
NtRp5747
(dp5748
g74
(dp5749
sg83
g5743
sg76
(lp5750
g69
(g70
g71
NtRp5751
(dp5752
g74
(dp5753
g82
I1
ssg83
g5747
sg76
(lp5754
g4540
(S's\x08\x00\x00\x00Facturas'
tRp5755
asbasbasbag69
(g85
g71
NtRp5756
(dp5757
g74
(dp5758
sg83
g5739
sg76
(lp5759
g69
(g90
g71
NtRp5760
(dp5761
g74
(dp5762
sg83
g5756
sg76
(lp5763
g69
(g70
g71
NtRp5764
(dp5765
g74
(dp5766
g82
I1
ssg83
g5760
sg76
(lp5767
I00
asbasbasbag69
(g85
g71
NtRp5768
(dp5769
g74
(dp5770
sg83
g5739
sg76
(lp5771
g69
(g90
g71
NtRp5772
(dp5773
g74
(dp5774
sg83
g5768
sg76
(lp5775
g69
(g70
g71
NtRp5776
(dp5777
g74
(dp5778
g82
I1
ssg83
g5772
sg76
(lp5779
S'/flota/factura/index'
p5780
asbasbasbasbasbasbasbag69
(g85
g71
NtRp5781
(dp5782
g74
(dp5783
sg83
g5399
sg76
(lp5784
g69
(g90
g71
NtRp5785
(dp5786
g74
(dp5787
sg83
g5781
sg76
(lp5788
g69
(g70
g71
NtRp5789
(dp5790
g74
(dp5791
g82
I2
ssg83
g5785
sg76
(lp5792
g69
(g78
g71
NtRp5793
(dp5794
g74
(dp5795
g82
I1
ssg83
Nsg76
(lp5796
g69
(g85
g71
NtRp5797
(dp5798
g74
(dp5799
sg83
g5793
sg76
(lp5800
g69
(g90
g71
NtRp5801
(dp5802
g74
(dp5803
sg83
g5797
sg76
(lp5804
g69
(g70
g71
NtRp5805
(dp5806
g74
(dp5807
g82
I1
ssg83
g5801
sg76
(lp5808
g4540
(S's\x06\x00\x00\x00Cobros'
tRp5809
asbasbasbag69
(g85
g71
NtRp5810
(dp5811
g74
(dp5812
sg83
g5793
sg76
(lp5813
g69
(g90
g71
NtRp5814
(dp5815
g74
(dp5816
sg83
g5810
sg76
(lp5817
g69
(g70
g71
NtRp5818
(dp5819
g74
(dp5820
g82
I1
ssg83
g5814
sg76
(lp5821
I00
asbasbasbag69
(g85
g71
NtRp5822
(dp5823
g74
(dp5824
sg83
g5793
sg76
(lp5825
g69
(g90
g71
NtRp5826
(dp5827
g74
(dp5828
sg83
g5822
sg76
(lp5829
g69
(g70
g71
NtRp5830
(dp5831
g74
(dp5832
g82
I1
ssg83
g5826
sg76
(lp5833
S'/flota/cobro/index'
p5834
asbasbasbasbasbasbasbag69
(g85
g71
NtRp5835
(dp5836
g74
(dp5837
sg83
g5399
sg76
(lp5838
g69
(g90
g71
NtRp5839
(dp5840
g74
(dp5841
sg83
g5835
sg76
(lp5842
g69
(g70
g71
NtRp5843
(dp5844
g74
(dp5845
g82
I2
ssg83
g5839
sg76
(lp5846
g69
(g78
g71
NtRp5847
(dp5848
g74
(dp5849
g82
I1
ssg83
Nsg76
(lp5850
g69
(g85
g71
NtRp5851
(dp5852
g74
(dp5853
sg83
g5847
sg76
(lp5854
g69
(g90
g71
NtRp5855
(dp5856
g74
(dp5857
sg83
g5851
sg76
(lp5858
g69
(g70
g71
NtRp5859
(dp5860
g74
(dp5861
g82
I1
ssg83
g5855
sg76
(lp5862
g4540
(S's\x05\x00\x00\x00Pagos'
tRp5863
asbasbasbag69
(g85
g71
NtRp5864
(dp5865
g74
(dp5866
sg83
g5847
sg76
(lp5867
g69
(g90
g71
NtRp5868
(dp5869
g74
(dp5870
sg83
g5864
sg76
(lp5871
g69
(g70
g71
NtRp5872
(dp5873
g74
(dp5874
g82
I1
ssg83
g5868
sg76
(lp5875
I00
asbasbasbag69
(g85
g71
NtRp5876
(dp5877
g74
(dp5878
sg83
g5847
sg76
(lp5879
g69
(g90
g71
NtRp5880
(dp5881
g74
(dp5882
sg83
g5876
sg76
(lp5883
g69
(g70
g71
NtRp5884
(dp5885
g74
(dp5886
g82
I1
ssg83
g5880
sg76
(lp5887
S'/flota/pago/index'
p5888
asbasbasbasbasbasbasbasbasbasbasbasbasbasbasbag69
(g85
g71
NtRp5889
(dp5890
g74
(dp5891
sg83
g4508
sg76
(lp5892
g69
(g90
g71
NtRp5893
(dp5894
g74
(dp5895
sg83
g5889
sg76
(lp5896
g69
(g70
g71
NtRp5897
(dp5898
g74
(dp5899
g82
I4
ssg83
g5893
sg76
(lp5900
g69
(g78
g71
NtRp5901
(dp5902
g74
(dp5903
g82
I3
ssg83
Nsg76
(lp5904
g69
(g85
g71
NtRp5905
(dp5906
g74
(dp5907
sg83
g5901
sg76
(lp5908
g69
(g90
g71
NtRp5909
(dp5910
g74
(dp5911
sg83
g5905
sg76
(lp5912
g69
(g70
g71
NtRp5913
(dp5914
g74
(dp5915
g82
I3
ssg83
g5909
sg76
(lp5916
g4540
(S's\x08\x00\x00\x00Reportes'
tRp5917
asbasbasbag69
(g85
g71
NtRp5918
(dp5919
g74
(dp5920
sg83
g5901
sg76
(lp5921
g69
(g90
g71
NtRp5922
(dp5923
g74
(dp5924
sg83
g5918
sg76
(lp5925
g69
(g70
g71
NtRp5926
(dp5927
g74
(dp5928
g82
I3
ssg83
g5922
sg76
(lp5929
g112
asbasbasbag69
(g85
g71
NtRp5930
(dp5931
g74
(dp5932
sg83
g5901
sg76
(lp5933
g69
(g90
g71
NtRp5934
(dp5935
g74
(dp5936
sg83
g5930
sg76
(lp5937
g69
(g70
g71
NtRp5938
(dp5939
g74
(dp5940
g82
I3
ssg83
g5934
sg76
(lp5941
S'/flota/reportes/index'
p5942
asbasbasbag69
(g85
g71
NtRp5943
(dp5944
g74
(dp5945
sg83
g5901
sg76
(lp5946
g69
(g90
g71
NtRp5947
(dp5948
g74
(dp5949
sg83
g5943
sg76
(lp5950
g69
(g70
g71
NtRp5951
(dp5952
g74
(dp5953
g82
I3
ssg83
g5947
sg76
(lp5954
g69
(g78
g71
NtRp5955
(dp5956
g74
(dp5957
g82
I2
ssg83
Nsg76
(lp5958
g69
(g85
g71
NtRp5959
(dp5960
g74
(dp5961
sg83
g5955
sg76
(lp5962
g69
(g90
g71
NtRp5963
(dp5964
g74
(dp5965
sg83
g5959
sg76
(lp5966
g69
(g70
g71
NtRp5967
(dp5968
g74
(dp5969
g82
I2
ssg83
g5963
sg76
(lp5970
g69
(g78
g71
NtRp5971
(dp5972
g74
(dp5973
g82
I1
ssg83
Nsg76
(lp5974
g69
(g85
g71
NtRp5975
(dp5976
g74
(dp5977
sg83
g5971
sg76
(lp5978
g69
(g90
g71
NtRp5979
(dp5980
g74
(dp5981
sg83
g5975
sg76
(lp5982
g69
(g70
g71
NtRp5983
(dp5984
g74
(dp5985
g82
I1
ssg83
g5979
sg76
(lp5986
g4540
(S's\r\x00\x00\x00Configuracion'
tRp5987
asbasbasbag69
(g85
g71
NtRp5988
(dp5989
g74
(dp5990
sg83
g5971
sg76
(lp5991
g69
(g90
g71
NtRp5992
(dp5993
g74
(dp5994
sg83
g5988
sg76
(lp5995
g69
(g70
g71
NtRp5996
(dp5997
g74
(dp5998
g82
I1
ssg83
g5992
sg76
(lp5999
I00
asbasbasbag69
(g85
g71
NtRp6000
(dp6001
g74
(dp6002
sg83
g5971
sg76
(lp6003
g69
(g90
g71
NtRp6004
(dp6005
g74
(dp6006
sg83
g6000
sg76
(lp6007
g69
(g70
g71
NtRp6008
(dp6009
g74
(dp6010
g82
I1
ssg83
g6004
sg76
(lp6011
S'/flota/reportes/configs'
p6012
asbasbasbasbasbasbasbag69
(g85
g71
NtRp6013
(dp6014
g74
(dp6015
sg83
g5955
sg76
(lp6016
g69
(g90
g71
NtRp6017
(dp6018
g74
(dp6019
sg83
g6013
sg76
(lp6020
g69
(g70
g71
NtRp6021
(dp6022
g74
(dp6023
g82
I2
ssg83
g6017
sg76
(lp6024
g69
(g78
g71
NtRp6025
(dp6026
g74
(dp6027
g82
I1
ssg83
Nsg76
(lp6028
g69
(g85
g71
NtRp6029
(dp6030
g74
(dp6031
sg83
g6025
sg76
(lp6032
g69
(g90
g71
NtRp6033
(dp6034
g74
(dp6035
sg83
g6029
sg76
(lp6036
g69
(g70
g71
NtRp6037
(dp6038
g74
(dp6039
g82
I1
ssg83
g6033
sg76
(lp6040
g4540
(S's\x08\x00\x00\x00Maestros'
tRp6041
asbasbasbag69
(g85
g71
NtRp6042
(dp6043
g74
(dp6044
sg83
g6025
sg76
(lp6045
g69
(g90
g71
NtRp6046
(dp6047
g74
(dp6048
sg83
g6042
sg76
(lp6049
g69
(g70
g71
NtRp6050
(dp6051
g74
(dp6052
g82
I1
ssg83
g6046
sg76
(lp6053
I00
asbasbasbag69
(g85
g71
NtRp6054
(dp6055
g74
(dp6056
sg83
g6025
sg76
(lp6057
g69
(g90
g71
NtRp6058
(dp6059
g74
(dp6060
sg83
g6054
sg76
(lp6061
g69
(g70
g71
NtRp6062
(dp6063
g74
(dp6064
g82
I1
ssg83
g6058
sg76
(lp6065
S'/flota/reportes/maestros'
p6066
asbasbasbasbasbasbasbag69
(g85
g71
NtRp6067
(dp6068
g74
(dp6069
sg83
g5955
sg76
(lp6070
g69
(g90
g71
NtRp6071
(dp6072
g74
(dp6073
sg83
g6067
sg76
(lp6074
g69
(g70
g71
NtRp6075
(dp6076
g74
(dp6077
g82
I2
ssg83
g6071
sg76
(lp6078
g69
(g78
g71
NtRp6079
(dp6080
g74
(dp6081
g82
I1
ssg83
Nsg76
(lp6082
g69
(g85
g71
NtRp6083
(dp6084
g74
(dp6085
sg83
g6079
sg76
(lp6086
g69
(g90
g71
NtRp6087
(dp6088
g74
(dp6089
sg83
g6083
sg76
(lp6090
g69
(g70
g71
NtRp6091
(dp6092
g74
(dp6093
g82
I1
ssg83
g6087
sg76
(lp6094
g4540
(S's\x0c\x00\x00\x00Presupuestos'
tRp6095
asbasbasbag69
(g85
g71
NtRp6096
(dp6097
g74
(dp6098
sg83
g6079
sg76
(lp6099
g69
(g90
g71
NtRp6100
(dp6101
g74
(dp6102
sg83
g6096
sg76
(lp6103
g69
(g70
g71
NtRp6104
(dp6105
g74
(dp6106
g82
I1
ssg83
g6100
sg76
(lp6107
I00
asbasbasbag69
(g85
g71
NtRp6108
(dp6109
g74
(dp6110
sg83
g6079
sg76
(lp6111
g69
(g90
g71
NtRp6112
(dp6113
g74
(dp6114
sg83
g6108
sg76
(lp6115
g69
(g70
g71
NtRp6116
(dp6117
g74
(dp6118
g82
I1
ssg83
g6112
sg76
(lp6119
S'/flota/cobro2/index'
p6120
asbasbasbag69
(g85
g71
NtRp6121
(dp6122
g74
(dp6123
sg83
g6079
sg76
(lp6124
g69
(g90
g71
NtRp6125
(dp6126
g74
(dp6127
sg83
g6121
sg76
(lp6128
g69
(g70
g71
NtRp6129
(dp6130
g74
(dp6131
g82
I1
ssg83
g6125
sg76
(lp6132
(lp6133
(g4540
(S's\x15\x00\x00\x00Todos los presupestos'
tRp6134
I00
S'/flota/reportes/presupuestos/todos'
tp6135
aasbasbasbasbasbasbasbag69
(g85
g71
NtRp6136
(dp6137
g74
(dp6138
sg83
g5955
sg76
(lp6139
g69
(g90
g71
NtRp6140
(dp6141
g74
(dp6142
sg83
g6136
sg76
(lp6143
g69
(g70
g71
NtRp6144
(dp6145
g74
(dp6146
g82
I2
ssg83
g6140
sg76
(lp6147
g69
(g78
g71
NtRp6148
(dp6149
g74
(dp6150
g82
I1
ssg83
Nsg76
(lp6151
g69
(g85
g71
NtRp6152
(dp6153
g74
(dp6154
sg83
g6148
sg76
(lp6155
g69
(g90
g71
NtRp6156
(dp6157
g74
(dp6158
sg83
g6152
sg76
(lp6159
g69
(g70
g71
NtRp6160
(dp6161
g74
(dp6162
g82
I1
ssg83
g6156
sg76
(lp6163
g4540
(S's\x0b\x00\x00\x00Facturacion'
tRp6164
asbasbasbag69
(g85
g71
NtRp6165
(dp6166
g74
(dp6167
sg83
g6148
sg76
(lp6168
g69
(g90
g71
NtRp6169
(dp6170
g74
(dp6171
sg83
g6165
sg76
(lp6172
g69
(g70
g71
NtRp6173
(dp6174
g74
(dp6175
g82
I1
ssg83
g6169
sg76
(lp6176
I00
asbasbasbag69
(g85
g71
NtRp6177
(dp6178
g74
(dp6179
sg83
g6148
sg76
(lp6180
g69
(g90
g71
NtRp6181
(dp6182
g74
(dp6183
sg83
g6177
sg76
(lp6184
g69
(g70
g71
NtRp6185
(dp6186
g74
(dp6187
g82
I1
ssg83
g6181
sg76
(lp6188
S'/flota/cobro2/index'
p6189
asbasbasbag69
(g85
g71
NtRp6190
(dp6191
g74
(dp6192
sg83
g6148
sg76
(lp6193
g69
(g90
g71
NtRp6194
(dp6195
g74
(dp6196
sg83
g6190
sg76
(lp6197
g69
(g70
g71
NtRp6198
(dp6199
g74
(dp6200
g82
I1
ssg83
g6194
sg76
(lp6201
(lp6202
(g4540
(S's\x12\x00\x00\x00Cuentas por cobrar'
tRp6203
I00
S'/flota/reportes/porcobrar/todos'
tp6204
aasbasbasbasbasbasbasbag69
(g85
g71
NtRp6205
(dp6206
g74
(dp6207
sg83
g5955
sg76
(lp6208
g69
(g90
g71
NtRp6209
(dp6210
g74
(dp6211
sg83
g6205
sg76
(lp6212
g69
(g70
g71
NtRp6213
(dp6214
g74
(dp6215
g82
I2
ssg83
g6209
sg76
(lp6216
g69
(g78
g71
NtRp6217
(dp6218
g74
(dp6219
g82
I1
ssg83
Nsg76
(lp6220
g69
(g85
g71
NtRp6221
(dp6222
g74
(dp6223
sg83
g6217
sg76
(lp6224
g69
(g90
g71
NtRp6225
(dp6226
g74
(dp6227
sg83
g6221
sg76
(lp6228
g69
(g70
g71
NtRp6229
(dp6230
g74
(dp6231
g82
I1
ssg83
g6225
sg76
(lp6232
g4540
(S's\x0b\x00\x00\x00Movimientos'
tRp6233
asbasbasbag69
(g85
g71
NtRp6234
(dp6235
g74
(dp6236
sg83
g6217
sg76
(lp6237
g69
(g90
g71
NtRp6238
(dp6239
g74
(dp6240
sg83
g6234
sg76
(lp6241
g69
(g70
g71
NtRp6242
(dp6243
g74
(dp6244
g82
I1
ssg83
g6238
sg76
(lp6245
I00
asbasbasbag69
(g85
g71
NtRp6246
(dp6247
g74
(dp6248
sg83
g6217
sg76
(lp6249
g69
(g90
g71
NtRp6250
(dp6251
g74
(dp6252
sg83
g6246
sg76
(lp6253
g69
(g70
g71
NtRp6254
(dp6255
g74
(dp6256
g82
I1
ssg83
g6250
sg76
(lp6257
S'/flota/reportes/movitos'
p6258
asbasbasbasbasbasbasbag69
(g85
g71
NtRp6259
(dp6260
g74
(dp6261
sg83
g5955
sg76
(lp6262
g69
(g90
g71
NtRp6263
(dp6264
g74
(dp6265
sg83
g6259
sg76
(lp6266
g69
(g70
g71
NtRp6267
(dp6268
g74
(dp6269
g82
I2
ssg83
g6263
sg76
(lp6270
g69
(g78
g71
NtRp6271
(dp6272
g74
(dp6273
g82
I1
ssg83
Nsg76
(lp6274
g69
(g85
g71
NtRp6275
(dp6276
g74
(dp6277
sg83
g6271
sg76
(lp6278
g69
(g90
g71
NtRp6279
(dp6280
g74
(dp6281
sg83
g6275
sg76
(lp6282
g69
(g70
g71
NtRp6283
(dp6284
g74
(dp6285
g82
I1
ssg83
g6279
sg76
(lp6286
g4540
(S's\x06\x00\x00\x00Gastos'
tRp6287
asbasbasbag69
(g85
g71
NtRp6288
(dp6289
g74
(dp6290
sg83
g6271
sg76
(lp6291
g69
(g90
g71
NtRp6292
(dp6293
g74
(dp6294
sg83
g6288
sg76
(lp6295
g69
(g70
g71
NtRp6296
(dp6297
g74
(dp6298
g82
I1
ssg83
g6292
sg76
(lp6299
I00
asbasbasbag69
(g85
g71
NtRp6300
(dp6301
g74
(dp6302
sg83
g6271
sg76
(lp6303
g69
(g90
g71
NtRp6304
(dp6305
g74
(dp6306
sg83
g6300
sg76
(lp6307
g69
(g70
g71
NtRp6308
(dp6309
g74
(dp6310
g82
I1
ssg83
g6304
sg76
(lp6311
S'/flota/reportes/gastos'
p6312
asbasbasbasbasbasbasbasbasbasbasbasbasbasbasbasbasbasbasbag69
(g85
g71
NtRp6313
(dp6314
g74
(dp6315
sg83
g3890
sg76
(lp6316
g69
(g90
g71
NtRp6317
(dp6318
g74
(dp6319
g94
g95
ssg83
g6313
sg76
(lp6320
S'meta'
p6321
asbag69
(g90
g71
NtRp6322
(dp6323
g74
(dp6324
g101
g102
ssg83
g6313
sg76
(lp6325
S':'
asbag69
(g90
g71
NtRp6326
(dp6327
g74
(dp6328
sg83
g6313
sg76
(lp6329
g69
(g70
g71
NtRp6330
(dp6331
g74
(dp6332
g82
I5
ssg83
g6326
sg76
(lp6333
g69
(g78
g71
NtRp6334
(dp6335
g74
(dp6336
g82
I4
ssg83
Nsg76
(lp6337
g69
(g85
g71
NtRp6338
(dp6339
g74
(dp6340
sg83
g6334
sg76
(lp6341
g69
(g90
g71
NtRp6342
(dp6343
g74
(dp6344
g94
g95
ssg83
g6338
sg76
(lp6345
S'author'
p6346
asbag69
(g90
g71
NtRp6347
(dp6348
g74
(dp6349
g101
g102
ssg83
g6338
sg76
(lp6350
S':'
asbag69
(g90
g71
NtRp6351
(dp6352
g74
(dp6353
sg83
g6338
sg76
(lp6354
g69
(g70
g71
NtRp6355
(dp6356
g74
(dp6357
g82
I4
ssg83
g6351
sg76
(lp6358
S'Wuelfhis Asuaje'
p6359
asbasbasbag69
(g85
g71
NtRp6360
(dp6361
g74
(dp6362
sg83
g6334
sg76
(lp6363
g69
(g90
g71
NtRp6364
(dp6365
g74
(dp6366
g94
g95
ssg83
g6360
sg76
(lp6367
S'copyright'
p6368
asbag69
(g90
g71
NtRp6369
(dp6370
g74
(dp6371
g101
g102
ssg83
g6360
sg76
(lp6372
S':'
asbag69
(g90
g71
NtRp6373
(dp6374
g74
(dp6375
sg83
g6360
sg76
(lp6376
g69
(g70
g71
NtRp6377
(dp6378
g74
(dp6379
g82
I4
ssg83
g6373
sg76
(lp6380
S'Copyright 2007-2012'
p6381
asbasbasbag69
(g85
g71
NtRp6382
(dp6383
g74
(dp6384
sg83
g6334
sg76
(lp6385
g69
(g90
g71
NtRp6386
(dp6387
g74
(dp6388
g94
g95
ssg83
g6382
sg76
(lp6389
S'description'
p6390
asbag69
(g90
g71
NtRp6391
(dp6392
g74
(dp6393
g101
g102
ssg83
g6382
sg76
(lp6394
S':'
asbag69
(g90
g71
NtRp6395
(dp6396
g74
(dp6397
sg83
g6382
sg76
(lp6398
g69
(g70
g71
NtRp6399
(dp6400
g74
(dp6401
g82
I4
ssg83
g6395
sg76
(lp6402
S'Free and open source full-stack enterprise framework for agile development of fast, scalable, secure and portable database-driven web-based applications. Written and programmable in Python'
p6403
asbasbasbag69
(g85
g71
NtRp6404
(dp6405
g74
(dp6406
sg83
g6334
sg76
(lp6407
g69
(g90
g71
NtRp6408
(dp6409
g74
(dp6410
g94
g95
ssg83
g6404
sg76
(lp6411
S'generator'
p6412
asbag69
(g90
g71
NtRp6413
(dp6414
g74
(dp6415
g101
g102
ssg83
g6404
sg76
(lp6416
S':'
asbag69
(g90
g71
NtRp6417
(dp6418
g74
(dp6419
sg83
g6404
sg76
(lp6420
g69
(g70
g71
NtRp6421
(dp6422
g74
(dp6423
g82
I4
ssg83
g6417
sg76
(lp6424
S'Web2py Enterprise Framework'
p6425
asbasbasbag69
(g85
g71
NtRp6426
(dp6427
g74
(dp6428
sg83
g6334
sg76
(lp6429
g69
(g90
g71
NtRp6430
(dp6431
g74
(dp6432
g94
g95
ssg83
g6426
sg76
(lp6433
S'keywords'
p6434
asbag69
(g90
g71
NtRp6435
(dp6436
g74
(dp6437
g101
g102
ssg83
g6426
sg76
(lp6438
S':'
asbag69
(g90
g71
NtRp6439
(dp6440
g74
(dp6441
sg83
g6426
sg76
(lp6442
g69
(g70
g71
NtRp6443
(dp6444
g74
(dp6445
g82
I4
ssg83
g6439
sg76
(lp6446
S'web2py, python, framework'
p6447
asbasbasbasbasbasbasbag69
(g85
g71
NtRp6448
(dp6449
g74
(dp6450
sg83
g3890
sg76
(lp6451
g69
(g90
g71
NtRp6452
(dp6453
g74
(dp6454
g94
g95
ssg83
g6448
sg76
(lp6455
S'models_to_run'
p6456
asbag69
(g90
g71
NtRp6457
(dp6458
g74
(dp6459
g101
g102
ssg83
g6448
sg76
(lp6460
S':'
asbag69
(g90
g71
NtRp6461
(dp6462
g74
(dp6463
sg83
g6448
sg76
(lp6464
g69
(g70
g71
NtRp6465
(dp6466
g74
(dp6467
g82
I5
ssg83
g6461
sg76
(lp6468
g69
(g78
g71
NtRp6469
(dp6470
g74
(dp6471
g82
I4
ssg83
Nsg76
(lp6472
g69
(g85
g71
NtRp6473
(dp6474
g74
(dp6475
sg83
g6469
sg76
(lp6476
g69
(g90
g71
NtRp6477
(dp6478
g74
(dp6479
sg83
g6473
sg76
(lp6480
g69
(g70
g71
NtRp6481
(dp6482
g74
(dp6483
g82
I4
ssg83
g6477
sg76
(lp6484
S'^\\w+\\.py$'
p6485
asbasbasbag69
(g85
g71
NtRp6486
(dp6487
g74
(dp6488
sg83
g6469
sg76
(lp6489
g69
(g90
g71
NtRp6490
(dp6491
g74
(dp6492
sg83
g6486
sg76
(lp6493
g69
(g70
g71
NtRp6494
(dp6495
g74
(dp6496
g82
I4
ssg83
g6490
sg76
(lp6497
S'^cobro2/\\w+\\.py$'
p6498
asbasbasbag69
(g85
g71
NtRp6499
(dp6500
g74
(dp6501
sg83
g6469
sg76
(lp6502
g69
(g90
g71
NtRp6503
(dp6504
g74
(dp6505
sg83
g6499
sg76
(lp6506
g69
(g70
g71
NtRp6507
(dp6508
g74
(dp6509
g82
I4
ssg83
g6503
sg76
(lp6510
S'^cobro2/index/\\w+\\.py$'
p6511
asbasbasbasbasbasbasbag69
(g85
g71
NtRp6512
(dp6513
g74
(dp6514
sg83
g3890
sg76
(lp6515
g69
(g90
g71
NtRp6516
(dp6517
g74
(dp6518
g94
g95
ssg83
g6512
sg76
(lp6519
S'postprocessing'
p6520
asbag69
(g90
g71
NtRp6521
(dp6522
g74
(dp6523
g101
g102
ssg83
g6512
sg76
(lp6524
S':'
asbag69
(g90
g71
NtRp6525
(dp6526
g74
(dp6527
sg83
g6512
sg76
(lp6528
g69
(g70
g71
NtRp6529
(dp6530
g74
(dp6531
g82
I5
ssg83
g6525
sg76
(lp6532
g69
(g78
g71
NtRp6533
(dp6534
g74
(dp6535
g82
I4
ssg83
Nsg76
(lp6536
sbasbasbasbag69
(g85
g71
NtRp6537
(dp6538
g74
(dp6539
sg83
g3890
sg76
(lp6540
g69
(g90
g71
NtRp6541
(dp6542
g74
(dp6543
g94
g95
ssg83
g6537
sg76
(lp6544
S'session_cookie_expires'
p6545
asbag69
(g90
g71
NtRp6546
(dp6547
g74
(dp6548
g101
g102
ssg83
g6537
sg76
(lp6549
S':'
asbag69
(g90
g71
NtRp6550
(dp6551
g74
(dp6552
sg83
g6537
sg76
(lp6553
g69
(g70
g71
NtRp6554
(dp6555
g74
(dp6556
g82
I5
ssg83
g6550
sg76
(lp6557
S'None'
p6558
asbasbasbag69
(g85
g71
NtRp6559
(dp6560
g74
(dp6561
sg83
g3890
sg76
(lp6562
g69
(g90
g71
NtRp6563
(dp6564
g74
(dp6565
g94
g95
ssg83
g6559
sg76
(lp6566
S'session_data_name'
p6567
asbag69
(g90
g71
NtRp6568
(dp6569
g74
(dp6570
g101
g102
ssg83
g6559
sg76
(lp6571
S':'
asbag69
(g90
g71
NtRp6572
(dp6573
g74
(dp6574
sg83
g6559
sg76
(lp6575
g69
(g70
g71
NtRp6576
(dp6577
g74
(dp6578
g82
I5
ssg83
g6572
sg76
(lp6579
S'session_data_flota'
p6580
asbasbasbag69
(g85
g71
NtRp6581
(dp6582
g74
(dp6583
sg83
g3890
sg76
(lp6584
g69
(g90
g71
NtRp6585
(dp6586
g74
(dp6587
g94
g95
ssg83
g6581
sg76
(lp6588
S'session_file'
p6589
asbag69
(g90
g71
NtRp6590
(dp6591
g74
(dp6592
g101
g102
ssg83
g6581
sg76
(lp6593
S':'
asbag69
(g90
g71
NtRp6594
(dp6595
g74
(dp6596
sg83
g6581
sg76
(lp6597
g69
(g70
g71
NtRp6598
(dp6599
g74
(dp6600
g82
I5
ssg83
g6594
sg76
(lp6601
S"<open file '/home/wasuaje/Documentos/desarrollo/web2py5/applications/flota/sessions/127.0.0.1-2318b8f8-1fb4-4280-8d04-88c459a3d745', mode 'rb+' at 0xad1d1498>"
p6602
asbasbasbag69
(g85
g71
NtRp6603
(dp6604
g74
(dp6605
sg83
g3890
sg76
(lp6606
g69
(g90
g71
NtRp6607
(dp6608
g74
(dp6609
g94
g95
ssg83
g6603
sg76
(lp6610
S'session_filename'
p6611
asbag69
(g90
g71
NtRp6612
(dp6613
g74
(dp6614
g101
g102
ssg83
g6603
sg76
(lp6615
S':'
asbag69
(g90
g71
NtRp6616
(dp6617
g74
(dp6618
sg83
g6603
sg76
(lp6619
g69
(g70
g71
NtRp6620
(dp6621
g74
(dp6622
g82
I5
ssg83
g6616
sg76
(lp6623
S'/home/wasuaje/Documentos/desarrollo/web2py5/applications/flota/sessions/127.0.0.1-2318b8f8-1fb4-4280-8d04-88c459a3d745'
p6624
asbasbasbag69
(g85
g71
NtRp6625
(dp6626
g74
(dp6627
sg83
g3890
sg76
(lp6628
g69
(g90
g71
NtRp6629
(dp6630
g74
(dp6631
g94
g95
ssg83
g6625
sg76
(lp6632
S'session_id'
p6633
asbag69
(g90
g71
NtRp6634
(dp6635
g74
(dp6636
g101
g102
ssg83
g6625
sg76
(lp6637
S':'
asbag69
(g90
g71
NtRp6638
(dp6639
g74
(dp6640
sg83
g6625
sg76
(lp6641
g69
(g70
g71
NtRp6642
(dp6643
g74
(dp6644
g82
I5
ssg83
g6638
sg76
(lp6645
g487
asbasbasbag69
(g85
g71
NtRp6646
(dp6647
g74
(dp6648
sg83
g3890
sg76
(lp6649
g69
(g90
g71
NtRp6650
(dp6651
g74
(dp6652
g94
g95
ssg83
g6646
sg76
(lp6653
S'session_id_name'
p6654
asbag69
(g90
g71
NtRp6655
(dp6656
g74
(dp6657
g101
g102
ssg83
g6646
sg76
(lp6658
S':'
asbag69
(g90
g71
NtRp6659
(dp6660
g74
(dp6661
sg83
g6646
sg76
(lp6662
g69
(g70
g71
NtRp6663
(dp6664
g74
(dp6665
g82
I5
ssg83
g6659
sg76
(lp6666
g3947
asbasbasbag69
(g85
g71
NtRp6667
(dp6668
g74
(dp6669
sg83
g3890
sg76
(lp6670
g69
(g90
g71
NtRp6671
(dp6672
g74
(dp6673
g94
g95
ssg83
g6667
sg76
(lp6674
S'session_locked'
p6675
asbag69
(g90
g71
NtRp6676
(dp6677
g74
(dp6678
g101
g102
ssg83
g6667
sg76
(lp6679
S':'
asbag69
(g90
g71
NtRp6680
(dp6681
g74
(dp6682
sg83
g6667
sg76
(lp6683
g69
(g70
g71
NtRp6684
(dp6685
g74
(dp6686
g82
I5
ssg83
g6680
sg76
(lp6687
g1967
asbasbasbag69
(g85
g71
NtRp6688
(dp6689
g74
(dp6690
sg83
g3890
sg76
(lp6691
g69
(g90
g71
NtRp6692
(dp6693
g74
(dp6694
g94
g95
ssg83
g6688
sg76
(lp6695
S'session_new'
p6696
asbag69
(g90
g71
NtRp6697
(dp6698
g74
(dp6699
g101
g102
ssg83
g6688
sg76
(lp6700
S':'
asbag69
(g90
g71
NtRp6701
(dp6702
g74
(dp6703
sg83
g6688
sg76
(lp6704
g69
(g70
g71
NtRp6705
(dp6706
g74
(dp6707
g82
I5
ssg83
g6701
sg76
(lp6708
g112
asbasbasbag69
(g85
g71
NtRp6709
(dp6710
g74
(dp6711
sg83
g3890
sg76
(lp6712
g69
(g90
g71
NtRp6713
(dp6714
g74
(dp6715
g94
g95
ssg83
g6709
sg76
(lp6716
S'session_storage_type'
p6717
asbag69
(g90
g71
NtRp6718
(dp6719
g74
(dp6720
g101
g102
ssg83
g6709
sg76
(lp6721
S':'
asbag69
(g90
g71
NtRp6722
(dp6723
g74
(dp6724
sg83
g6709
sg76
(lp6725
g69
(g70
g71
NtRp6726
(dp6727
g74
(dp6728
g82
I5
ssg83
g6722
sg76
(lp6729
g3398
asbasbasbag69
(g85
g71
NtRp6730
(dp6731
g74
(dp6732
sg83
g3890
sg76
(lp6733
g69
(g90
g71
NtRp6734
(dp6735
g74
(dp6736
g94
g95
ssg83
g6730
sg76
(lp6737
S'status'
p6738
asbag69
(g90
g71
NtRp6739
(dp6740
g74
(dp6741
g101
g102
ssg83
g6730
sg76
(lp6742
S':'
asbag69
(g90
g71
NtRp6743
(dp6744
g74
(dp6745
sg83
g6730
sg76
(lp6746
g69
(g70
g71
NtRp6747
(dp6748
g74
(dp6749
g82
I5
ssg83
g6743
sg76
(lp6750
S'200'
p6751
asbasbasbag69
(g85
g71
NtRp6752
(dp6753
g74
(dp6754
sg83
g3890
sg76
(lp6755
g69
(g90
g71
NtRp6756
(dp6757
g74
(dp6758
g94
g95
ssg83
g6752
sg76
(lp6759
S'subtitle'
p6760
asbag69
(g90
g71
NtRp6761
(dp6762
g74
(dp6763
g101
g102
ssg83
g6752
sg76
(lp6764
S':'
asbag69
(g90
g71
NtRp6765
(dp6766
g74
(dp6767
sg83
g6752
sg76
(lp6768
g69
(g70
g71
NtRp6769
(dp6770
g74
(dp6771
g82
I5
ssg83
g6765
sg76
(lp6772
g4540
(S's\t\x00\x00\x00Adaptame!'
tRp6773
asbasbasbag69
(g85
g71
NtRp6774
(dp6775
g74
(dp6776
sg83
g3890
sg76
(lp6777
g69
(g90
g71
NtRp6778
(dp6779
g74
(dp6780
g94
g95
ssg83
g6774
sg76
(lp6781
S'title'
p6782
asbag69
(g90
g71
NtRp6783
(dp6784
g74
(dp6785
g101
g102
ssg83
g6774
sg76
(lp6786
S':'
asbag69
(g90
g71
NtRp6787
(dp6788
g74
(dp6789
sg83
g6774
sg76
(lp6790
g69
(g70
g71
NtRp6791
(dp6792
g74
(dp6793
g82
I5
ssg83
g6787
sg76
(lp6794
g134
asbasbasbag69
(g85
g71
NtRp6795
(dp6796
g74
(dp6797
sg83
g3890
sg76
(lp6798
g69
(g90
g71
NtRp6799
(dp6800
g74
(dp6801
g94
g95
ssg83
g6795
sg76
(lp6802
S'view'
p6803
asbag69
(g90
g71
NtRp6804
(dp6805
g74
(dp6806
g101
g102
ssg83
g6795
sg76
(lp6807
S':'
asbag69
(g90
g71
NtRp6808
(dp6809
g74
(dp6810
sg83
g6795
sg76
(lp6811
g69
(g70
g71
NtRp6812
(dp6813
g74
(dp6814
g82
I5
ssg83
g6808
sg76
(lp6815
S'cobro2/index.html'
p6816
asbasbasbasbasbsS'locals'
p6817
(dp6818
g4
S"'/home/wasuaje/Documentos/desarrollo/web2py5/applications/flota/views/cobro2/index.html'"
p6819
sg6
S'\'response.write(\\\'<!DOCTYPE html PUBLIC "-//W3C//D...d footer -->\\\\n </body>\\\\n</html>\\\\n\\\', escape=False)\''
p6820
sssS'traceback'
p6821
S'Traceback (most recent call last):\n  File "/home/wasuaje/Documentos/desarrollo/web2py5/gluon/restricted.py", line 211, in restricted\n    ccode = compile2(code, layer)\n  File "/home/wasuaje/Documentos/desarrollo/web2py5/gluon/restricted.py", line 194, in compile2\n    return compile(code.rstrip().replace(\'\\r\\n\', \'\\n\') + \'\\n\', layer, \'exec\')\n  File "/home/wasuaje/Documentos/desarrollo/web2py5/applications/flota/views/cobro2/index.html", line 51\n    response.write(plugin_jqgrid(db.fc_cobro,columns=cold_width=[80,20,80,120]))\n                                                               ^\nSyntaxError: invalid syntax\n'
p6822
s.