(dp1
S'role'
p2
(dp3
S'length'
p4
I512
sS'unique'
p5
I00
sS'sortable'
p6
I2
sS'sql'
p7
S'VARCHAR(512)'
p8
sS'notnull'
p9
I00
sS'type'
p10
S'string'
p11
ssS'id'
p12
(dp13
S'sortable'
p14
I1
sS'sql'
p15
S'INT AUTO_INCREMENT NOT NULL'
p16
sS'length'
p17
I255
sS'notnull'
p18
I00
sS'unique'
p19
I00
sS'type'
p20
S'id'
p21
ssS'description'
p22
(dp23
g14
I3
sg15
S'LONGTEXT'
p24
sg17
I32768
sg18
I00
sg19
I00
sg20
S'text'
p25
ss.